

Microchip MPLAB XC8 Assembler V2.10 build 88905656 
                                                                                               Thu Apr 08 23:40:51 2021

Microchip MPLAB XC8 C Compiler v2.10 (Free license) build 20190730164152 Og1 
     1                           	processor	16F877A
     2                           	opt	pw 120
     3                           	opt	flic
     4                           	psect	idataBANK1,global,class=CODE,delta=2
     5                           	psect	strings,global,class=STRING,delta=2
     6                           	psect	cinit,global,class=CODE,merge=1,delta=2
     7                           	psect	bssBANK1,global,class=BANK1,space=1,delta=1
     8                           	psect	dataBANK1,global,class=BANK1,space=1,delta=1
     9                           	psect	clrtext,global,class=CODE,delta=2
    10                           	psect	cstackBANK1,global,class=BANK1,space=1,delta=1
    11                           	psect	cstackCOMMON,global,class=COMMON,space=1,delta=1
    12                           	psect	cstackBANK0,global,class=BANK0,space=1,delta=1
    13                           	psect	maintext,global,class=CODE,split=1,delta=2
    14                           	psect	text1,local,class=CODE,merge=1,delta=2
    15                           	psect	text2,local,class=CODE,merge=1,delta=2,group=2
    16                           	psect	text3,local,class=CODE,merge=1,delta=2,group=1
    17                           	psect	text4,local,class=CODE,merge=1,delta=2,group=1
    18                           	psect	text5,local,class=CODE,merge=1,delta=2,group=1
    19                           	psect	text6,local,class=CODE,merge=1,delta=2
    20                           	psect	text7,local,class=CODE,merge=1,delta=2
    21                           	psect	text8,local,class=CODE,merge=1,delta=2
    22                           	psect	text9,local,class=CODE,merge=1,delta=2,group=1
    23                           	psect	text10,local,class=CODE,merge=1,delta=2,group=1
    24                           	psect	text11,local,class=CODE,merge=1,delta=2,group=1
    25                           	psect	text12,local,class=CODE,merge=1,delta=2,group=1
    26                           	psect	text13,local,class=CODE,merge=1,delta=2,group=1
    27                           	psect	text14,local,class=CODE,merge=1,delta=2,group=1
    28                           	psect	text15,local,class=CODE,merge=1,delta=2
    29                           	psect	text16,local,class=CODE,merge=1,delta=2
    30                           	psect	text17,local,class=CODE,merge=1,delta=2
    31                           	psect	text18,local,class=CODE,merge=1,delta=2
    32                           	psect	text19,local,class=CODE,merge=1,delta=2,group=1
    33                           	psect	text20,local,class=CODE,merge=1,delta=2
    34                           	psect	text21,local,class=CODE,merge=1,delta=2
    35                           	psect	text22,local,class=CODE,merge=1,delta=2
    36                           	psect	text23,local,class=CODE,merge=1,delta=2
    37                           	psect	text24,local,class=CODE,merge=1,delta=2
    38                           	psect	text25,local,class=CODE,merge=1,delta=2
    39                           	psect	text26,local,class=CODE,merge=1,delta=2
    40                           	psect	text27,local,class=CODE,merge=1,delta=2
    41                           	psect	text28,local,class=CODE,merge=1,delta=2
    42                           	psect	text29,local,class=CODE,merge=1,delta=2
    43                           	psect	text30,local,class=CODE,merge=1,delta=2
    44                           	psect	text31,local,class=CODE,merge=1,delta=2
    45                           	psect	text32,local,class=CODE,merge=1,delta=2
    46                           	psect	text33,local,class=CODE,merge=1,inline,delta=2
    47                           	psect	functab,global,class=ENTRY,delta=2
    48                           	dabs	1,0x7E,2
    49  0000                     
    50                           ; Version 2.10
    51                           ; Generated 31/07/2019 GMT
    52                           ; 
    53                           ; Copyright © 2019, Microchip Technology Inc. and its subsidiaries ("Microchip")
    54                           ; All rights reserved.
    55                           ; 
    56                           ; This software is developed by Microchip Technology Inc. and its subsidiaries ("Microch
      +                          ip").
    57                           ; 
    58                           ; Redistribution and use in source and binary forms, with or without modification, are
    59                           ; permitted provided that the following conditions are met:
    60                           ; 
    61                           ;     1. Redistributions of source code must retain the above copyright notice, this lis
      +                          t of
    62                           ;        conditions and the following disclaimer.
    63                           ; 
    64                           ;     2. Redistributions in binary form must reproduce the above copyright notice, this 
      +                          list
    65                           ;        of conditions and the following disclaimer in the documentation and/or other
    66                           ;        materials provided with the distribution.
    67                           ; 
    68                           ;     3. Microchip's name may not be used to endorse or promote products derived from th
      +                          is
    69                           ;        software without specific prior written permission.
    70                           ; 
    71                           ; THIS SOFTWARE IS PROVIDED BY MICROCHIP "AS IS" AND ANY EXPRESS OR IMPLIED WARRANTIES,
    72                           ; INCLUDING, BUT NOT LIMITED TO, THE IMPLIED WARRANTIES OF MERCHANTABILITY AND FITNESS F
      +                          OR
    73                           ; PURPOSE ARE DISCLAIMED.  IN NO EVENT SHALL MICROCHIP BE LIABLE FOR ANY DIRECT, INDIREC
      +                          T,
    74                           ; INCIDENTAL, SPECIAL, EXEMPLARY, OR CONSEQUENTIAL DAMAGES (INCLUDING BUT NOT LIMITED TO
    75                           ; PROCUREMENT OF SUBSTITUTE GOODS OR SERVICES; LOSS OF USE, DATA OR PROFITS; OR BUSINESS
    76                           ; INTERRUPTION) HOWSOEVER CAUSED AND ON ANY THEORY OF LIABILITY, WHETHER IN CONTRACT, ST
      +                          RICT
    77                           ; LIABILITY, OR TORT (INCLUDING NEGLIGENCE OR OTHERWISE) ARISING IN ANY WAY OUT OF THE U
      +                          SE OF
    78                           ; THIS SOFTWARE, EVEN IF ADVISED OF THE POSSIBILITY OF SUCH DAMAGE.
    79                           ; 
    80                           ; 
    81                           ; Code-generator required, PIC16F877A Definitions
    82                           ; 
    83                           ; SFR Addresses
    84  0000                     	;# 
    85  0001                     	;# 
    86  0002                     	;# 
    87  0003                     	;# 
    88  0004                     	;# 
    89  0005                     	;# 
    90  0006                     	;# 
    91  0007                     	;# 
    92  0008                     	;# 
    93  0009                     	;# 
    94  000A                     	;# 
    95  000B                     	;# 
    96  000C                     	;# 
    97  000D                     	;# 
    98  000E                     	;# 
    99  000E                     	;# 
   100  000F                     	;# 
   101  0010                     	;# 
   102  0011                     	;# 
   103  0012                     	;# 
   104  0013                     	;# 
   105  0014                     	;# 
   106  0015                     	;# 
   107  0015                     	;# 
   108  0016                     	;# 
   109  0017                     	;# 
   110  0018                     	;# 
   111  0019                     	;# 
   112  001A                     	;# 
   113  001B                     	;# 
   114  001B                     	;# 
   115  001C                     	;# 
   116  001D                     	;# 
   117  001E                     	;# 
   118  001F                     	;# 
   119  0081                     	;# 
   120  0085                     	;# 
   121  0086                     	;# 
   122  0087                     	;# 
   123  0088                     	;# 
   124  0089                     	;# 
   125  008C                     	;# 
   126  008D                     	;# 
   127  008E                     	;# 
   128  0091                     	;# 
   129  0092                     	;# 
   130  0093                     	;# 
   131  0094                     	;# 
   132  0098                     	;# 
   133  0099                     	;# 
   134  009C                     	;# 
   135  009D                     	;# 
   136  009E                     	;# 
   137  009F                     	;# 
   138  010C                     	;# 
   139  010D                     	;# 
   140  010E                     	;# 
   141  010F                     	;# 
   142  018C                     	;# 
   143  018D                     	;# 
   144  0000                     	;# 
   145  0001                     	;# 
   146  0002                     	;# 
   147  0003                     	;# 
   148  0004                     	;# 
   149  0005                     	;# 
   150  0006                     	;# 
   151  0007                     	;# 
   152  0008                     	;# 
   153  0009                     	;# 
   154  000A                     	;# 
   155  000B                     	;# 
   156  000C                     	;# 
   157  000D                     	;# 
   158  000E                     	;# 
   159  000E                     	;# 
   160  000F                     	;# 
   161  0010                     	;# 
   162  0011                     	;# 
   163  0012                     	;# 
   164  0013                     	;# 
   165  0014                     	;# 
   166  0015                     	;# 
   167  0015                     	;# 
   168  0016                     	;# 
   169  0017                     	;# 
   170  0018                     	;# 
   171  0019                     	;# 
   172  001A                     	;# 
   173  001B                     	;# 
   174  001B                     	;# 
   175  001C                     	;# 
   176  001D                     	;# 
   177  001E                     	;# 
   178  001F                     	;# 
   179  0081                     	;# 
   180  0085                     	;# 
   181  0086                     	;# 
   182  0087                     	;# 
   183  0088                     	;# 
   184  0089                     	;# 
   185  008C                     	;# 
   186  008D                     	;# 
   187  008E                     	;# 
   188  0091                     	;# 
   189  0092                     	;# 
   190  0093                     	;# 
   191  0094                     	;# 
   192  0098                     	;# 
   193  0099                     	;# 
   194  009C                     	;# 
   195  009D                     	;# 
   196  009E                     	;# 
   197  009F                     	;# 
   198  010C                     	;# 
   199  010D                     	;# 
   200  010E                     	;# 
   201  010F                     	;# 
   202  018C                     	;# 
   203  018D                     	;# 
   204  0000                     	;# 
   205  0001                     	;# 
   206  0002                     	;# 
   207  0003                     	;# 
   208  0004                     	;# 
   209  0005                     	;# 
   210  0006                     	;# 
   211  0007                     	;# 
   212  0008                     	;# 
   213  0009                     	;# 
   214  000A                     	;# 
   215  000B                     	;# 
   216  000C                     	;# 
   217  000D                     	;# 
   218  000E                     	;# 
   219  000E                     	;# 
   220  000F                     	;# 
   221  0010                     	;# 
   222  0011                     	;# 
   223  0012                     	;# 
   224  0013                     	;# 
   225  0014                     	;# 
   226  0015                     	;# 
   227  0015                     	;# 
   228  0016                     	;# 
   229  0017                     	;# 
   230  0018                     	;# 
   231  0019                     	;# 
   232  001A                     	;# 
   233  001B                     	;# 
   234  001B                     	;# 
   235  001C                     	;# 
   236  001D                     	;# 
   237  001E                     	;# 
   238  001F                     	;# 
   239  0081                     	;# 
   240  0085                     	;# 
   241  0086                     	;# 
   242  0087                     	;# 
   243  0088                     	;# 
   244  0089                     	;# 
   245  008C                     	;# 
   246  008D                     	;# 
   247  008E                     	;# 
   248  0091                     	;# 
   249  0092                     	;# 
   250  0093                     	;# 
   251  0094                     	;# 
   252  0098                     	;# 
   253  0099                     	;# 
   254  009C                     	;# 
   255  009D                     	;# 
   256  009E                     	;# 
   257  009F                     	;# 
   258  010C                     	;# 
   259  010D                     	;# 
   260  010E                     	;# 
   261  010F                     	;# 
   262  018C                     	;# 
   263  018D                     	;# 
   264  0000                     	;# 
   265  0001                     	;# 
   266  0002                     	;# 
   267  0003                     	;# 
   268  0004                     	;# 
   269  0005                     	;# 
   270  0006                     	;# 
   271  0007                     	;# 
   272  0008                     	;# 
   273  0009                     	;# 
   274  000A                     	;# 
   275  000B                     	;# 
   276  000C                     	;# 
   277  000D                     	;# 
   278  000E                     	;# 
   279  000E                     	;# 
   280  000F                     	;# 
   281  0010                     	;# 
   282  0011                     	;# 
   283  0012                     	;# 
   284  0013                     	;# 
   285  0014                     	;# 
   286  0015                     	;# 
   287  0015                     	;# 
   288  0016                     	;# 
   289  0017                     	;# 
   290  0018                     	;# 
   291  0019                     	;# 
   292  001A                     	;# 
   293  001B                     	;# 
   294  001B                     	;# 
   295  001C                     	;# 
   296  001D                     	;# 
   297  001E                     	;# 
   298  001F                     	;# 
   299  0081                     	;# 
   300  0085                     	;# 
   301  0086                     	;# 
   302  0087                     	;# 
   303  0088                     	;# 
   304  0089                     	;# 
   305  008C                     	;# 
   306  008D                     	;# 
   307  008E                     	;# 
   308  0091                     	;# 
   309  0092                     	;# 
   310  0093                     	;# 
   311  0094                     	;# 
   312  0098                     	;# 
   313  0099                     	;# 
   314  009C                     	;# 
   315  009D                     	;# 
   316  009E                     	;# 
   317  009F                     	;# 
   318  010C                     	;# 
   319  010D                     	;# 
   320  010E                     	;# 
   321  010F                     	;# 
   322  018C                     	;# 
   323  018D                     	;# 
   324  0000                     	;# 
   325  0001                     	;# 
   326  0002                     	;# 
   327  0003                     	;# 
   328  0004                     	;# 
   329  0005                     	;# 
   330  0006                     	;# 
   331  0007                     	;# 
   332  0008                     	;# 
   333  0009                     	;# 
   334  000A                     	;# 
   335  000B                     	;# 
   336  000C                     	;# 
   337  000D                     	;# 
   338  000E                     	;# 
   339  000E                     	;# 
   340  000F                     	;# 
   341  0010                     	;# 
   342  0011                     	;# 
   343  0012                     	;# 
   344  0013                     	;# 
   345  0014                     	;# 
   346  0015                     	;# 
   347  0015                     	;# 
   348  0016                     	;# 
   349  0017                     	;# 
   350  0018                     	;# 
   351  0019                     	;# 
   352  001A                     	;# 
   353  001B                     	;# 
   354  001B                     	;# 
   355  001C                     	;# 
   356  001D                     	;# 
   357  001E                     	;# 
   358  001F                     	;# 
   359  0081                     	;# 
   360  0085                     	;# 
   361  0086                     	;# 
   362  0087                     	;# 
   363  0088                     	;# 
   364  0089                     	;# 
   365  008C                     	;# 
   366  008D                     	;# 
   367  008E                     	;# 
   368  0091                     	;# 
   369  0092                     	;# 
   370  0093                     	;# 
   371  0094                     	;# 
   372  0098                     	;# 
   373  0099                     	;# 
   374  009C                     	;# 
   375  009D                     	;# 
   376  009E                     	;# 
   377  009F                     	;# 
   378  010C                     	;# 
   379  010D                     	;# 
   380  010E                     	;# 
   381  010F                     	;# 
   382  018C                     	;# 
   383  018D                     	;# 
   384  0000                     	;# 
   385  0001                     	;# 
   386  0002                     	;# 
   387  0003                     	;# 
   388  0004                     	;# 
   389  0005                     	;# 
   390  0006                     	;# 
   391  0007                     	;# 
   392  0008                     	;# 
   393  0009                     	;# 
   394  000A                     	;# 
   395  000B                     	;# 
   396  000C                     	;# 
   397  000D                     	;# 
   398  000E                     	;# 
   399  000E                     	;# 
   400  000F                     	;# 
   401  0010                     	;# 
   402  0011                     	;# 
   403  0012                     	;# 
   404  0013                     	;# 
   405  0014                     	;# 
   406  0015                     	;# 
   407  0015                     	;# 
   408  0016                     	;# 
   409  0017                     	;# 
   410  0018                     	;# 
   411  0019                     	;# 
   412  001A                     	;# 
   413  001B                     	;# 
   414  001B                     	;# 
   415  001C                     	;# 
   416  001D                     	;# 
   417  001E                     	;# 
   418  001F                     	;# 
   419  0081                     	;# 
   420  0085                     	;# 
   421  0086                     	;# 
   422  0087                     	;# 
   423  0088                     	;# 
   424  0089                     	;# 
   425  008C                     	;# 
   426  008D                     	;# 
   427  008E                     	;# 
   428  0091                     	;# 
   429  0092                     	;# 
   430  0093                     	;# 
   431  0094                     	;# 
   432  0098                     	;# 
   433  0099                     	;# 
   434  009C                     	;# 
   435  009D                     	;# 
   436  009E                     	;# 
   437  009F                     	;# 
   438  010C                     	;# 
   439  010D                     	;# 
   440  010E                     	;# 
   441  010F                     	;# 
   442  018C                     	;# 
   443  018D                     	;# 
   444  0000                     	;# 
   445  0001                     	;# 
   446  0002                     	;# 
   447  0003                     	;# 
   448  0004                     	;# 
   449  0005                     	;# 
   450  0006                     	;# 
   451  0007                     	;# 
   452  0008                     	;# 
   453  0009                     	;# 
   454  000A                     	;# 
   455  000B                     	;# 
   456  000C                     	;# 
   457  000D                     	;# 
   458  000E                     	;# 
   459  000E                     	;# 
   460  000F                     	;# 
   461  0010                     	;# 
   462  0011                     	;# 
   463  0012                     	;# 
   464  0013                     	;# 
   465  0014                     	;# 
   466  0015                     	;# 
   467  0015                     	;# 
   468  0016                     	;# 
   469  0017                     	;# 
   470  0018                     	;# 
   471  0019                     	;# 
   472  001A                     	;# 
   473  001B                     	;# 
   474  001B                     	;# 
   475  001C                     	;# 
   476  001D                     	;# 
   477  001E                     	;# 
   478  001F                     	;# 
   479  0081                     	;# 
   480  0085                     	;# 
   481  0086                     	;# 
   482  0087                     	;# 
   483  0088                     	;# 
   484  0089                     	;# 
   485  008C                     	;# 
   486  008D                     	;# 
   487  008E                     	;# 
   488  0091                     	;# 
   489  0092                     	;# 
   490  0093                     	;# 
   491  0094                     	;# 
   492  0098                     	;# 
   493  0099                     	;# 
   494  009C                     	;# 
   495  009D                     	;# 
   496  009E                     	;# 
   497  009F                     	;# 
   498  010C                     	;# 
   499  010D                     	;# 
   500  010E                     	;# 
   501  010F                     	;# 
   502  018C                     	;# 
   503  018D                     	;# 
   504                           
   505                           	psect	idataBANK1
   506  0800                     __pidataBANK1:	
   507                           
   508                           ;initializer for _p_LCD_send_commad
   509  0800  3407               	retlw	low (fp__LCD_send_commad-fpbase)
   510                           
   511                           ;initializer for _p_LCD_data_sender
   512  0801  3404               	retlw	low (fp__LCD_data_sender-fpbase)
   513                           
   514                           ;initializer for _p_I2C_IO_Expander_Writer
   515  0802  3401               	retlw	low (fp__I2C_IO_Expander_Writer-fpbase)
   516                           
   517                           ;initializer for _BackLight_State
   518  0803  3408               	retlw	8
   519                           
   520                           	psect	strings
   521  1000                     __pstrings:	
   522  1000                     stringtab:	
   523  1000                     __stringtab:	
   524                           
   525                           ;	String table - string pointers are 1 byte each
   526  1000  1BFF               	btfsc	btemp+1,7
   527  1001  280A               	ljmp	stringcode
   528  1002  1383               	bcf	3,7
   529  1003  187F               	btfsc	btemp+1,0
   530  1004  1783               	bsf	3,7
   531  1005  0800               	movf	0,w
   532  1006  0A84               	incf	4,f
   533  1007  1903               	skipnz
   534  1008  0AFF               	incf	btemp+1,f
   535  1009  0008               	return
   536  100A                     stringcode:	
   537  100A                     stringdir:	
   538  100A  3010               	movlw	high stringdir
   539  100B  008A               	movwf	10
   540  100C  0804               	movf	4,w
   541  100D  0A84               	incf	4,f
   542  100E  0782               	addwf	2,f
   543  100F                     __stringbase:	
   544  100F  3400               	retlw	0
   545  1010                     __end_of__stringtab:	
   546  1010                     _dpowers:	
   547  1010  3401               	retlw	1
   548  1011  3400               	retlw	0
   549  1012  340A               	retlw	10
   550  1013  3400               	retlw	0
   551  1014  3464               	retlw	100
   552  1015  3400               	retlw	0
   553  1016  34E8               	retlw	232
   554  1017  3403               	retlw	3
   555  1018  3410               	retlw	16
   556  1019  3427               	retlw	39
   557  101A                     __end_of_dpowers:	
   558  101A                     _Lcd_RW_State:	
   559  101A  3400               	retlw	0
   560  101B                     __end_of_Lcd_RW_State:	
   561  0006                     _PORTB	set	6
   562  000B                     _INTCONbits	set	11
   563  000C                     _PIR1bits	set	12
   564  0014                     _SSPCONbits	set	20
   565  0013                     _SSPBUF	set	19
   566  0014                     _SSPCON	set	20
   567  0086                     _TRISB	set	134
   568  008C                     _PIE1bits	set	140
   569  0091                     _SSPCON2bits	set	145
   570  0094                     _SSPSTATbits	set	148
   571  0087                     _TRISCbits	set	135
   572  0093                     _SSPADD	set	147
   573  0091                     _SSPCON2	set	145
   574  0094                     _SSPSTAT	set	148
   575  101B                     STR_2:	
   576  101B  3449               	retlw	73	;'I'
   577  101C  3432               	retlw	50	;'2'
   578  101D  3443               	retlw	67	;'C'
   579  101E  3420               	retlw	32	;' '
   580  101F  3453               	retlw	83	;'S'
   581  1020  3448               	retlw	72	;'H'
   582  1021  3454               	retlw	84	;'T'
   583  1022  3432               	retlw	50	;'2'
   584  1023  3435               	retlw	53	;'5'
   585  1024  3420               	retlw	32	;' '
   586  1025  3452               	retlw	82	;'R'
   587  1026  3445               	retlw	69	;'E'
   588  1027  3441               	retlw	65	;'A'
   589  1028  3444               	retlw	68	;'D'
   590  1029  3449               	retlw	73	;'I'
   591  102A  344E               	retlw	78	;'N'
   592  102B  3447               	retlw	71	;'G'
   593  102C  342E               	retlw	46	;'.'
   594  102D  342E               	retlw	46	;'.'
   595  102E  3400               	retlw	0
   596  102F                     STR_1:	
   597  102F  344C               	retlw	76	;'L'
   598  1030  3443               	retlw	67	;'C'
   599  1031  3444               	retlw	68	;'D'
   600  1032  3431               	retlw	49	;'1'
   601  1033  3420               	retlw	32	;' '
   602  1034  3449               	retlw	73	;'I'
   603  1035  344E               	retlw	78	;'N'
   604  1036  3449               	retlw	73	;'I'
   605  1037  3454               	retlw	84	;'T'
   606  1038  3449               	retlw	73	;'I'
   607  1039  3441               	retlw	65	;'A'
   608  103A  344C               	retlw	76	;'L'
   609  103B  3449               	retlw	73	;'I'
   610  103C  345A               	retlw	90	;'Z'
   611  103D  3445               	retlw	69	;'E'
   612  103E  3444               	retlw	68	;'D'
   613  103F  3400               	retlw	0
   614  1040                     STR_4:	
   615  1040  3452               	retlw	82	;'R'
   616  1041  3448               	retlw	72	;'H'
   617  1042  343A               	retlw	58	;':'
   618  1043  3425               	retlw	37	;'%'
   619  1044  3433               	retlw	51	;'3'
   620  1045  3464               	retlw	100	;'d'
   621  1046  3425               	retlw	37	;'%'
   622  1047  3425               	retlw	37	;'%'
   623  1048  3400               	retlw	0
   624  1049                     STR_3:	
   625  1049  3454               	retlw	84	;'T'
   626  104A  343A               	retlw	58	;':'
   627  104B  3425               	retlw	37	;'%'
   628  104C  3433               	retlw	51	;'3'
   629  104D  3464               	retlw	100	;'d'
   630  104E  3425               	retlw	37	;'%'
   631  104F  3463               	retlw	99	;'c'
   632  1050  3443               	retlw	67	;'C'
   633  1051  3400               	retlw	0
   634                           
   635                           ; #config settings
   636  0000                     
   637                           	psect	cinit
   638  07D9                     start_initialization:	
   639  07D9                     __initialization:	
   640                           
   641                           ; Initialize objects allocated to BANK1
   642  07D9  1683               	bsf	3,5	;RP0=1, select bank1
   643  07DA  1303               	bcf	3,6	;RP1=0, select bank1
   644  07DB  120A  158A  2000  120A  118A  	fcall	__pidataBANK1	;fetch initializer
   645  07E0  00E0               	movwf	__pdataBANK1& (0+127)
   646  07E1  120A  158A  2001  120A  118A  	fcall	__pidataBANK1+1	;fetch initializer
   647  07E6  00E1               	movwf	(__pdataBANK1+1)& (0+127)
   648  07E7  120A  158A  2002  120A  118A  	fcall	__pidataBANK1+2	;fetch initializer
   649  07EC  00E2               	movwf	(__pdataBANK1+2)& (0+127)
   650  07ED  120A  158A  2003  120A  118A  	fcall	__pidataBANK1+3	;fetch initializer
   651  07F2  00E3               	movwf	(__pdataBANK1+3)& (0+127)
   652                           
   653                           ; Clear objects allocated to BANK1
   654  07F3  1383               	bcf	3,7	;select IRP bank0
   655  07F4  30A0               	movlw	low __pbssBANK1
   656  07F5  0084               	movwf	4
   657  07F6  30CD               	movlw	low (__pbssBANK1+45)
   658  07F7  160A  118A  2495  120A  118A  	fcall	clear_ram0
   659  07FC                     end_of_initialization:	
   660                           ;End of C runtime variable initialization code
   661                           
   662  07FC                     __end_of__initialization:	
   663  07FC  0183               	clrf	3
   664  07FD  120A  158A  2C9E   	ljmp	_main	;jump to C main() function
   665                           
   666                           	psect	bssBANK1
   667  00A0                     __pbssBANK1:	
   668  00A0                     _RH:	
   669  00A0                     	ds	1
   670  00A1                     _T:	
   671  00A1                     	ds	1
   672  00A2                     _Lcd_RS_State:	
   673  00A2                     	ds	1
   674  00A3                     _RH_str:	
   675  00A3                     	ds	20
   676  00B7                     _T_str:	
   677  00B7                     	ds	20
   678  00CB                     _LCD1:	
   679  00CB                     	ds	2
   680                           
   681                           	psect	dataBANK1
   682  00E0                     __pdataBANK1:	
   683  00E0                     _p_LCD_send_commad:	
   684  00E0                     	ds	1
   685  00E1                     _p_LCD_data_sender:	
   686  00E1                     	ds	1
   687  00E2                     _p_I2C_IO_Expander_Writer:	
   688  00E2                     	ds	1
   689  00E3                     _BackLight_State:	
   690  00E3                     	ds	1
   691                           
   692                           	psect	clrtext
   693  1495                     clear_ram0:	
   694                           ;	Called with FSR containing the base address, and
   695                           ;	W with the last address+1
   696                           
   697  1495  0064               	clrwdt	;clear the watchdog before getting into this loop
   698  1496                     clrloop0:	
   699  1496  0180               	clrf	0	;clear RAM location pointed to by FSR
   700  1497  0A84               	incf	4,f	;increment pointer
   701  1498  0604               	xorwf	4,w	;XOR with final address
   702  1499  1903               	btfsc	3,2	;have we reached the end yet?
   703  149A  3400               	retlw	0	;all done for this memory range, return
   704  149B  0604               	xorwf	4,w	;XOR again to restore value
   705  149C  2C96               	goto	clrloop0	;do the next byte
   706                           
   707                           	psect	cstackBANK1
   708  00CD                     __pcstackBANK1:	
   709  00CD                     ??___fltol:	
   710                           
   711                           ; 1 bytes @ 0x0
   712  00CD                     	ds	5
   713  00D2                     ??_I2C_SHT25_Temperature_Read:	
   714  00D2                     ??_I2C_SHT25_Relative_Humidity_Read:	
   715                           ; 1 bytes @ 0x5
   716                           
   717                           
   718                           ; 1 bytes @ 0x5
   719  00D2                     	ds	2
   720  00D4                     _I2C_SHT25_Relative_Humidity_Read$1252:	
   721                           
   722                           ; 4 bytes @ 0x7
   723  00D4                     	ds	1
   724  00D5                     _I2C_SHT25_Temperature_Read$1251:	
   725                           
   726                           ; 4 bytes @ 0x8
   727  00D5                     	ds	3
   728  00D8                     I2C_SHT25_Relative_Humidity_Read@Measurement_Buffer:	
   729                           
   730                           ; 4 bytes @ 0xB
   731  00D8                     	ds	1
   732  00D9                     I2C_SHT25_Temperature_Read@Measurement_Buffer:	
   733                           
   734                           ; 4 bytes @ 0xC
   735  00D9                     	ds	4
   736  00DD                     ??_main:	
   737                           
   738                           ; 1 bytes @ 0x10
   739  00DD                     	ds	3
   740                           
   741                           	psect	cstackCOMMON
   742  0070                     __pcstackCOMMON:	
   743  0070                     ?_isdigit:	
   744  0070                     ??_isdigit:	
   745                           ; 1 bit 
   746                           
   747  0070                     ?_I2C_Master_Check_Idle:	
   748                           ; 1 bytes @ 0x0
   749                           
   750  0070                     ??_I2C_Master_Check_Idle:	
   751                           ; 1 bytes @ 0x0
   752                           
   753  0070                     ?_I2C_Master_Start:	
   754                           ; 1 bytes @ 0x0
   755                           
   756  0070                     ??_I2C_Master_Start:	
   757                           ; 1 bytes @ 0x0
   758                           
   759  0070                     ?_I2C_Master_Stop:	
   760                           ; 1 bytes @ 0x0
   761                           
   762  0070                     ??_I2C_Master_Stop:	
   763                           ; 1 bytes @ 0x0
   764                           
   765  0070                     ?_I2C_Master_Send_ACK:	
   766                           ; 1 bytes @ 0x0
   767                           
   768  0070                     ??_I2C_Master_Send_ACK:	
   769                           ; 1 bytes @ 0x0
   770                           
   771  0070                     ?_I2C_Master_Send_NACK:	
   772                           ; 1 bytes @ 0x0
   773                           
   774  0070                     ??_I2C_Master_Send_NACK:	
   775                           ; 1 bytes @ 0x0
   776                           
   777  0070                     ?_I2C_Master_Write:	
   778                           ; 1 bytes @ 0x0
   779                           
   780  0070                     ??_I2C_Master_Write:	
   781                           ; 1 bytes @ 0x0
   782                           
   783  0070                     ?_I2C_Master_Read:	
   784                           ; 1 bytes @ 0x0
   785                           
   786  0070                     ??_I2C_Master_Read:	
   787                           ; 1 bytes @ 0x0
   788                           
   789  0070                     ?_Initial_Configurations:	
   790                           ; 1 bytes @ 0x0
   791                           
   792  0070                     ??_Initial_Configurations:	
   793                           ; 1 bytes @ 0x0
   794                           
   795  0070                     ?_main:	
   796                           ; 1 bytes @ 0x0
   797                           
   798  0070                     ?__Umul8_16:	
   799                           ; 1 bytes @ 0x0
   800                           
   801  0070                     ?___wmul:	
   802                           ; 2 bytes @ 0x0
   803                           
   804  0070                     ?___lwdiv:	
   805                           ; 2 bytes @ 0x0
   806                           
   807  0070                     ?___lldiv:	
   808                           ; 2 bytes @ 0x0
   809                           
   810  0070                     ?___xxtofl:	
   811                           ; 4 bytes @ 0x0
   812                           
   813  0070                     _isdigit$1033:	
   814                           ; 4 bytes @ 0x0
   815                           
   816  0070                     __Umul8_16@multiplicand:	
   817                           ; 1 bytes @ 0x0
   818                           
   819  0070                     ___wmul@multiplier:	
   820                           ; 1 bytes @ 0x0
   821                           
   822  0070                     ___lwdiv@divisor:	
   823                           ; 2 bytes @ 0x0
   824                           
   825  0070                     ___lldiv@divisor:	
   826                           ; 2 bytes @ 0x0
   827                           
   828  0070                     ___xxtofl@val:	
   829                           ; 4 bytes @ 0x0
   830                           
   831                           
   832                           ; 4 bytes @ 0x0
   833  0070                     	ds	1
   834  0071                     I2C_Master_Write@Master_Tx_Data:	
   835  0071                     isdigit@c:	
   836                           ; 1 bytes @ 0x1
   837                           
   838                           
   839                           ; 1 bytes @ 0x1
   840  0071                     	ds	1
   841  0072                     ?_I2C_IO_Expander_Writer:	
   842  0072                     ??__Umul8_16:	
   843                           ; 1 bytes @ 0x2
   844                           
   845  0072                     I2C_Master_Read@Recieved_Data:	
   846                           ; 1 bytes @ 0x2
   847                           
   848  0072                     I2C_IO_Expander_Writer@I2C_Address:	
   849                           ; 1 bytes @ 0x2
   850                           
   851  0072                     ___wmul@multiplicand:	
   852                           ; 1 bytes @ 0x2
   853                           
   854  0072                     ___lwdiv@dividend:	
   855                           ; 2 bytes @ 0x2
   856                           
   857                           
   858                           ; 2 bytes @ 0x2
   859  0072                     	ds	1
   860  0073                     I2C_IO_Expander_Writer@I2C_Data:	
   861                           
   862                           ; 1 bytes @ 0x3
   863  0073                     	ds	1
   864  0074                     ??_I2C_IO_Expander_Writer:	
   865  0074                     ?_LCD_data_sender:	
   866                           ; 1 bytes @ 0x4
   867                           
   868  0074                     ??___wmul:	
   869                           ; 1 bytes @ 0x4
   870                           
   871  0074                     ??___lwdiv:	
   872                           ; 1 bytes @ 0x4
   873                           
   874  0074                     ??___xxtofl:	
   875                           ; 1 bytes @ 0x4
   876                           
   877  0074                     LCD_data_sender@LCD_Obj:	
   878                           ; 1 bytes @ 0x4
   879                           
   880  0074                     ___wmul@product:	
   881                           ; 2 bytes @ 0x4
   882                           
   883  0074                     __Umul8_16@product:	
   884                           ; 2 bytes @ 0x4
   885                           
   886  0074                     ___lldiv@dividend:	
   887                           ; 2 bytes @ 0x4
   888                           
   889                           
   890                           ; 4 bytes @ 0x4
   891  0074                     	ds	1
   892  0075                     ___lwdiv@quotient:	
   893                           
   894                           ; 2 bytes @ 0x5
   895  0075                     	ds	1
   896  0076                     LCD_data_sender@data:	
   897  0076                     __Umul8_16@word_mpld:	
   898                           ; 1 bytes @ 0x6
   899                           
   900                           
   901                           ; 2 bytes @ 0x6
   902  0076                     	ds	1
   903  0077                     LCD_data_sender@callback_function:	
   904  0077                     ___lwdiv@counter:	
   905                           ; 1 bytes @ 0x7
   906                           
   907                           
   908                           ; 1 bytes @ 0x7
   909  0077                     	ds	1
   910  0078                     ??_LCD_data_sender:	
   911  0078                     ??___lldiv:	
   912                           ; 1 bytes @ 0x8
   913                           
   914  0078                     ?___lwmod:	
   915                           ; 1 bytes @ 0x8
   916                           
   917  0078                     ___xxtofl@sign:	
   918                           ; 2 bytes @ 0x8
   919                           
   920  0078                     __Umul8_16@multiplier:	
   921                           ; 1 bytes @ 0x8
   922                           
   923  0078                     ___lwmod@divisor:	
   924                           ; 1 bytes @ 0x8
   925                           
   926                           
   927                           ; 2 bytes @ 0x8
   928  0078                     	ds	1
   929  0079                     ___xxtofl@exp:	
   930  0079                     ___lldiv@quotient:	
   931                           ; 1 bytes @ 0x9
   932                           
   933                           
   934                           ; 4 bytes @ 0x9
   935  0079                     	ds	1
   936  007A                     ___lwmod@dividend:	
   937  007A                     ___xxtofl@arg:	
   938                           ; 2 bytes @ 0xA
   939                           
   940                           
   941                           ; 4 bytes @ 0xA
   942  007A                     	ds	1
   943  007B                     ?_LCD_send_commad:	
   944  007B                     ?_I2C_LCD_write_char:	
   945                           ; 1 bytes @ 0xB
   946                           
   947  007B                     LCD_send_commad@LCD_Obj:	
   948                           ; 1 bytes @ 0xB
   949                           
   950  007B                     I2C_LCD_write_char@LCD_Obj:	
   951                           ; 2 bytes @ 0xB
   952                           
   953                           
   954                           ; 2 bytes @ 0xB
   955  007B                     	ds	1
   956  007C                     ??___lwmod:	
   957                           
   958                           ; 1 bytes @ 0xC
   959  007C                     	ds	1
   960  007D                     LCD_send_commad@cmd:	
   961  007D                     I2C_LCD_write_char@chr:	
   962                           ; 1 bytes @ 0xD
   963                           
   964  007D                     ___lldiv@counter:	
   965                           ; 1 bytes @ 0xD
   966                           
   967  007D                     ___lwmod@counter:	
   968                           ; 1 bytes @ 0xD
   969                           
   970                           
   971                           ; 1 bytes @ 0xD
   972  007D                     	ds	1
   973                           
   974                           	psect	cstackBANK0
   975  0020                     __pcstackBANK0:	
   976  0020                     ??_LCD_send_commad:	
   977  0020                     ?_I2C_Master_Initialize:	
   978                           ; 1 bytes @ 0x0
   979                           
   980  0020                     ??_I2C_LCD_write_char:	
   981                           ; 1 bytes @ 0x0
   982                           
   983  0020                     ?_sprintf:	
   984                           ; 1 bytes @ 0x0
   985                           
   986  0020                     ?___flmul:	
   987                           ; 2 bytes @ 0x0
   988                           
   989  0020                     sprintf@f:	
   990                           ; 4 bytes @ 0x0
   991                           
   992  0020                     I2C_Master_Initialize@I2C_BaudRate:	
   993                           ; 1 bytes @ 0x0
   994                           
   995  0020                     ___flmul@b:	
   996                           ; 4 bytes @ 0x0
   997                           
   998                           
   999                           ; 4 bytes @ 0x0
  1000  0020                     	ds	2
  1001  0022                     ?_I2C_LCD_clear:	
  1002  0022                     ?_I2C_LCD_set_cursor:	
  1003                           ; 1 bytes @ 0x2
  1004                           
  1005  0022                     ?_I2C_LCD_write_string:	
  1006                           ; 1 bytes @ 0x2
  1007                           
  1008  0022                     ?_I2C_LCD_entry_mode:	
  1009                           ; 1 bytes @ 0x2
  1010                           
  1011  0022                     ?_I2C_LCD_display_on_off_control:	
  1012                           ; 1 bytes @ 0x2
  1013                           
  1014  0022                     I2C_LCD_write_string@LCD_Obj:	
  1015                           ; 1 bytes @ 0x2
  1016                           
  1017  0022                     I2C_LCD_clear@LCD_Obj:	
  1018                           ; 2 bytes @ 0x2
  1019                           
  1020  0022                     I2C_LCD_entry_mode@LCD_Obj:	
  1021                           ; 2 bytes @ 0x2
  1022                           
  1023  0022                     I2C_LCD_display_on_off_control@LCD_Obj:	
  1024                           ; 2 bytes @ 0x2
  1025                           
  1026  0022                     I2C_LCD_set_cursor@LCD_Obj:	
  1027                           ; 2 bytes @ 0x2
  1028                           
  1029                           
  1030                           ; 2 bytes @ 0x2
  1031  0022                     	ds	2
  1032  0024                     ??_I2C_LCD_clear:	
  1033  0024                     I2C_Master_Initialize@I2C_SMP_OnOff:	
  1034                           ; 1 bytes @ 0x4
  1035                           
  1036  0024                     I2C_LCD_entry_mode@I_or_D:	
  1037                           ; 1 bytes @ 0x4
  1038                           
  1039  0024                     I2C_LCD_display_on_off_control@D:	
  1040                           ; 1 bytes @ 0x4
  1041                           
  1042  0024                     I2C_LCD_set_cursor@row:	
  1043                           ; 1 bytes @ 0x4
  1044                           
  1045  0024                     I2C_LCD_write_string@str:	
  1046                           ; 1 bytes @ 0x4
  1047                           
  1048  0024                     ___flmul@a:	
  1049                           ; 2 bytes @ 0x4
  1050                           
  1051                           
  1052                           ; 4 bytes @ 0x4
  1053  0024                     	ds	1
  1054  0025                     ??_sprintf:	
  1055  0025                     I2C_Master_Initialize@I2C_CKE_OnOff:	
  1056                           ; 1 bytes @ 0x5
  1057                           
  1058  0025                     I2C_LCD_entry_mode@S:	
  1059                           ; 1 bytes @ 0x5
  1060                           
  1061  0025                     I2C_LCD_display_on_off_control@C:	
  1062                           ; 1 bytes @ 0x5
  1063                           
  1064  0025                     I2C_LCD_set_cursor@colomn:	
  1065                           ; 1 bytes @ 0x5
  1066                           
  1067                           
  1068                           ; 1 bytes @ 0x5
  1069  0025                     	ds	1
  1070  0026                     ??_I2C_LCD_set_cursor:	
  1071  0026                     ??_I2C_LCD_write_string:	
  1072                           ; 1 bytes @ 0x6
  1073                           
  1074  0026                     ??_I2C_Master_Initialize:	
  1075                           ; 1 bytes @ 0x6
  1076                           
  1077  0026                     ??_I2C_LCD_entry_mode:	
  1078                           ; 1 bytes @ 0x6
  1079                           
  1080  0026                     I2C_LCD_display_on_off_control@B:	
  1081                           ; 1 bytes @ 0x6
  1082                           
  1083                           
  1084                           ; 1 bytes @ 0x6
  1085  0026                     	ds	1
  1086  0027                     ??_I2C_LCD_display_on_off_control:	
  1087  0027                     I2C_LCD_write_string@i:	
  1088                           ; 1 bytes @ 0x7
  1089                           
  1090                           
  1091                           ; 1 bytes @ 0x7
  1092  0027                     	ds	1
  1093  0028                     ??___flmul:	
  1094  0028                     sprintf@cp:	
  1095                           ; 1 bytes @ 0x8
  1096                           
  1097                           
  1098                           ; 1 bytes @ 0x8
  1099  0028                     	ds	1
  1100  0029                     ?_I2C_LCD_init:	
  1101  0029                     I2C_LCD_init@I2C_LCD_Address:	
  1102                           ; 1 bytes @ 0x9
  1103                           
  1104  0029                     sprintf@prec:	
  1105                           ; 1 bytes @ 0x9
  1106                           
  1107                           
  1108                           ; 1 bytes @ 0x9
  1109  0029                     	ds	1
  1110  002A                     I2C_LCD_init@N:	
  1111  002A                     sprintf@flag:	
  1112                           ; 1 bytes @ 0xA
  1113                           
  1114                           
  1115                           ; 1 bytes @ 0xA
  1116  002A                     	ds	1
  1117  002B                     I2C_LCD_init@F:	
  1118  002B                     sprintf@ap:	
  1119                           ; 1 bytes @ 0xB
  1120                           
  1121                           
  1122                           ; 1 bytes @ 0xB
  1123  002B                     	ds	1
  1124  002C                     ??_I2C_LCD_init:	
  1125  002C                     sprintf@len:	
  1126                           ; 1 bytes @ 0xC
  1127                           
  1128                           
  1129                           ; 2 bytes @ 0xC
  1130  002C                     	ds	1
  1131  002D                     ___flmul@sign:	
  1132                           
  1133                           ; 1 bytes @ 0xD
  1134  002D                     	ds	1
  1135  002E                     I2C_LCD_init@LCD_Obj_Add:	
  1136  002E                     sprintf@val:	
  1137                           ; 1 bytes @ 0xE
  1138                           
  1139  002E                     ___flmul@grs:	
  1140                           ; 2 bytes @ 0xE
  1141                           
  1142                           
  1143                           ; 4 bytes @ 0xE
  1144  002E                     	ds	2
  1145  0030                     sprintf@width:	
  1146                           
  1147                           ; 2 bytes @ 0x10
  1148  0030                     	ds	2
  1149  0032                     sprintf@sp:	
  1150  0032                     ___flmul@aexp:	
  1151                           ; 1 bytes @ 0x12
  1152                           
  1153                           
  1154                           ; 1 bytes @ 0x12
  1155  0032                     	ds	1
  1156  0033                     sprintf@c:	
  1157  0033                     ___flmul@bexp:	
  1158                           ; 1 bytes @ 0x13
  1159                           
  1160                           
  1161                           ; 1 bytes @ 0x13
  1162  0033                     	ds	1
  1163  0034                     ___flmul@prod:	
  1164                           
  1165                           ; 4 bytes @ 0x14
  1166  0034                     	ds	4
  1167  0038                     ___flmul@temp:	
  1168                           
  1169                           ; 2 bytes @ 0x18
  1170  0038                     	ds	2
  1171  003A                     ?___fladd:	
  1172  003A                     ___fladd@b:	
  1173                           ; 4 bytes @ 0x1A
  1174                           
  1175                           
  1176                           ; 4 bytes @ 0x1A
  1177  003A                     	ds	4
  1178  003E                     ___fladd@a:	
  1179                           
  1180                           ; 4 bytes @ 0x1E
  1181  003E                     	ds	4
  1182  0042                     ??___fladd:	
  1183                           
  1184                           ; 1 bytes @ 0x22
  1185  0042                     	ds	8
  1186  004A                     ___fladd@signs:	
  1187                           
  1188                           ; 1 bytes @ 0x2A
  1189  004A                     	ds	1
  1190  004B                     ___fladd@aexp:	
  1191                           
  1192                           ; 1 bytes @ 0x2B
  1193  004B                     	ds	1
  1194  004C                     ___fladd@bexp:	
  1195                           
  1196                           ; 1 bytes @ 0x2C
  1197  004C                     	ds	1
  1198  004D                     ___fladd@grs:	
  1199                           
  1200                           ; 1 bytes @ 0x2D
  1201  004D                     	ds	1
  1202  004E                     ?___fldiv:	
  1203  004E                     ___fldiv@a:	
  1204                           ; 4 bytes @ 0x2E
  1205                           
  1206                           
  1207                           ; 4 bytes @ 0x2E
  1208  004E                     	ds	4
  1209  0052                     ___fldiv@b:	
  1210                           
  1211                           ; 4 bytes @ 0x32
  1212  0052                     	ds	4
  1213  0056                     ??___fldiv:	
  1214                           
  1215                           ; 1 bytes @ 0x36
  1216  0056                     	ds	5
  1217  005B                     ___fldiv@rem:	
  1218                           
  1219                           ; 4 bytes @ 0x3B
  1220  005B                     	ds	4
  1221  005F                     ___fldiv@sign:	
  1222                           
  1223                           ; 1 bytes @ 0x3F
  1224  005F                     	ds	1
  1225  0060                     ___fldiv@new_exp:	
  1226                           
  1227                           ; 2 bytes @ 0x40
  1228  0060                     	ds	2
  1229  0062                     ___fldiv@grs:	
  1230                           
  1231                           ; 4 bytes @ 0x42
  1232  0062                     	ds	4
  1233  0066                     ___fldiv@bexp:	
  1234                           
  1235                           ; 1 bytes @ 0x46
  1236  0066                     	ds	1
  1237  0067                     ___fldiv@aexp:	
  1238                           
  1239                           ; 1 bytes @ 0x47
  1240  0067                     	ds	1
  1241  0068                     ?___fltol:	
  1242  0068                     ___fltol@f1:	
  1243                           ; 4 bytes @ 0x48
  1244                           
  1245                           
  1246                           ; 4 bytes @ 0x48
  1247  0068                     	ds	4
  1248  006C                     ___fltol@sign1:	
  1249                           
  1250                           ; 1 bytes @ 0x4C
  1251  006C                     	ds	1
  1252  006D                     ___fltol@exp1:	
  1253                           
  1254                           ; 1 bytes @ 0x4D
  1255  006D                     	ds	1
  1256  006E                     ?_I2C_SHT25_Temperature_Read:	
  1257  006E                     ?_I2C_SHT25_Relative_Humidity_Read:	
  1258                           ; 2 bytes @ 0x4E
  1259                           
  1260                           
  1261                           ; 2 bytes @ 0x4E
  1262  006E                     	ds	2
  1263                           
  1264                           	psect	maintext
  1265  0C9E                     __pmaintext:	
  1266 ;;
  1267 ;;Main: autosize = 0, tempsize = 3, incstack = 0, save=0
  1268 ;;
  1269 ;; *************** function _main *****************
  1270 ;; Defined at:
  1271 ;;		line 22 in file "I2C_SHT25_RH_And_T_SENSOR_Firmware.c"
  1272 ;; Parameters:    Size  Location     Type
  1273 ;;		None
  1274 ;; Auto vars:     Size  Location     Type
  1275 ;;		None
  1276 ;; Return value:  Size  Location     Type
  1277 ;;                  1    wreg      void 
  1278 ;; Registers used:
  1279 ;;		wreg, fsr0l, fsr0h, status,2, status,0, btemp+1, pclath, cstack
  1280 ;; Tracked objects:
  1281 ;;		On entry : B00/0
  1282 ;;		On exit  : 0/0
  1283 ;;		Unchanged: 0/0
  1284 ;; Data sizes:     COMMON   BANK0   BANK1   BANK3   BANK2
  1285 ;;      Params:         0       0       0       0       0
  1286 ;;      Locals:         0       0       0       0       0
  1287 ;;      Temps:          0       0       3       0       0
  1288 ;;      Totals:         0       0       3       0       0
  1289 ;;Total ram usage:        3 bytes
  1290 ;; Hardware stack levels required when called:    7
  1291 ;; This function calls:
  1292 ;;		_I2C_LCD_clear
  1293 ;;		_I2C_LCD_init
  1294 ;;		_I2C_LCD_set_cursor
  1295 ;;		_I2C_LCD_write_string
  1296 ;;		_I2C_Master_Initialize
  1297 ;;		_I2C_SHT25_Relative_Humidity_Read
  1298 ;;		_I2C_SHT25_Temperature_Read
  1299 ;;		_Initial_Configurations
  1300 ;;		_sprintf
  1301 ;; This function is called by:
  1302 ;;		Startup code after reset
  1303 ;; This function uses a non-reentrant model
  1304 ;;
  1305                           
  1306                           
  1307                           ;psect for function _main
  1308  0C9E                     _main:	
  1309  0C9E                     l3030:	
  1310                           ;incstack = 0
  1311                           ; Regs used in _main: [wreg-fsr0h+status,2+status,0+btemp+1+pclath+cstack]
  1312                           
  1313                           
  1314                           ;I2C_SHT25_RH_And_T_SENSOR_Firmware.c: 23:     Initial_Configurations();
  1315  0C9E  160A  118A  249D  120A  158A  	fcall	_Initial_Configurations
  1316                           
  1317                           ;I2C_SHT25_RH_And_T_SENSOR_Firmware.c: 24:     I2C_Master_Initialize(((I2C_BaudRate_t)10
      +                          0000), ((Slew_Rate_t)1), ((SMBus_t)0));
  1318  0CA3  3000               	movlw	0
  1319  0CA4  1283               	bcf	3,5	;RP0=0, select bank0
  1320  0CA5  1303               	bcf	3,6	;RP1=0, select bank0
  1321  0CA6  00A3               	movwf	I2C_Master_Initialize@I2C_BaudRate+3
  1322  0CA7  3001               	movlw	1
  1323  0CA8  00A2               	movwf	I2C_Master_Initialize@I2C_BaudRate+2
  1324  0CA9  3086               	movlw	134
  1325  0CAA  00A1               	movwf	I2C_Master_Initialize@I2C_BaudRate+1
  1326  0CAB  30A0               	movlw	160
  1327  0CAC  00A0               	movwf	I2C_Master_Initialize@I2C_BaudRate
  1328  0CAD  01A4               	clrf	I2C_Master_Initialize@I2C_SMP_OnOff
  1329  0CAE  0AA4               	incf	I2C_Master_Initialize@I2C_SMP_OnOff,f
  1330  0CAF  01A5               	clrf	I2C_Master_Initialize@I2C_CKE_OnOff
  1331  0CB0  160A  118A  26A6  120A  158A  	fcall	_I2C_Master_Initialize
  1332  0CB5                     l3032:	
  1333                           
  1334                           ;I2C_SHT25_RH_And_T_SENSOR_Firmware.c: 25:     I2C_LCD_init(&LCD1, 0x40, 0x08, 0x00);
  1335  0CB5  3040               	movlw	64
  1336  0CB6  1683               	bsf	3,5	;RP0=1, select bank1
  1337  0CB7  1303               	bcf	3,6	;RP1=0, select bank1
  1338  0CB8  00DD               	movwf	??_main^(0+128)
  1339  0CB9  085D               	movf	??_main^(0+128),w
  1340  0CBA  1283               	bcf	3,5	;RP0=0, select bank0
  1341  0CBB  1303               	bcf	3,6	;RP1=0, select bank0
  1342  0CBC  00A9               	movwf	I2C_LCD_init@I2C_LCD_Address
  1343  0CBD  3008               	movlw	8
  1344  0CBE  1683               	bsf	3,5	;RP0=1, select bank1
  1345  0CBF  1303               	bcf	3,6	;RP1=0, select bank1
  1346  0CC0  00DE               	movwf	(??_main+1)^(0+128)
  1347  0CC1  085E               	movf	(??_main+1)^(0+128),w
  1348  0CC2  1283               	bcf	3,5	;RP0=0, select bank0
  1349  0CC3  1303               	bcf	3,6	;RP1=0, select bank0
  1350  0CC4  00AA               	movwf	I2C_LCD_init@N
  1351  0CC5  01AB               	clrf	I2C_LCD_init@F
  1352  0CC6  30CB               	movlw	(low (_LCD1| 0))& (0+255)
  1353  0CC7  120A  158A  206A  120A  158A  	fcall	_I2C_LCD_init
  1354  0CCC                     l3034:	
  1355                           
  1356                           ;I2C_SHT25_RH_And_T_SENSOR_Firmware.c: 27:     I2C_LCD_clear(LCD1);
  1357  0CCC  1683               	bsf	3,5	;RP0=1, select bank1
  1358  0CCD  1303               	bcf	3,6	;RP1=0, select bank1
  1359  0CCE  084C               	movf	(_LCD1+1)^(0+128),w
  1360  0CCF  1283               	bcf	3,5	;RP0=0, select bank0
  1361  0CD0  1303               	bcf	3,6	;RP1=0, select bank0
  1362  0CD1  00A3               	movwf	I2C_LCD_clear@LCD_Obj+1
  1363  0CD2  1683               	bsf	3,5	;RP0=1, select bank1
  1364  0CD3  1303               	bcf	3,6	;RP1=0, select bank1
  1365  0CD4  084B               	movf	_LCD1^(0+128),w
  1366  0CD5  1283               	bcf	3,5	;RP0=0, select bank0
  1367  0CD6  1303               	bcf	3,6	;RP1=0, select bank0
  1368  0CD7  00A2               	movwf	I2C_LCD_clear@LCD_Obj
  1369  0CD8  160A  118A  2550  120A  158A  	fcall	_I2C_LCD_clear
  1370                           
  1371                           ;I2C_SHT25_RH_And_T_SENSOR_Firmware.c: 28:     I2C_LCD_set_cursor(LCD1, 1, 3);
  1372  0CDD  1683               	bsf	3,5	;RP0=1, select bank1
  1373  0CDE  1303               	bcf	3,6	;RP1=0, select bank1
  1374  0CDF  084C               	movf	(_LCD1+1)^(0+128),w
  1375  0CE0  1283               	bcf	3,5	;RP0=0, select bank0
  1376  0CE1  1303               	bcf	3,6	;RP1=0, select bank0
  1377  0CE2  00A3               	movwf	I2C_LCD_set_cursor@LCD_Obj+1
  1378  0CE3  1683               	bsf	3,5	;RP0=1, select bank1
  1379  0CE4  1303               	bcf	3,6	;RP1=0, select bank1
  1380  0CE5  084B               	movf	_LCD1^(0+128),w
  1381  0CE6  1283               	bcf	3,5	;RP0=0, select bank0
  1382  0CE7  1303               	bcf	3,6	;RP1=0, select bank0
  1383  0CE8  00A2               	movwf	I2C_LCD_set_cursor@LCD_Obj
  1384  0CE9  01A4               	clrf	I2C_LCD_set_cursor@row
  1385  0CEA  0AA4               	incf	I2C_LCD_set_cursor@row,f
  1386  0CEB  3003               	movlw	3
  1387  0CEC  1683               	bsf	3,5	;RP0=1, select bank1
  1388  0CED  1303               	bcf	3,6	;RP1=0, select bank1
  1389  0CEE  00DD               	movwf	??_main^(0+128)
  1390  0CEF  085D               	movf	??_main^(0+128),w
  1391  0CF0  1283               	bcf	3,5	;RP0=0, select bank0
  1392  0CF1  1303               	bcf	3,6	;RP1=0, select bank0
  1393  0CF2  00A5               	movwf	I2C_LCD_set_cursor@colomn
  1394  0CF3  160A  118A  2749  120A  158A  	fcall	_I2C_LCD_set_cursor
  1395  0CF8                     l3036:	
  1396                           
  1397                           ;I2C_SHT25_RH_And_T_SENSOR_Firmware.c: 29:     I2C_LCD_write_string(LCD1, "LCD1 INITIALI
      +                          ZED");
  1398  0CF8  1683               	bsf	3,5	;RP0=1, select bank1
  1399  0CF9  1303               	bcf	3,6	;RP1=0, select bank1
  1400  0CFA  084C               	movf	(_LCD1+1)^(0+128),w
  1401  0CFB  1283               	bcf	3,5	;RP0=0, select bank0
  1402  0CFC  1303               	bcf	3,6	;RP1=0, select bank0
  1403  0CFD  00A3               	movwf	I2C_LCD_write_string@LCD_Obj+1
  1404  0CFE  1683               	bsf	3,5	;RP0=1, select bank1
  1405  0CFF  1303               	bcf	3,6	;RP1=0, select bank1
  1406  0D00  084B               	movf	_LCD1^(0+128),w
  1407  0D01  1283               	bcf	3,5	;RP0=0, select bank0
  1408  0D02  1303               	bcf	3,6	;RP1=0, select bank0
  1409  0D03  00A2               	movwf	I2C_LCD_write_string@LCD_Obj
  1410  0D04  3020               	movlw	(low ((STR_1-__stringbase)| (0+32768)))& (0+255)
  1411  0D05  00A4               	movwf	I2C_LCD_write_string@str
  1412  0D06  3080               	movlw	128
  1413  0D07  00A5               	movwf	I2C_LCD_write_string@str+1
  1414  0D08  160A  118A  26F5  120A  158A  	fcall	_I2C_LCD_write_string
  1415  0D0D                     l3038:	
  1416                           
  1417                           ;I2C_SHT25_RH_And_T_SENSOR_Firmware.c: 30:     _delay((unsigned long)((500)*(20000000UL/
      +                          4000.0)));
  1418  0D0D  300D               	movlw	13
  1419  0D0E  1683               	bsf	3,5	;RP0=1, select bank1
  1420  0D0F  1303               	bcf	3,6	;RP1=0, select bank1
  1421  0D10  00DF               	movwf	(??_main^(0+128)+2)
  1422  0D11  30AF               	movlw	175
  1423  0D12  00DE               	movwf	(??_main^(0+128)+1)
  1424  0D13  30B5               	movlw	181
  1425  0D14  00DD               	movwf	??_main^(0+128)
  1426  0D15                     u4217:	
  1427  0D15  0BDD               	decfsz	??_main^(0+128),f
  1428  0D16  2D15               	goto	u4217
  1429  0D17  0BDE               	decfsz	(??_main^(0+128)+1),f
  1430  0D18  2D15               	goto	u4217
  1431  0D19  0BDF               	decfsz	(??_main^(0+128)+2),f
  1432  0D1A  2D15               	goto	u4217
  1433  0D1B  2D1C               	nop2
  1434  0D1C                     l3040:	
  1435                           
  1436                           ;I2C_SHT25_RH_And_T_SENSOR_Firmware.c: 31:     I2C_LCD_set_cursor(LCD1, 1, 1);
  1437  0D1C  1683               	bsf	3,5	;RP0=1, select bank1
  1438  0D1D  1303               	bcf	3,6	;RP1=0, select bank1
  1439  0D1E  084C               	movf	(_LCD1+1)^(0+128),w
  1440  0D1F  1283               	bcf	3,5	;RP0=0, select bank0
  1441  0D20  1303               	bcf	3,6	;RP1=0, select bank0
  1442  0D21  00A3               	movwf	I2C_LCD_set_cursor@LCD_Obj+1
  1443  0D22  1683               	bsf	3,5	;RP0=1, select bank1
  1444  0D23  1303               	bcf	3,6	;RP1=0, select bank1
  1445  0D24  084B               	movf	_LCD1^(0+128),w
  1446  0D25  1283               	bcf	3,5	;RP0=0, select bank0
  1447  0D26  1303               	bcf	3,6	;RP1=0, select bank0
  1448  0D27  00A2               	movwf	I2C_LCD_set_cursor@LCD_Obj
  1449  0D28  01A4               	clrf	I2C_LCD_set_cursor@row
  1450  0D29  0AA4               	incf	I2C_LCD_set_cursor@row,f
  1451  0D2A  01A5               	clrf	I2C_LCD_set_cursor@colomn
  1452  0D2B  0AA5               	incf	I2C_LCD_set_cursor@colomn,f
  1453  0D2C  160A  118A  2749  120A  158A  	fcall	_I2C_LCD_set_cursor
  1454  0D31                     l3042:	
  1455                           
  1456                           ;I2C_SHT25_RH_And_T_SENSOR_Firmware.c: 32:     I2C_LCD_write_string(LCD1, "I2C SHT25 REA
      +                          DING..");
  1457  0D31  1683               	bsf	3,5	;RP0=1, select bank1
  1458  0D32  1303               	bcf	3,6	;RP1=0, select bank1
  1459  0D33  084C               	movf	(_LCD1+1)^(0+128),w
  1460  0D34  1283               	bcf	3,5	;RP0=0, select bank0
  1461  0D35  1303               	bcf	3,6	;RP1=0, select bank0
  1462  0D36  00A3               	movwf	I2C_LCD_write_string@LCD_Obj+1
  1463  0D37  1683               	bsf	3,5	;RP0=1, select bank1
  1464  0D38  1303               	bcf	3,6	;RP1=0, select bank1
  1465  0D39  084B               	movf	_LCD1^(0+128),w
  1466  0D3A  1283               	bcf	3,5	;RP0=0, select bank0
  1467  0D3B  1303               	bcf	3,6	;RP1=0, select bank0
  1468  0D3C  00A2               	movwf	I2C_LCD_write_string@LCD_Obj
  1469  0D3D  300C               	movlw	(low ((STR_2-__stringbase)| (0+32768)))& (0+255)
  1470  0D3E  00A4               	movwf	I2C_LCD_write_string@str
  1471  0D3F  3080               	movlw	128
  1472  0D40  00A5               	movwf	I2C_LCD_write_string@str+1
  1473  0D41  160A  118A  26F5  120A  158A  	fcall	_I2C_LCD_write_string
  1474  0D46                     l3044:	
  1475                           
  1476                           ;I2C_SHT25_RH_And_T_SENSOR_Firmware.c: 35:         T = I2C_SHT25_Temperature_Read();
  1477  0D46  120A  158A  236C  120A  158A  	fcall	_I2C_SHT25_Temperature_Read
  1478  0D4B  1283               	bcf	3,5	;RP0=0, select bank0
  1479  0D4C  1303               	bcf	3,6	;RP1=0, select bank0
  1480  0D4D  086E               	movf	?_I2C_SHT25_Temperature_Read,w
  1481  0D4E  1683               	bsf	3,5	;RP0=1, select bank1
  1482  0D4F  1303               	bcf	3,6	;RP1=0, select bank1
  1483  0D50  00DD               	movwf	??_main^(0+128)
  1484  0D51  085D               	movf	??_main^(0+128),w
  1485  0D52  00A1               	movwf	_T^(0+128)
  1486  0D53                     l3046:	
  1487                           
  1488                           ;I2C_SHT25_RH_And_T_SENSOR_Firmware.c: 36:         RH = I2C_SHT25_Relative_Humidity_Read
      +                          ();
  1489  0D53  120A  158A  223D  120A  158A  	fcall	_I2C_SHT25_Relative_Humidity_Read
  1490  0D58  1283               	bcf	3,5	;RP0=0, select bank0
  1491  0D59  1303               	bcf	3,6	;RP1=0, select bank0
  1492  0D5A  086E               	movf	?_I2C_SHT25_Relative_Humidity_Read,w
  1493  0D5B  1683               	bsf	3,5	;RP0=1, select bank1
  1494  0D5C  1303               	bcf	3,6	;RP1=0, select bank1
  1495  0D5D  00DD               	movwf	??_main^(0+128)
  1496  0D5E  085D               	movf	??_main^(0+128),w
  1497  0D5F  00A0               	movwf	_RH^(0+128)
  1498  0D60                     l3048:	
  1499                           
  1500                           ;I2C_SHT25_RH_And_T_SENSOR_Firmware.c: 37:         sprintf(T_str, "T:%3d%cC", T, 0xDF);
  1501  0D60  303A               	movlw	(low ((STR_3-__stringbase)| (0+32768)))& (0+255)
  1502  0D61  00DD               	movwf	??_main^(0+128)
  1503  0D62  085D               	movf	??_main^(0+128),w
  1504  0D63  1283               	bcf	3,5	;RP0=0, select bank0
  1505  0D64  1303               	bcf	3,6	;RP1=0, select bank0
  1506  0D65  00A0               	movwf	sprintf@f
  1507  0D66  1683               	bsf	3,5	;RP0=1, select bank1
  1508  0D67  1303               	bcf	3,6	;RP1=0, select bank1
  1509  0D68  0821               	movf	_T^(0+128),w
  1510  0D69  1283               	bcf	3,5	;RP0=0, select bank0
  1511  0D6A  1303               	bcf	3,6	;RP1=0, select bank0
  1512  0D6B  00A1               	movwf	?_sprintf+1
  1513  0D6C  01A2               	clrf	?_sprintf+2
  1514  0D6D  1BA1               	btfsc	?_sprintf+1,7
  1515  0D6E  03A2               	decf	?_sprintf+2,f
  1516  0D6F  30DF               	movlw	223
  1517  0D70  00A3               	movwf	?_sprintf+3
  1518  0D71  3000               	movlw	0
  1519  0D72  00A4               	movwf	?_sprintf+4
  1520  0D73  30B7               	movlw	(low (_T_str| 0))& (0+255)
  1521  0D74  120A  158A  260E  120A  158A  	fcall	_sprintf
  1522  0D79                     l3050:	
  1523                           
  1524                           ;I2C_SHT25_RH_And_T_SENSOR_Firmware.c: 38:         sprintf(RH_str, "RH:%3d%%", RH);
  1525  0D79  3031               	movlw	(low ((STR_4-__stringbase)| (0+32768)))& (0+255)
  1526  0D7A  1683               	bsf	3,5	;RP0=1, select bank1
  1527  0D7B  1303               	bcf	3,6	;RP1=0, select bank1
  1528  0D7C  00DD               	movwf	??_main^(0+128)
  1529  0D7D  085D               	movf	??_main^(0+128),w
  1530  0D7E  1283               	bcf	3,5	;RP0=0, select bank0
  1531  0D7F  1303               	bcf	3,6	;RP1=0, select bank0
  1532  0D80  00A0               	movwf	sprintf@f
  1533  0D81  1683               	bsf	3,5	;RP0=1, select bank1
  1534  0D82  1303               	bcf	3,6	;RP1=0, select bank1
  1535  0D83  0820               	movf	_RH^(0+128),w
  1536  0D84  00DE               	movwf	(??_main+1)^(0+128)
  1537  0D85  01DF               	clrf	((??_main+1)^(0+128)+1)
  1538  0D86  085E               	movf	(??_main+1)^(0+128),w
  1539  0D87  1283               	bcf	3,5	;RP0=0, select bank0
  1540  0D88  1303               	bcf	3,6	;RP1=0, select bank0
  1541  0D89  00A1               	movwf	?_sprintf+1
  1542  0D8A  1683               	bsf	3,5	;RP0=1, select bank1
  1543  0D8B  1303               	bcf	3,6	;RP1=0, select bank1
  1544  0D8C  085F               	movf	(??_main+2)^(0+128),w
  1545  0D8D  1283               	bcf	3,5	;RP0=0, select bank0
  1546  0D8E  1303               	bcf	3,6	;RP1=0, select bank0
  1547  0D8F  00A2               	movwf	?_sprintf+2
  1548  0D90  30A3               	movlw	(low (_RH_str| 0))& (0+255)
  1549  0D91  120A  158A  260E  120A  158A  	fcall	_sprintf
  1550  0D96                     l3052:	
  1551                           
  1552                           ;I2C_SHT25_RH_And_T_SENSOR_Firmware.c: 39:         I2C_LCD_set_cursor(LCD1, 3, 10);
  1553  0D96  1683               	bsf	3,5	;RP0=1, select bank1
  1554  0D97  1303               	bcf	3,6	;RP1=0, select bank1
  1555  0D98  084C               	movf	(_LCD1+1)^(0+128),w
  1556  0D99  1283               	bcf	3,5	;RP0=0, select bank0
  1557  0D9A  1303               	bcf	3,6	;RP1=0, select bank0
  1558  0D9B  00A3               	movwf	I2C_LCD_set_cursor@LCD_Obj+1
  1559  0D9C  1683               	bsf	3,5	;RP0=1, select bank1
  1560  0D9D  1303               	bcf	3,6	;RP1=0, select bank1
  1561  0D9E  084B               	movf	_LCD1^(0+128),w
  1562  0D9F  1283               	bcf	3,5	;RP0=0, select bank0
  1563  0DA0  1303               	bcf	3,6	;RP1=0, select bank0
  1564  0DA1  00A2               	movwf	I2C_LCD_set_cursor@LCD_Obj
  1565  0DA2  3003               	movlw	3
  1566  0DA3  1683               	bsf	3,5	;RP0=1, select bank1
  1567  0DA4  1303               	bcf	3,6	;RP1=0, select bank1
  1568  0DA5  00DD               	movwf	??_main^(0+128)
  1569  0DA6  085D               	movf	??_main^(0+128),w
  1570  0DA7  1283               	bcf	3,5	;RP0=0, select bank0
  1571  0DA8  1303               	bcf	3,6	;RP1=0, select bank0
  1572  0DA9  00A4               	movwf	I2C_LCD_set_cursor@row
  1573  0DAA  300A               	movlw	10
  1574  0DAB  1683               	bsf	3,5	;RP0=1, select bank1
  1575  0DAC  1303               	bcf	3,6	;RP1=0, select bank1
  1576  0DAD  00DE               	movwf	(??_main+1)^(0+128)
  1577  0DAE  085E               	movf	(??_main+1)^(0+128),w
  1578  0DAF  1283               	bcf	3,5	;RP0=0, select bank0
  1579  0DB0  1303               	bcf	3,6	;RP1=0, select bank0
  1580  0DB1  00A5               	movwf	I2C_LCD_set_cursor@colomn
  1581  0DB2  160A  118A  2749  120A  158A  	fcall	_I2C_LCD_set_cursor
  1582  0DB7                     l3054:	
  1583                           
  1584                           ;I2C_SHT25_RH_And_T_SENSOR_Firmware.c: 40:         I2C_LCD_write_string(LCD1, T_str);
  1585  0DB7  1683               	bsf	3,5	;RP0=1, select bank1
  1586  0DB8  1303               	bcf	3,6	;RP1=0, select bank1
  1587  0DB9  084C               	movf	(_LCD1+1)^(0+128),w
  1588  0DBA  1283               	bcf	3,5	;RP0=0, select bank0
  1589  0DBB  1303               	bcf	3,6	;RP1=0, select bank0
  1590  0DBC  00A3               	movwf	I2C_LCD_write_string@LCD_Obj+1
  1591  0DBD  1683               	bsf	3,5	;RP0=1, select bank1
  1592  0DBE  1303               	bcf	3,6	;RP1=0, select bank1
  1593  0DBF  084B               	movf	_LCD1^(0+128),w
  1594  0DC0  1283               	bcf	3,5	;RP0=0, select bank0
  1595  0DC1  1303               	bcf	3,6	;RP1=0, select bank0
  1596  0DC2  00A2               	movwf	I2C_LCD_write_string@LCD_Obj
  1597  0DC3  30B7               	movlw	(low (_T_str| 0))& (0+255)
  1598  0DC4  00A4               	movwf	I2C_LCD_write_string@str
  1599  0DC5  3000               	movlw	0
  1600  0DC6  00A5               	movwf	I2C_LCD_write_string@str+1
  1601  0DC7  160A  118A  26F5  120A  158A  	fcall	_I2C_LCD_write_string
  1602  0DCC                     l3056:	
  1603                           
  1604                           ;I2C_SHT25_RH_And_T_SENSOR_Firmware.c: 41:         I2C_LCD_set_cursor(LCD1, 3, 1);
  1605  0DCC  1683               	bsf	3,5	;RP0=1, select bank1
  1606  0DCD  1303               	bcf	3,6	;RP1=0, select bank1
  1607  0DCE  084C               	movf	(_LCD1+1)^(0+128),w
  1608  0DCF  1283               	bcf	3,5	;RP0=0, select bank0
  1609  0DD0  1303               	bcf	3,6	;RP1=0, select bank0
  1610  0DD1  00A3               	movwf	I2C_LCD_set_cursor@LCD_Obj+1
  1611  0DD2  1683               	bsf	3,5	;RP0=1, select bank1
  1612  0DD3  1303               	bcf	3,6	;RP1=0, select bank1
  1613  0DD4  084B               	movf	_LCD1^(0+128),w
  1614  0DD5  1283               	bcf	3,5	;RP0=0, select bank0
  1615  0DD6  1303               	bcf	3,6	;RP1=0, select bank0
  1616  0DD7  00A2               	movwf	I2C_LCD_set_cursor@LCD_Obj
  1617  0DD8  3003               	movlw	3
  1618  0DD9  1683               	bsf	3,5	;RP0=1, select bank1
  1619  0DDA  1303               	bcf	3,6	;RP1=0, select bank1
  1620  0DDB  00DD               	movwf	??_main^(0+128)
  1621  0DDC  085D               	movf	??_main^(0+128),w
  1622  0DDD  1283               	bcf	3,5	;RP0=0, select bank0
  1623  0DDE  1303               	bcf	3,6	;RP1=0, select bank0
  1624  0DDF  00A4               	movwf	I2C_LCD_set_cursor@row
  1625  0DE0  01A5               	clrf	I2C_LCD_set_cursor@colomn
  1626  0DE1  0AA5               	incf	I2C_LCD_set_cursor@colomn,f
  1627  0DE2  160A  118A  2749  120A  158A  	fcall	_I2C_LCD_set_cursor
  1628  0DE7                     l3058:	
  1629                           
  1630                           ;I2C_SHT25_RH_And_T_SENSOR_Firmware.c: 42:         I2C_LCD_write_string(LCD1, RH_str);
  1631  0DE7  1683               	bsf	3,5	;RP0=1, select bank1
  1632  0DE8  1303               	bcf	3,6	;RP1=0, select bank1
  1633  0DE9  084C               	movf	(_LCD1+1)^(0+128),w
  1634  0DEA  1283               	bcf	3,5	;RP0=0, select bank0
  1635  0DEB  1303               	bcf	3,6	;RP1=0, select bank0
  1636  0DEC  00A3               	movwf	I2C_LCD_write_string@LCD_Obj+1
  1637  0DED  1683               	bsf	3,5	;RP0=1, select bank1
  1638  0DEE  1303               	bcf	3,6	;RP1=0, select bank1
  1639  0DEF  084B               	movf	_LCD1^(0+128),w
  1640  0DF0  1283               	bcf	3,5	;RP0=0, select bank0
  1641  0DF1  1303               	bcf	3,6	;RP1=0, select bank0
  1642  0DF2  00A2               	movwf	I2C_LCD_write_string@LCD_Obj
  1643  0DF3  30A3               	movlw	(low (_RH_str| 0))& (0+255)
  1644  0DF4  00A4               	movwf	I2C_LCD_write_string@str
  1645  0DF5  3000               	movlw	0
  1646  0DF6  00A5               	movwf	I2C_LCD_write_string@str+1
  1647  0DF7  160A  118A  26F5  120A  158A  	fcall	_I2C_LCD_write_string
  1648                           
  1649                           ;I2C_SHT25_RH_And_T_SENSOR_Firmware.c: 43:         _delay((unsigned long)((100)*(2000000
      +                          0UL/4000.0)));
  1650  0DFC  3003               	movlw	3
  1651  0DFD  1683               	bsf	3,5	;RP0=1, select bank1
  1652  0DFE  1303               	bcf	3,6	;RP1=0, select bank1
  1653  0DFF  00DF               	movwf	(??_main^(0+128)+2)
  1654  0E00  308A               	movlw	138
  1655  0E01  00DE               	movwf	(??_main^(0+128)+1)
  1656  0E02  3055               	movlw	85
  1657  0E03  00DD               	movwf	??_main^(0+128)
  1658  0E04                     u4227:	
  1659  0E04  0BDD               	decfsz	??_main^(0+128),f
  1660  0E05  2E04               	goto	u4227
  1661  0E06  0BDE               	decfsz	(??_main^(0+128)+1),f
  1662  0E07  2E04               	goto	u4227
  1663  0E08  0BDF               	decfsz	(??_main^(0+128)+2),f
  1664  0E09  2E04               	goto	u4227
  1665  0E0A  2D46               	goto	l3044
  1666  0E0B  120A  118A  2800   	ljmp	start
  1667  0E0E                     __end_of_main:	
  1668                           
  1669                           	psect	text1
  1670  0E0E                     __ptext1:	
  1671 ;; *************** function _sprintf *****************
  1672 ;; Defined at:
  1673 ;;		line 505 in file "C:\Program Files (x86)\Microchip\xc8\v2.10\pic\sources\c90\common\doprnt.c"
  1674 ;; Parameters:    Size  Location     Type
  1675 ;;  sp              1    wreg     PTR unsigned char 
  1676 ;;		 -> RH_str(20), T_str(20), 
  1677 ;;  f               1    0[BANK0 ] PTR const unsigned char 
  1678 ;;		 -> STR_4(9), STR_3(9), 
  1679 ;; Auto vars:     Size  Location     Type
  1680 ;;  sp              1   18[BANK0 ] PTR unsigned char 
  1681 ;;		 -> RH_str(20), T_str(20), 
  1682 ;;  tmpval          4    0        struct .
  1683 ;;  width           2   16[BANK0 ] int 
  1684 ;;  val             2   14[BANK0 ] unsigned int 
  1685 ;;  len             2   12[BANK0 ] unsigned int 
  1686 ;;  c               1   19[BANK0 ] unsigned char 
  1687 ;;  ap              1   11[BANK0 ] PTR void [1]
  1688 ;;		 -> ?_sprintf(2), 
  1689 ;;  flag            1   10[BANK0 ] unsigned char 
  1690 ;;  prec            1    9[BANK0 ] char 
  1691 ;;  cp              1    8[BANK0 ] PTR const unsigned char 
  1692 ;;		 -> sprintf@c(1), 
  1693 ;; Return value:  Size  Location     Type
  1694 ;;                  2    0[BANK0 ] int 
  1695 ;; Registers used:
  1696 ;;		wreg, fsr0l, fsr0h, status,2, status,0, btemp+1, pclath, cstack
  1697 ;; Tracked objects:
  1698 ;;		On entry : 0/0
  1699 ;;		On exit  : 0/0
  1700 ;;		Unchanged: 0/0
  1701 ;; Data sizes:     COMMON   BANK0   BANK1   BANK3   BANK2
  1702 ;;      Params:         0       5       0       0       0
  1703 ;;      Locals:         0      12       0       0       0
  1704 ;;      Temps:          0       3       0       0       0
  1705 ;;      Totals:         0      20       0       0       0
  1706 ;;Total ram usage:       20 bytes
  1707 ;; Hardware stack levels used:    1
  1708 ;; Hardware stack levels required when called:    1
  1709 ;; This function calls:
  1710 ;;		___lwdiv
  1711 ;;		___lwmod
  1712 ;;		___wmul
  1713 ;;		_isdigit
  1714 ;; This function is called by:
  1715 ;;		_main
  1716 ;; This function uses a non-reentrant model
  1717 ;;
  1718                           
  1719                           
  1720                           ;psect for function _sprintf
  1721  0E0E                     _sprintf:	
  1722                           
  1723                           ;incstack = 0
  1724                           ; Regs used in _sprintf: [wreg-fsr0h+status,2+status,0+btemp+1+pclath+cstack]
  1725                           ;sprintf@sp stored from wreg
  1726  0E0E  1283               	bcf	3,5	;RP0=0, select bank0
  1727  0E0F  1303               	bcf	3,6	;RP1=0, select bank0
  1728  0E10  00B2               	movwf	sprintf@sp
  1729  0E11                     l2906:	
  1730                           
  1731                           ;C:\Program Files (x86)\Microchip\xc8\v2.10\pic\sources\c90\common\doprnt.c: 505: sprint
      +                          f(char * sp, const char * f, ...);C:\Program Files (x86)\Microchip\xc8\v2.10\pic\sources
      +                          \c90\common\doprnt.c: 506: {;C:\Program Files (x86)\Microchip\xc8\v2.10\pic\sources\c90\
      +                          common\doprnt.c: 507:  va_list ap;;C:\Program Files (x86)\Microchip\xc8\v2.10\pic\source
      +                          s\c90\common\doprnt.c: 512:  char c;;C:\Program Files (x86)\Microchip\xc8\v2.10\pic\sour
      +                          ces\c90\common\doprnt.c: 514:  int width;;C:\Program Files (x86)\Microchip\xc8\v2.10\pic
      +                          \sources\c90\common\doprnt.c: 521:  signed char prec;
  1732  0E11  3021               	movlw	(low ((?_sprintf| 0+1)))& (0+255)
  1733  0E12  00A5               	movwf	??_sprintf
  1734  0E13  0825               	movf	??_sprintf,w
  1735  0E14  00AB               	movwf	sprintf@ap
  1736                           
  1737                           ;C:\Program Files (x86)\Microchip\xc8\v2.10\pic\sources\c90\common\doprnt.c: 553:  while
      +                          ((c = *f++)) {
  1738  0E15  2FE9               	goto	l3016
  1739  0E16                     l2908:	
  1740                           
  1741                           ;C:\Program Files (x86)\Microchip\xc8\v2.10\pic\sources\c90\common\doprnt.c: 555:   if(c
      +                           != '%')
  1742  0E16  3025               	movlw	37
  1743  0E17  0633               	xorwf	sprintf@c,w
  1744  0E18  1903               	btfsc	3,2
  1745  0E19  2E1B               	goto	u4031
  1746  0E1A  2E1C               	goto	u4030
  1747  0E1B                     u4031:	
  1748  0E1B  2E28               	goto	l2914
  1749  0E1C                     u4030:	
  1750  0E1C                     l2910:	
  1751                           
  1752                           ;C:\Program Files (x86)\Microchip\xc8\v2.10\pic\sources\c90\common\doprnt.c: 557:   {;C:
      +                          \Program Files (x86)\Microchip\xc8\v2.10\pic\sources\c90\common\doprnt.c: 558:    ((*sp+
      +                          + = (c)));
  1753  0E1C  0833               	movf	sprintf@c,w
  1754  0E1D  00A5               	movwf	??_sprintf
  1755  0E1E  0832               	movf	sprintf@sp,w
  1756  0E1F  0084               	movwf	4
  1757  0E20  0825               	movf	??_sprintf,w
  1758  0E21  1383               	bcf	3,7	;select IRP bank0
  1759  0E22  0080               	movwf	0
  1760  0E23                     l2912:	
  1761  0E23  3001               	movlw	1
  1762  0E24  00A5               	movwf	??_sprintf
  1763  0E25  0825               	movf	??_sprintf,w
  1764  0E26  07B2               	addwf	sprintf@sp,f
  1765                           
  1766                           ;C:\Program Files (x86)\Microchip\xc8\v2.10\pic\sources\c90\common\doprnt.c: 559:    con
      +                          tinue;
  1767  0E27  2FE9               	goto	l3016
  1768  0E28                     l2914:	
  1769                           
  1770                           ;C:\Program Files (x86)\Microchip\xc8\v2.10\pic\sources\c90\common\doprnt.c: 563:   widt
      +                          h = 0;
  1771  0E28  01B0               	clrf	sprintf@width
  1772  0E29  01B1               	clrf	sprintf@width+1
  1773                           
  1774                           ;C:\Program Files (x86)\Microchip\xc8\v2.10\pic\sources\c90\common\doprnt.c: 565:   flag
      +                           = 0;
  1775  0E2A  01AA               	clrf	sprintf@flag
  1776  0E2B                     l2916:	
  1777                           
  1778                           ;C:\Program Files (x86)\Microchip\xc8\v2.10\pic\sources\c90\common\doprnt.c: 614:   if(i
      +                          sdigit((unsigned)*f)) {
  1779  0E2B  0820               	movf	sprintf@f,w
  1780  0E2C  0084               	movwf	4
  1781  0E2D  160A  118A  200A  120A  158A  	fcall	stringdir
  1782  0E32  160A  118A  24E1  120A  158A  	fcall	_isdigit
  1783  0E37  1C03               	btfss	3,0
  1784  0E38  2E3A               	goto	u4041
  1785  0E39  2E3B               	goto	u4040
  1786  0E3A                     u4041:	
  1787  0E3A  2EDD               	goto	l2958
  1788  0E3B                     u4040:	
  1789  0E3B                     l2918:	
  1790                           
  1791                           ;C:\Program Files (x86)\Microchip\xc8\v2.10\pic\sources\c90\common\doprnt.c: 615:    wid
      +                          th = 0;
  1792  0E3B  1283               	bcf	3,5	;RP0=0, select bank0
  1793  0E3C  1303               	bcf	3,6	;RP1=0, select bank0
  1794  0E3D  01B0               	clrf	sprintf@width
  1795  0E3E  01B1               	clrf	sprintf@width+1
  1796  0E3F                     l2920:	
  1797                           
  1798                           ;C:\Program Files (x86)\Microchip\xc8\v2.10\pic\sources\c90\common\doprnt.c: 617:     wi
      +                          dth *= 10;
  1799  0E3F  300A               	movlw	10
  1800  0E40  00F0               	movwf	___wmul@multiplier
  1801  0E41  3000               	movlw	0
  1802  0E42  00F1               	movwf	___wmul@multiplier+1
  1803  0E43  1283               	bcf	3,5	;RP0=0, select bank0
  1804  0E44  1303               	bcf	3,6	;RP1=0, select bank0
  1805  0E45  0831               	movf	sprintf@width+1,w
  1806  0E46  00F3               	movwf	___wmul@multiplicand+1
  1807  0E47  0830               	movf	sprintf@width,w
  1808  0E48  00F2               	movwf	___wmul@multiplicand
  1809  0E49  160A  118A  25DC  120A  158A  	fcall	___wmul
  1810  0E4E  0871               	movf	?___wmul+1,w
  1811  0E4F  1283               	bcf	3,5	;RP0=0, select bank0
  1812  0E50  1303               	bcf	3,6	;RP1=0, select bank0
  1813  0E51  00B1               	movwf	sprintf@width+1
  1814  0E52  0870               	movf	?___wmul,w
  1815  0E53  00B0               	movwf	sprintf@width
  1816  0E54                     l2922:	
  1817                           
  1818                           ;C:\Program Files (x86)\Microchip\xc8\v2.10\pic\sources\c90\common\doprnt.c: 618:       
      +                           width += *f++ - '0';
  1819  0E54  0820               	movf	sprintf@f,w
  1820  0E55  0084               	movwf	4
  1821  0E56  160A  118A  200A  120A  158A  	fcall	stringdir
  1822  0E5B  3ED0               	addlw	208
  1823  0E5C  00A5               	movwf	??_sprintf
  1824  0E5D  30FF               	movlw	255
  1825  0E5E  1803               	skipnc
  1826  0E5F  3000               	movlw	0
  1827  0E60  00A6               	movwf	??_sprintf+1
  1828  0E61  0825               	movf	??_sprintf,w
  1829  0E62  07B0               	addwf	sprintf@width,f
  1830  0E63  1803               	skipnc
  1831  0E64  0AB1               	incf	sprintf@width+1,f
  1832  0E65  0826               	movf	??_sprintf+1,w
  1833  0E66  07B1               	addwf	sprintf@width+1,f
  1834  0E67                     l2924:	
  1835  0E67  3001               	movlw	1
  1836  0E68  00A5               	movwf	??_sprintf
  1837  0E69  0825               	movf	??_sprintf,w
  1838  0E6A  07A0               	addwf	sprintf@f,f
  1839  0E6B                     l2926:	
  1840                           
  1841                           ;C:\Program Files (x86)\Microchip\xc8\v2.10\pic\sources\c90\common\doprnt.c: 619:    } w
      +                          hile(isdigit((unsigned)*f));
  1842  0E6B  0820               	movf	sprintf@f,w
  1843  0E6C  0084               	movwf	4
  1844  0E6D  160A  118A  200A  120A  158A  	fcall	stringdir
  1845  0E72  160A  118A  24E1  120A  158A  	fcall	_isdigit
  1846  0E77  1803               	btfsc	3,0
  1847  0E78  2E7A               	goto	u4051
  1848  0E79  2E7B               	goto	u4050
  1849  0E7A                     u4051:	
  1850  0E7A  2E3F               	goto	l2920
  1851  0E7B                     u4050:	
  1852  0E7B  2EDD               	goto	l2958
  1853  0E7C                     l2928:	
  1854                           
  1855                           ;C:\Program Files (x86)\Microchip\xc8\v2.10\pic\sources\c90\common\doprnt.c: 783:    if(
      +                          ((unsigned)width) > len)
  1856  0E7C  3000               	movlw	0
  1857  0E7D  0231               	subwf	sprintf@width+1,w
  1858  0E7E  3002               	movlw	2
  1859  0E7F  1903               	skipnz
  1860  0E80  0230               	subwf	sprintf@width,w
  1861  0E81  1C03               	skipc
  1862  0E82  2E84               	goto	u4061
  1863  0E83  2E85               	goto	u4060
  1864  0E84                     u4061:	
  1865  0E84  2E8C               	goto	l2932
  1866  0E85                     u4060:	
  1867  0E85                     l2930:	
  1868                           
  1869                           ;C:\Program Files (x86)\Microchip\xc8\v2.10\pic\sources\c90\common\doprnt.c: 784:     wi
      +                          dth -= len;
  1870  0E85  30FF               	movlw	255
  1871  0E86  07B0               	addwf	sprintf@width,f
  1872  0E87  1803               	skipnc
  1873  0E88  0AB1               	incf	sprintf@width+1,f
  1874  0E89  30FF               	movlw	255
  1875  0E8A  07B1               	addwf	sprintf@width+1,f
  1876  0E8B  2E9A               	goto	l2938
  1877  0E8C                     l2932:	
  1878                           
  1879                           ;C:\Program Files (x86)\Microchip\xc8\v2.10\pic\sources\c90\common\doprnt.c: 786:     wi
      +                          dth = 0;
  1880  0E8C  01B0               	clrf	sprintf@width
  1881  0E8D  01B1               	clrf	sprintf@width+1
  1882  0E8E  2E9A               	goto	l2938
  1883  0E8F                     l2934:	
  1884                           
  1885                           ;C:\Program Files (x86)\Microchip\xc8\v2.10\pic\sources\c90\common\doprnt.c: 791:      (
      +                          (*sp++ = (' ')));
  1886  0E8F  3020               	movlw	32
  1887  0E90  00A5               	movwf	??_sprintf
  1888  0E91  0832               	movf	sprintf@sp,w
  1889  0E92  0084               	movwf	4
  1890  0E93  0825               	movf	??_sprintf,w
  1891  0E94  1383               	bcf	3,7	;select IRP bank0
  1892  0E95  0080               	movwf	0
  1893  0E96                     l2936:	
  1894  0E96  3001               	movlw	1
  1895  0E97  00A5               	movwf	??_sprintf
  1896  0E98  0825               	movf	??_sprintf,w
  1897  0E99  07B2               	addwf	sprintf@sp,f
  1898  0E9A                     l2938:	
  1899                           
  1900                           ;C:\Program Files (x86)\Microchip\xc8\v2.10\pic\sources\c90\common\doprnt.c: 790:     wh
      +                          ile(width--)
  1901  0E9A  30FF               	movlw	255
  1902  0E9B  07B0               	addwf	sprintf@width,f
  1903  0E9C  1803               	skipnc
  1904  0E9D  0AB1               	incf	sprintf@width+1,f
  1905  0E9E  30FF               	movlw	255
  1906  0E9F  07B1               	addwf	sprintf@width+1,f
  1907  0EA0  0A30               	incf	sprintf@width,w
  1908  0EA1  1D03               	skipz
  1909  0EA2  2EA7               	goto	u4071
  1910  0EA3  0A31               	incf	sprintf@width+1,w
  1911  0EA4  1D03               	btfss	3,2
  1912  0EA5  2EA7               	goto	u4071
  1913  0EA6  2EA8               	goto	u4070
  1914  0EA7                     u4071:	
  1915  0EA7  2E8F               	goto	l2934
  1916  0EA8                     u4070:	
  1917  0EA8  2EBA               	goto	l2946
  1918  0EA9                     l2940:	
  1919                           
  1920                           ;C:\Program Files (x86)\Microchip\xc8\v2.10\pic\sources\c90\common\doprnt.c: 794:     ((
      +                          *sp++ = (*cp++)));
  1921  0EA9  0828               	movf	sprintf@cp,w
  1922  0EAA  0084               	movwf	4
  1923  0EAB  1383               	bcf	3,7	;select IRP bank0
  1924  0EAC  0800               	movf	0,w
  1925  0EAD  00A5               	movwf	??_sprintf
  1926  0EAE  0832               	movf	sprintf@sp,w
  1927  0EAF  0084               	movwf	4
  1928  0EB0  0825               	movf	??_sprintf,w
  1929  0EB1  0080               	movwf	0
  1930  0EB2                     l2942:	
  1931  0EB2  3001               	movlw	1
  1932  0EB3  00A5               	movwf	??_sprintf
  1933  0EB4  0825               	movf	??_sprintf,w
  1934  0EB5  07A8               	addwf	sprintf@cp,f
  1935  0EB6                     l2944:	
  1936  0EB6  3001               	movlw	1
  1937  0EB7  00A5               	movwf	??_sprintf
  1938  0EB8  0825               	movf	??_sprintf,w
  1939  0EB9  07B2               	addwf	sprintf@sp,f
  1940  0EBA                     l2946:	
  1941                           
  1942                           ;C:\Program Files (x86)\Microchip\xc8\v2.10\pic\sources\c90\common\doprnt.c: 793:    whi
      +                          le(len--)
  1943  0EBA  3001               	movlw	1
  1944  0EBB  02AC               	subwf	sprintf@len,f
  1945  0EBC  3000               	movlw	0
  1946  0EBD  1C03               	skipc
  1947  0EBE  03AD               	decf	sprintf@len+1,f
  1948  0EBF  02AD               	subwf	sprintf@len+1,f
  1949  0EC0  0A2C               	incf	sprintf@len,w
  1950  0EC1  1D03               	skipz
  1951  0EC2  2EC7               	goto	u4081
  1952  0EC3  0A2D               	incf	sprintf@len+1,w
  1953  0EC4  1D03               	btfss	3,2
  1954  0EC5  2EC7               	goto	u4081
  1955  0EC6  2EC8               	goto	u4080
  1956  0EC7                     u4081:	
  1957  0EC7  2EA9               	goto	l2940
  1958  0EC8                     u4080:	
  1959  0EC8  2FE9               	goto	l3016
  1960  0EC9                     l2948:	
  1961                           
  1962                           ;C:\Program Files (x86)\Microchip\xc8\v2.10\pic\sources\c90\common\doprnt.c: 825:    c =
      +                           (char)(*(int *)__va_arg((*(int **)ap), (int)0));
  1963  0EC9  082B               	movf	sprintf@ap,w
  1964  0ECA  0084               	movwf	4
  1965  0ECB  1383               	bcf	3,7	;select IRP bank0
  1966  0ECC  0800               	movf	0,w
  1967  0ECD  00A5               	movwf	??_sprintf
  1968  0ECE  0825               	movf	??_sprintf,w
  1969  0ECF  00B3               	movwf	sprintf@c
  1970  0ED0                     l2950:	
  1971  0ED0  3002               	movlw	2
  1972  0ED1  00A5               	movwf	??_sprintf
  1973  0ED2  0825               	movf	??_sprintf,w
  1974  0ED3  07AB               	addwf	sprintf@ap,f
  1975  0ED4                     l2952:	
  1976                           
  1977                           ;C:\Program Files (x86)\Microchip\xc8\v2.10\pic\sources\c90\common\doprnt.c: 831:    cp 
      +                          = (char *)&c;
  1978  0ED4  3033               	movlw	(low (sprintf@c| 0))& (0+255)
  1979  0ED5  00A5               	movwf	??_sprintf
  1980  0ED6  0825               	movf	??_sprintf,w
  1981  0ED7  00A8               	movwf	sprintf@cp
  1982  0ED8                     l2954:	
  1983                           
  1984                           ;C:\Program Files (x86)\Microchip\xc8\v2.10\pic\sources\c90\common\doprnt.c: 832:    len
      +                           = 1;
  1985  0ED8  3001               	movlw	1
  1986  0ED9  00AC               	movwf	sprintf@len
  1987  0EDA  3000               	movlw	0
  1988  0EDB  00AD               	movwf	sprintf@len+1
  1989                           
  1990                           ;C:\Program Files (x86)\Microchip\xc8\v2.10\pic\sources\c90\common\doprnt.c: 833:    got
      +                          o dostring;
  1991  0EDC  2E7C               	goto	l2928
  1992  0EDD                     l2958:	
  1993  0EDD  3001               	movlw	1
  1994  0EDE  1283               	bcf	3,5	;RP0=0, select bank0
  1995  0EDF  1303               	bcf	3,6	;RP1=0, select bank0
  1996  0EE0  07A0               	addwf	sprintf@f,f
  1997  0EE1  30FF               	movlw	-1
  1998  0EE2  0720               	addwf	sprintf@f,w
  1999  0EE3  0084               	movwf	4
  2000  0EE4  160A  118A  200A  120A  158A  	fcall	stringdir
  2001  0EE9  00B3               	movwf	sprintf@c
  2002  0EEA  00A5               	movwf	??_sprintf
  2003  0EEB  01A6               	clrf	??_sprintf+1
  2004                           
  2005                           ; Switch on 2 bytes has been partitioned into a top level switch of size 1, and 1 sub-sw
      +                          itches
  2006                           ; Switch size 1, requested type "simple"
  2007                           ; Number of cases is 1, Range of values is 0 to 0
  2008                           ; switch strategies available:
  2009                           ; Name         Instructions Cycles
  2010                           ; simple_byte            4     3 (average)
  2011                           ; direct_byte           11     8 (fixed)
  2012                           ; jumptable            260     6 (fixed)
  2013                           ;	Chosen strategy is simple_byte
  2014  0EEC  0826               	movf	??_sprintf+1,w
  2015  0EED  3A00               	xorlw	0	; case 0
  2016  0EEE  1903               	skipnz
  2017  0EEF  2EF1               	goto	l3114
  2018  0EF0  2ED4               	goto	l2952
  2019  0EF1                     l3114:	
  2020                           
  2021                           ; Switch size 1, requested type "simple"
  2022                           ; Number of cases is 4, Range of values is 0 to 105
  2023                           ; switch strategies available:
  2024                           ; Name         Instructions Cycles
  2025                           ; simple_byte           13     7 (average)
  2026                           ; jumptable            260     6 (fixed)
  2027                           ;	Chosen strategy is simple_byte
  2028  0EF1  0825               	movf	??_sprintf,w
  2029  0EF2  3A00               	xorlw	0	; case 0
  2030  0EF3  1903               	skipnz
  2031  0EF4  2FFB               	goto	l3018
  2032  0EF5  3A63               	xorlw	99	; case 99
  2033  0EF6  1903               	skipnz
  2034  0EF7  2EC9               	goto	l2948
  2035  0EF8  3A07               	xorlw	7	; case 100
  2036  0EF9  1903               	skipnz
  2037  0EFA  2EFF               	goto	l2960
  2038  0EFB  3A0D               	xorlw	13	; case 105
  2039  0EFC  1903               	skipnz
  2040  0EFD  2EFF               	goto	l2960
  2041  0EFE  2ED4               	goto	l2952
  2042  0EFF                     l2960:	
  2043                           
  2044                           ;C:\Program Files (x86)\Microchip\xc8\v2.10\pic\sources\c90\common\doprnt.c: 1279:   {;C
      +                          :\Program Files (x86)\Microchip\xc8\v2.10\pic\sources\c90\common\doprnt.c: 1285:     val
      +                           = (unsigned int)(*(int *)__va_arg((*(int **)ap), (int)0));
  2045  0EFF  082B               	movf	sprintf@ap,w
  2046  0F00  0084               	movwf	4
  2047  0F01  1383               	bcf	3,7	;select IRP bank0
  2048  0F02  0800               	movf	0,w
  2049  0F03  00AE               	movwf	sprintf@val
  2050  0F04  0A84               	incf	4,f
  2051  0F05  0800               	movf	0,w
  2052  0F06  00AF               	movwf	sprintf@val+1
  2053  0F07                     l2962:	
  2054  0F07  3002               	movlw	2
  2055  0F08  00A5               	movwf	??_sprintf
  2056  0F09  0825               	movf	??_sprintf,w
  2057  0F0A  07AB               	addwf	sprintf@ap,f
  2058  0F0B                     l2964:	
  2059                           
  2060                           ;C:\Program Files (x86)\Microchip\xc8\v2.10\pic\sources\c90\common\doprnt.c: 1287:    if
      +                          ((int)val < 0) {
  2061  0F0B  1FAF               	btfss	sprintf@val+1,7
  2062  0F0C  2F0E               	goto	u4091
  2063  0F0D  2F0F               	goto	u4090
  2064  0F0E                     u4091:	
  2065  0F0E  2F18               	goto	l2970
  2066  0F0F                     u4090:	
  2067  0F0F                     l2966:	
  2068                           
  2069                           ;C:\Program Files (x86)\Microchip\xc8\v2.10\pic\sources\c90\common\doprnt.c: 1288:     f
      +                          lag |= 0x03;
  2070  0F0F  3003               	movlw	3
  2071  0F10  00A5               	movwf	??_sprintf
  2072  0F11  0825               	movf	??_sprintf,w
  2073  0F12  04AA               	iorwf	sprintf@flag,f
  2074  0F13                     l2968:	
  2075                           
  2076                           ;C:\Program Files (x86)\Microchip\xc8\v2.10\pic\sources\c90\common\doprnt.c: 1289:     v
      +                          al = -val;
  2077  0F13  09AE               	comf	sprintf@val,f
  2078  0F14  09AF               	comf	sprintf@val+1,f
  2079  0F15  0AAE               	incf	sprintf@val,f
  2080  0F16  1903               	skipnz
  2081  0F17  0AAF               	incf	sprintf@val+1,f
  2082  0F18                     l2970:	
  2083                           
  2084                           ;C:\Program Files (x86)\Microchip\xc8\v2.10\pic\sources\c90\common\doprnt.c: 1292:   };C
      +                          :\Program Files (x86)\Microchip\xc8\v2.10\pic\sources\c90\common\doprnt.c: 1331:    for(
      +                          c = 1 ; c != sizeof dpowers/sizeof dpowers[0] ; c++)
  2085  0F18  01B3               	clrf	sprintf@c
  2086  0F19  0AB3               	incf	sprintf@c,f
  2087  0F1A                     l2972:	
  2088  0F1A  3005               	movlw	5
  2089  0F1B  0633               	xorwf	sprintf@c,w
  2090  0F1C  1D03               	btfss	3,2
  2091  0F1D  2F1F               	goto	u4101
  2092  0F1E  2F20               	goto	u4100
  2093  0F1F                     u4101:	
  2094  0F1F  2F21               	goto	l2976
  2095  0F20                     u4100:	
  2096  0F20  2F47               	goto	l2982
  2097  0F21                     l2976:	
  2098                           
  2099                           ;C:\Program Files (x86)\Microchip\xc8\v2.10\pic\sources\c90\common\doprnt.c: 1332:     i
      +                          f(val < dpowers[c])
  2100  0F21  0833               	movf	sprintf@c,w
  2101  0F22  00A5               	movwf	??_sprintf
  2102  0F23  0725               	addwf	??_sprintf,w
  2103  0F24  3E01               	addlw	low ((_dpowers-__stringbase)| (0+32768))
  2104  0F25  0084               	movwf	4
  2105  0F26  160A  118A  200A  120A  158A  	fcall	stringdir
  2106  0F2B  00A6               	movwf	??_sprintf+1
  2107  0F2C  160A  118A  200A  120A  158A  	fcall	stringdir
  2108  0F31  00A7               	movwf	??_sprintf+2
  2109  0F32  0827               	movf	??_sprintf+2,w
  2110  0F33  022F               	subwf	sprintf@val+1,w
  2111  0F34  1D03               	skipz
  2112  0F35  2F38               	goto	u4115
  2113  0F36  0826               	movf	??_sprintf+1,w
  2114  0F37  022E               	subwf	sprintf@val,w
  2115  0F38                     u4115:	
  2116  0F38  1803               	skipnc
  2117  0F39  2F3B               	goto	u4111
  2118  0F3A  2F3C               	goto	u4110
  2119  0F3B                     u4111:	
  2120  0F3B  2F3D               	goto	l2980
  2121  0F3C                     u4110:	
  2122  0F3C  2F47               	goto	l2982
  2123  0F3D                     l2980:	
  2124  0F3D  3001               	movlw	1
  2125  0F3E  00A5               	movwf	??_sprintf
  2126  0F3F  0825               	movf	??_sprintf,w
  2127  0F40  07B3               	addwf	sprintf@c,f
  2128  0F41  3005               	movlw	5
  2129  0F42  0633               	xorwf	sprintf@c,w
  2130  0F43  1D03               	btfss	3,2
  2131  0F44  2F46               	goto	u4121
  2132  0F45  2F47               	goto	u4120
  2133  0F46                     u4121:	
  2134  0F46  2F21               	goto	l2976
  2135  0F47                     u4120:	
  2136  0F47                     l2982:	
  2137                           
  2138                           ;C:\Program Files (x86)\Microchip\xc8\v2.10\pic\sources\c90\common\doprnt.c: 1371:   if(
      +                          width && flag & 0x03)
  2139  0F47  0830               	movf	sprintf@width,w
  2140  0F48  0431               	iorwf	sprintf@width+1,w
  2141  0F49  1903               	btfsc	3,2
  2142  0F4A  2F4C               	goto	u4131
  2143  0F4B  2F4D               	goto	u4130
  2144  0F4C                     u4131:	
  2145  0F4C  2F59               	goto	l376
  2146  0F4D                     u4130:	
  2147  0F4D                     l2984:	
  2148  0F4D  082A               	movf	sprintf@flag,w
  2149  0F4E  3903               	andlw	3
  2150  0F4F  1903               	btfsc	3,2
  2151  0F50  2F52               	goto	u4141
  2152  0F51  2F53               	goto	u4140
  2153  0F52                     u4141:	
  2154  0F52  2F59               	goto	l376
  2155  0F53                     u4140:	
  2156  0F53                     l2986:	
  2157                           
  2158                           ;C:\Program Files (x86)\Microchip\xc8\v2.10\pic\sources\c90\common\doprnt.c: 1372:    wi
      +                          dth--;
  2159  0F53  30FF               	movlw	255
  2160  0F54  07B0               	addwf	sprintf@width,f
  2161  0F55  1803               	skipnc
  2162  0F56  0AB1               	incf	sprintf@width+1,f
  2163  0F57  30FF               	movlw	255
  2164  0F58  07B1               	addwf	sprintf@width+1,f
  2165  0F59                     l376:	
  2166                           
  2167                           ;C:\Program Files (x86)\Microchip\xc8\v2.10\pic\sources\c90\common\doprnt.c: 1407:   if(
      +                          width > c)
  2168  0F59  0831               	movf	sprintf@width+1,w
  2169  0F5A  3A80               	xorlw	128
  2170  0F5B  3C80               	sublw	128
  2171  0F5C  1D03               	skipz
  2172  0F5D  2F60               	goto	u4155
  2173  0F5E  0830               	movf	sprintf@width,w
  2174  0F5F  0233               	subwf	sprintf@c,w
  2175  0F60                     u4155:	
  2176  0F60  1803               	skipnc
  2177  0F61  2F63               	goto	u4151
  2178  0F62  2F64               	goto	u4150
  2179  0F63                     u4151:	
  2180  0F63  2F70               	goto	l2990
  2181  0F64                     u4150:	
  2182  0F64                     l2988:	
  2183                           
  2184                           ;C:\Program Files (x86)\Microchip\xc8\v2.10\pic\sources\c90\common\doprnt.c: 1408:    wi
      +                          dth -= c;
  2185  0F64  1283               	bcf	3,5	;RP0=0, select bank0
  2186  0F65  1303               	bcf	3,6	;RP1=0, select bank0
  2187  0F66  0833               	movf	sprintf@c,w
  2188  0F67  00A5               	movwf	??_sprintf
  2189  0F68  01A6               	clrf	??_sprintf+1
  2190  0F69  0825               	movf	??_sprintf,w
  2191  0F6A  02B0               	subwf	sprintf@width,f
  2192  0F6B  0826               	movf	??_sprintf+1,w
  2193  0F6C  1C03               	skipc
  2194  0F6D  03B1               	decf	sprintf@width+1,f
  2195  0F6E  02B1               	subwf	sprintf@width+1,f
  2196  0F6F  2F74               	goto	l2992
  2197  0F70                     l2990:	
  2198                           
  2199                           ;C:\Program Files (x86)\Microchip\xc8\v2.10\pic\sources\c90\common\doprnt.c: 1410:    wi
      +                          dth = 0;
  2200  0F70  1283               	bcf	3,5	;RP0=0, select bank0
  2201  0F71  1303               	bcf	3,6	;RP1=0, select bank0
  2202  0F72  01B0               	clrf	sprintf@width
  2203  0F73  01B1               	clrf	sprintf@width+1
  2204  0F74                     l2992:	
  2205                           
  2206                           ;C:\Program Files (x86)\Microchip\xc8\v2.10\pic\sources\c90\common\doprnt.c: 1448:   {;C
      +                          :\Program Files (x86)\Microchip\xc8\v2.10\pic\sources\c90\common\doprnt.c: 1450:    if(w
      +                          idth
  2207  0F74  0830               	movf	sprintf@width,w
  2208  0F75  0431               	iorwf	sprintf@width+1,w
  2209  0F76  1903               	btfsc	3,2
  2210  0F77  2F79               	goto	u4161
  2211  0F78  2F7A               	goto	u4160
  2212  0F79                     u4161:	
  2213  0F79  2F91               	goto	l3000
  2214  0F7A                     u4160:	
  2215  0F7A                     l2994:	
  2216                           
  2217                           ;C:\Program Files (x86)\Microchip\xc8\v2.10\pic\sources\c90\common\doprnt.c: 1456:      
      +                          ((*sp++ = (' ')));
  2218  0F7A  3020               	movlw	32
  2219  0F7B  00A5               	movwf	??_sprintf
  2220  0F7C  0832               	movf	sprintf@sp,w
  2221  0F7D  0084               	movwf	4
  2222  0F7E  0825               	movf	??_sprintf,w
  2223  0F7F  1383               	bcf	3,7	;select IRP bank0
  2224  0F80  0080               	movwf	0
  2225  0F81                     l2996:	
  2226  0F81  3001               	movlw	1
  2227  0F82  00A5               	movwf	??_sprintf
  2228  0F83  0825               	movf	??_sprintf,w
  2229  0F84  07B2               	addwf	sprintf@sp,f
  2230  0F85                     l2998:	
  2231  0F85  30FF               	movlw	255
  2232  0F86  07B0               	addwf	sprintf@width,f
  2233  0F87  1803               	skipnc
  2234  0F88  0AB1               	incf	sprintf@width+1,f
  2235  0F89  30FF               	movlw	255
  2236  0F8A  07B1               	addwf	sprintf@width+1,f
  2237  0F8B  0830               	movf	sprintf@width,w
  2238  0F8C  0431               	iorwf	sprintf@width+1,w
  2239  0F8D  1D03               	btfss	3,2
  2240  0F8E  2F90               	goto	u4171
  2241  0F8F  2F91               	goto	u4170
  2242  0F90                     u4171:	
  2243  0F90  2F7A               	goto	l2994
  2244  0F91                     u4170:	
  2245  0F91                     l3000:	
  2246                           
  2247                           ;C:\Program Files (x86)\Microchip\xc8\v2.10\pic\sources\c90\common\doprnt.c: 1464:    if
      +                          (flag & 0x03)
  2248  0F91  082A               	movf	sprintf@flag,w
  2249  0F92  3903               	andlw	3
  2250  0F93  1903               	btfsc	3,2
  2251  0F94  2F96               	goto	u4181
  2252  0F95  2F97               	goto	u4180
  2253  0F96                     u4181:	
  2254  0F96  2FA2               	goto	l3006
  2255  0F97                     u4180:	
  2256  0F97                     l3002:	
  2257                           
  2258                           ;C:\Program Files (x86)\Microchip\xc8\v2.10\pic\sources\c90\common\doprnt.c: 1465:     (
      +                          (*sp++ = ('-')));
  2259  0F97  302D               	movlw	45
  2260  0F98  00A5               	movwf	??_sprintf
  2261  0F99  0832               	movf	sprintf@sp,w
  2262  0F9A  0084               	movwf	4
  2263  0F9B  0825               	movf	??_sprintf,w
  2264  0F9C  1383               	bcf	3,7	;select IRP bank0
  2265  0F9D  0080               	movwf	0
  2266  0F9E                     l3004:	
  2267  0F9E  3001               	movlw	1
  2268  0F9F  00A5               	movwf	??_sprintf
  2269  0FA0  0825               	movf	??_sprintf,w
  2270  0FA1  07B2               	addwf	sprintf@sp,f
  2271  0FA2                     l3006:	
  2272                           
  2273                           ;C:\Program Files (x86)\Microchip\xc8\v2.10\pic\sources\c90\common\doprnt.c: 1495:   };C
      +                          :\Program Files (x86)\Microchip\xc8\v2.10\pic\sources\c90\common\doprnt.c: 1498:   prec 
      +                          = c;
  2274  0FA2  0833               	movf	sprintf@c,w
  2275  0FA3  00A5               	movwf	??_sprintf
  2276  0FA4  0825               	movf	??_sprintf,w
  2277  0FA5  00A9               	movwf	sprintf@prec
  2278                           
  2279                           ;C:\Program Files (x86)\Microchip\xc8\v2.10\pic\sources\c90\common\doprnt.c: 1500:   whi
      +                          le(prec--) {
  2280  0FA6  2FE0               	goto	l3014
  2281  0FA7                     l3008:	
  2282                           
  2283                           ;C:\Program Files (x86)\Microchip\xc8\v2.10\pic\sources\c90\common\doprnt.c: 1504:    {;
      +                          C:\Program Files (x86)\Microchip\xc8\v2.10\pic\sources\c90\common\doprnt.c: 1515:     c 
      +                          = (val / dpowers[(unsigned char)prec]) % 10 + '0';
  2284  0FA7  300A               	movlw	10
  2285  0FA8  00F8               	movwf	___lwmod@divisor
  2286  0FA9  3000               	movlw	0
  2287  0FAA  00F9               	movwf	___lwmod@divisor+1
  2288  0FAB  0829               	movf	sprintf@prec,w
  2289  0FAC  00A5               	movwf	??_sprintf
  2290  0FAD  0725               	addwf	??_sprintf,w
  2291  0FAE  3E01               	addlw	low ((_dpowers-__stringbase)| (0+32768))
  2292  0FAF  0084               	movwf	4
  2293  0FB0  160A  118A  200A  120A  158A  	fcall	stringdir
  2294  0FB5  00F0               	movwf	___lwdiv@divisor
  2295  0FB6  160A  118A  200A  120A  158A  	fcall	stringdir
  2296  0FBB  00F1               	movwf	___lwdiv@divisor+1
  2297  0FBC  082F               	movf	sprintf@val+1,w
  2298  0FBD  00F3               	movwf	___lwdiv@dividend+1
  2299  0FBE  082E               	movf	sprintf@val,w
  2300  0FBF  00F2               	movwf	___lwdiv@dividend
  2301  0FC0  160A  118A  2662  120A  158A  	fcall	___lwdiv
  2302  0FC5  0871               	movf	?___lwdiv+1,w
  2303  0FC6  00FB               	movwf	___lwmod@dividend+1
  2304  0FC7  0870               	movf	?___lwdiv,w
  2305  0FC8  00FA               	movwf	___lwmod@dividend
  2306  0FC9  160A  118A  2628  120A  158A  	fcall	___lwmod
  2307  0FCE  0878               	movf	?___lwmod,w
  2308  0FCF  3E30               	addlw	48
  2309  0FD0  1283               	bcf	3,5	;RP0=0, select bank0
  2310  0FD1  1303               	bcf	3,6	;RP1=0, select bank0
  2311  0FD2  00A6               	movwf	??_sprintf+1
  2312  0FD3  0826               	movf	??_sprintf+1,w
  2313  0FD4  00B3               	movwf	sprintf@c
  2314  0FD5                     l3010:	
  2315                           
  2316                           ;C:\Program Files (x86)\Microchip\xc8\v2.10\pic\sources\c90\common\doprnt.c: 1549:    };
      +                          C:\Program Files (x86)\Microchip\xc8\v2.10\pic\sources\c90\common\doprnt.c: 1550:    ((*
      +                          sp++ = (c)));
  2317  0FD5  0833               	movf	sprintf@c,w
  2318  0FD6  00A5               	movwf	??_sprintf
  2319  0FD7  0832               	movf	sprintf@sp,w
  2320  0FD8  0084               	movwf	4
  2321  0FD9  0825               	movf	??_sprintf,w
  2322  0FDA  1383               	bcf	3,7	;select IRP bank0
  2323  0FDB  0080               	movwf	0
  2324  0FDC                     l3012:	
  2325  0FDC  3001               	movlw	1
  2326  0FDD  00A5               	movwf	??_sprintf
  2327  0FDE  0825               	movf	??_sprintf,w
  2328  0FDF  07B2               	addwf	sprintf@sp,f
  2329  0FE0                     l3014:	
  2330                           
  2331                           ;C:\Program Files (x86)\Microchip\xc8\v2.10\pic\sources\c90\common\doprnt.c: 1500:   whi
      +                          le(prec--) {
  2332  0FE0  30FF               	movlw	255
  2333  0FE1  00A5               	movwf	??_sprintf
  2334  0FE2  0825               	movf	??_sprintf,w
  2335  0FE3  07A9               	addwf	sprintf@prec,f
  2336  0FE4  0A29               	incf	sprintf@prec,w
  2337  0FE5  1D03               	btfss	3,2
  2338  0FE6  2FE8               	goto	u4191
  2339  0FE7  2FE9               	goto	u4190
  2340  0FE8                     u4191:	
  2341  0FE8  2FA7               	goto	l3008
  2342  0FE9                     u4190:	
  2343  0FE9                     l3016:	
  2344                           
  2345                           ;C:\Program Files (x86)\Microchip\xc8\v2.10\pic\sources\c90\common\doprnt.c: 553:  while
      +                          ((c = *f++)) {
  2346  0FE9  3001               	movlw	1
  2347  0FEA  07A0               	addwf	sprintf@f,f
  2348  0FEB  30FF               	movlw	-1
  2349  0FEC  0720               	addwf	sprintf@f,w
  2350  0FED  0084               	movwf	4
  2351  0FEE  160A  118A  200A  120A  158A  	fcall	stringdir
  2352  0FF3  00A5               	movwf	??_sprintf
  2353  0FF4  0825               	movf	??_sprintf,w
  2354  0FF5  00B3               	movwf	sprintf@c
  2355  0FF6  0833               	movf	sprintf@c,w
  2356  0FF7  1D03               	btfss	3,2
  2357  0FF8  2FFA               	goto	u4201
  2358  0FF9  2FFB               	goto	u4200
  2359  0FFA                     u4201:	
  2360  0FFA  2E16               	goto	l2908
  2361  0FFB                     u4200:	
  2362  0FFB                     l3018:	
  2363                           
  2364                           ;C:\Program Files (x86)\Microchip\xc8\v2.10\pic\sources\c90\common\doprnt.c: 1564:  *sp 
      +                          = 0;
  2365  0FFB  0832               	movf	sprintf@sp,w
  2366  0FFC  0084               	movwf	4
  2367  0FFD  1383               	bcf	3,7	;select IRP bank0
  2368  0FFE  0180               	clrf	0
  2369  0FFF                     l387:	
  2370  0FFF  0008               	return
  2371  1000                     __end_of_sprintf:	
  2372                           
  2373                           	psect	text2
  2374  14E1                     __ptext2:	
  2375 ;; *************** function _isdigit *****************
  2376 ;; Defined at:
  2377 ;;		line 8 in file "C:\Program Files (x86)\Microchip\xc8\v2.10\pic\sources\c90\common\isdigit.c"
  2378 ;; Parameters:    Size  Location     Type
  2379 ;;  c               1    wreg     unsigned char 
  2380 ;; Auto vars:     Size  Location     Type
  2381 ;;  c               1    1[COMMON] unsigned char 
  2382 ;; Return value:  Size  Location     Type
  2383 ;;		None               void
  2384 ;; Registers used:
  2385 ;;		wreg, status,2, status,0
  2386 ;; Tracked objects:
  2387 ;;		On entry : 0/0
  2388 ;;		On exit  : 0/0
  2389 ;;		Unchanged: 0/0
  2390 ;; Data sizes:     COMMON   BANK0   BANK1   BANK3   BANK2
  2391 ;;      Params:         0       0       0       0       0
  2392 ;;      Locals:         2       0       0       0       0
  2393 ;;      Temps:          0       0       0       0       0
  2394 ;;      Totals:         2       0       0       0       0
  2395 ;;Total ram usage:        2 bytes
  2396 ;; Hardware stack levels used:    1
  2397 ;; This function calls:
  2398 ;;		Nothing
  2399 ;; This function is called by:
  2400 ;;		_sprintf
  2401 ;; This function uses a non-reentrant model
  2402 ;;
  2403                           
  2404                           
  2405                           ;psect for function _isdigit
  2406  14E1                     _isdigit:	
  2407                           
  2408                           ;incstack = 0
  2409                           ; Regs used in _isdigit: [wreg+status,2+status,0]
  2410                           ;isdigit@c stored from wreg
  2411  14E1  00F1               	movwf	isdigit@c
  2412  14E2                     l2134:	
  2413  14E2  01F0               	clrf	_isdigit$1033
  2414  14E3                     l2136:	
  2415  14E3  303A               	movlw	58
  2416  14E4  0271               	subwf	isdigit@c,w
  2417  14E5  1803               	skipnc
  2418  14E6  2CE8               	goto	u2301
  2419  14E7  2CE9               	goto	u2300
  2420  14E8                     u2301:	
  2421  14E8  2CF1               	goto	l2142
  2422  14E9                     u2300:	
  2423  14E9                     l2138:	
  2424  14E9  3030               	movlw	48
  2425  14EA  0271               	subwf	isdigit@c,w
  2426  14EB  1C03               	skipc
  2427  14EC  2CEE               	goto	u2311
  2428  14ED  2CEF               	goto	u2310
  2429  14EE                     u2311:	
  2430  14EE  2CF1               	goto	l2142
  2431  14EF                     u2310:	
  2432  14EF                     l2140:	
  2433  14EF  01F0               	clrf	_isdigit$1033
  2434  14F0  0AF0               	incf	_isdigit$1033,f
  2435  14F1                     l2142:	
  2436  14F1  0C70               	rrf	_isdigit$1033,w
  2437  14F2                     l838:	
  2438  14F2  0008               	return
  2439  14F3                     __end_of_isdigit:	
  2440                           
  2441                           	psect	text3
  2442  15DC                     __ptext3:	
  2443 ;; *************** function ___wmul *****************
  2444 ;; Defined at:
  2445 ;;		line 15 in file "C:\Program Files (x86)\Microchip\xc8\v2.10\pic\sources\c90\common\Umul16.c"
  2446 ;; Parameters:    Size  Location     Type
  2447 ;;  multiplier      2    0[COMMON] unsigned int 
  2448 ;;  multiplicand    2    2[COMMON] unsigned int 
  2449 ;; Auto vars:     Size  Location     Type
  2450 ;;  product         2    4[COMMON] unsigned int 
  2451 ;; Return value:  Size  Location     Type
  2452 ;;                  2    0[COMMON] unsigned int 
  2453 ;; Registers used:
  2454 ;;		wreg, status,2, status,0
  2455 ;; Tracked objects:
  2456 ;;		On entry : 0/0
  2457 ;;		On exit  : 0/0
  2458 ;;		Unchanged: 0/0
  2459 ;; Data sizes:     COMMON   BANK0   BANK1   BANK3   BANK2
  2460 ;;      Params:         4       0       0       0       0
  2461 ;;      Locals:         2       0       0       0       0
  2462 ;;      Temps:          0       0       0       0       0
  2463 ;;      Totals:         6       0       0       0       0
  2464 ;;Total ram usage:        6 bytes
  2465 ;; Hardware stack levels used:    1
  2466 ;; This function calls:
  2467 ;;		Nothing
  2468 ;; This function is called by:
  2469 ;;		_sprintf
  2470 ;; This function uses a non-reentrant model
  2471 ;;
  2472                           
  2473                           
  2474                           ;psect for function ___wmul
  2475  15DC                     ___wmul:	
  2476  15DC                     l2146:	
  2477                           ;incstack = 0
  2478                           ; Regs used in ___wmul: [wreg+status,2+status,0]
  2479                           
  2480  15DC  01F4               	clrf	___wmul@product
  2481  15DD  01F5               	clrf	___wmul@product+1
  2482  15DE                     l2148:	
  2483  15DE  1C70               	btfss	___wmul@multiplier,0
  2484  15DF  2DE1               	goto	u2321
  2485  15E0  2DE2               	goto	u2320
  2486  15E1                     u2321:	
  2487  15E1  2DE8               	goto	l391
  2488  15E2                     u2320:	
  2489  15E2                     l2150:	
  2490  15E2  0872               	movf	___wmul@multiplicand,w
  2491  15E3  07F4               	addwf	___wmul@product,f
  2492  15E4  1803               	skipnc
  2493  15E5  0AF5               	incf	___wmul@product+1,f
  2494  15E6  0873               	movf	___wmul@multiplicand+1,w
  2495  15E7  07F5               	addwf	___wmul@product+1,f
  2496  15E8                     l391:	
  2497  15E8  3001               	movlw	1
  2498  15E9                     u2335:	
  2499  15E9  1003               	clrc
  2500  15EA  0DF2               	rlf	___wmul@multiplicand,f
  2501  15EB  0DF3               	rlf	___wmul@multiplicand+1,f
  2502  15EC  3EFF               	addlw	-1
  2503  15ED  1D03               	skipz
  2504  15EE  2DE9               	goto	u2335
  2505  15EF                     l2152:	
  2506  15EF  3001               	movlw	1
  2507  15F0                     u2345:	
  2508  15F0  1003               	clrc
  2509  15F1  0CF1               	rrf	___wmul@multiplier+1,f
  2510  15F2  0CF0               	rrf	___wmul@multiplier,f
  2511  15F3  3EFF               	addlw	-1
  2512  15F4  1D03               	skipz
  2513  15F5  2DF0               	goto	u2345
  2514  15F6                     l2154:	
  2515  15F6  0870               	movf	___wmul@multiplier,w
  2516  15F7  0471               	iorwf	___wmul@multiplier+1,w
  2517  15F8  1D03               	btfss	3,2
  2518  15F9  2DFB               	goto	u2351
  2519  15FA  2DFC               	goto	u2350
  2520  15FB                     u2351:	
  2521  15FB  2DDE               	goto	l2148
  2522  15FC                     u2350:	
  2523  15FC                     l2156:	
  2524  15FC  0875               	movf	___wmul@product+1,w
  2525  15FD  00F1               	movwf	?___wmul+1
  2526  15FE  0874               	movf	___wmul@product,w
  2527  15FF  00F0               	movwf	?___wmul
  2528  1600                     l393:	
  2529  1600  0008               	return
  2530  1601                     __end_of___wmul:	
  2531                           
  2532                           	psect	text4
  2533  1628                     __ptext4:	
  2534 ;; *************** function ___lwmod *****************
  2535 ;; Defined at:
  2536 ;;		line 5 in file "C:\Program Files (x86)\Microchip\xc8\v2.10\pic\sources\c90\common\lwmod.c"
  2537 ;; Parameters:    Size  Location     Type
  2538 ;;  divisor         2    8[COMMON] unsigned int 
  2539 ;;  dividend        2   10[COMMON] unsigned int 
  2540 ;; Auto vars:     Size  Location     Type
  2541 ;;  counter         1   13[COMMON] unsigned char 
  2542 ;; Return value:  Size  Location     Type
  2543 ;;                  2    8[COMMON] unsigned int 
  2544 ;; Registers used:
  2545 ;;		wreg, status,2, status,0
  2546 ;; Tracked objects:
  2547 ;;		On entry : 0/0
  2548 ;;		On exit  : 0/0
  2549 ;;		Unchanged: 0/0
  2550 ;; Data sizes:     COMMON   BANK0   BANK1   BANK3   BANK2
  2551 ;;      Params:         4       0       0       0       0
  2552 ;;      Locals:         1       0       0       0       0
  2553 ;;      Temps:          1       0       0       0       0
  2554 ;;      Totals:         6       0       0       0       0
  2555 ;;Total ram usage:        6 bytes
  2556 ;; Hardware stack levels used:    1
  2557 ;; This function calls:
  2558 ;;		Nothing
  2559 ;; This function is called by:
  2560 ;;		_sprintf
  2561 ;; This function uses a non-reentrant model
  2562 ;;
  2563                           
  2564                           
  2565                           ;psect for function ___lwmod
  2566  1628                     ___lwmod:	
  2567  1628                     l2246:	
  2568                           ;incstack = 0
  2569                           ; Regs used in ___lwmod: [wreg+status,2+status,0]
  2570                           
  2571  1628  0878               	movf	___lwmod@divisor,w
  2572  1629  0479               	iorwf	___lwmod@divisor+1,w
  2573  162A  1903               	btfsc	3,2
  2574  162B  2E2D               	goto	u2601
  2575  162C  2E2E               	goto	u2600
  2576  162D                     u2601:	
  2577  162D  2E5D               	goto	l2264
  2578  162E                     u2600:	
  2579  162E                     l2248:	
  2580  162E  01FD               	clrf	___lwmod@counter
  2581  162F  0AFD               	incf	___lwmod@counter,f
  2582  1630  2E3C               	goto	l2254
  2583  1631                     l2250:	
  2584  1631  3001               	movlw	1
  2585  1632                     u2615:	
  2586  1632  1003               	clrc
  2587  1633  0DF8               	rlf	___lwmod@divisor,f
  2588  1634  0DF9               	rlf	___lwmod@divisor+1,f
  2589  1635  3EFF               	addlw	-1
  2590  1636  1D03               	skipz
  2591  1637  2E32               	goto	u2615
  2592  1638                     l2252:	
  2593  1638  3001               	movlw	1
  2594  1639  00FC               	movwf	??___lwmod
  2595  163A  087C               	movf	??___lwmod,w
  2596  163B  07FD               	addwf	___lwmod@counter,f
  2597  163C                     l2254:	
  2598  163C  1FF9               	btfss	___lwmod@divisor+1,7
  2599  163D  2E3F               	goto	u2621
  2600  163E  2E40               	goto	u2620
  2601  163F                     u2621:	
  2602  163F  2E31               	goto	l2250
  2603  1640                     u2620:	
  2604  1640                     l2256:	
  2605  1640  0879               	movf	___lwmod@divisor+1,w
  2606  1641  027B               	subwf	___lwmod@dividend+1,w
  2607  1642  1D03               	skipz
  2608  1643  2E46               	goto	u2635
  2609  1644  0878               	movf	___lwmod@divisor,w
  2610  1645  027A               	subwf	___lwmod@dividend,w
  2611  1646                     u2635:	
  2612  1646  1C03               	skipc
  2613  1647  2E49               	goto	u2631
  2614  1648  2E4A               	goto	u2630
  2615  1649                     u2631:	
  2616  1649  2E50               	goto	l2260
  2617  164A                     u2630:	
  2618  164A                     l2258:	
  2619  164A  0878               	movf	___lwmod@divisor,w
  2620  164B  02FA               	subwf	___lwmod@dividend,f
  2621  164C  0879               	movf	___lwmod@divisor+1,w
  2622  164D  1C03               	skipc
  2623  164E  03FB               	decf	___lwmod@dividend+1,f
  2624  164F  02FB               	subwf	___lwmod@dividend+1,f
  2625  1650                     l2260:	
  2626  1650  3001               	movlw	1
  2627  1651                     u2645:	
  2628  1651  1003               	clrc
  2629  1652  0CF9               	rrf	___lwmod@divisor+1,f
  2630  1653  0CF8               	rrf	___lwmod@divisor,f
  2631  1654  3EFF               	addlw	-1
  2632  1655  1D03               	skipz
  2633  1656  2E51               	goto	u2645
  2634  1657                     l2262:	
  2635  1657  3001               	movlw	1
  2636  1658  02FD               	subwf	___lwmod@counter,f
  2637  1659  1D03               	btfss	3,2
  2638  165A  2E5C               	goto	u2651
  2639  165B  2E5D               	goto	u2650
  2640  165C                     u2651:	
  2641  165C  2E40               	goto	l2256
  2642  165D                     u2650:	
  2643  165D                     l2264:	
  2644  165D  087B               	movf	___lwmod@dividend+1,w
  2645  165E  00F9               	movwf	?___lwmod+1
  2646  165F  087A               	movf	___lwmod@dividend,w
  2647  1660  00F8               	movwf	?___lwmod
  2648  1661                     l673:	
  2649  1661  0008               	return
  2650  1662                     __end_of___lwmod:	
  2651                           
  2652                           	psect	text5
  2653  1662                     __ptext5:	
  2654 ;; *************** function ___lwdiv *****************
  2655 ;; Defined at:
  2656 ;;		line 5 in file "C:\Program Files (x86)\Microchip\xc8\v2.10\pic\sources\c90\common\lwdiv.c"
  2657 ;; Parameters:    Size  Location     Type
  2658 ;;  divisor         2    0[COMMON] unsigned int 
  2659 ;;  dividend        2    2[COMMON] unsigned int 
  2660 ;; Auto vars:     Size  Location     Type
  2661 ;;  quotient        2    5[COMMON] unsigned int 
  2662 ;;  counter         1    7[COMMON] unsigned char 
  2663 ;; Return value:  Size  Location     Type
  2664 ;;                  2    0[COMMON] unsigned int 
  2665 ;; Registers used:
  2666 ;;		wreg, status,2, status,0
  2667 ;; Tracked objects:
  2668 ;;		On entry : 0/0
  2669 ;;		On exit  : 0/0
  2670 ;;		Unchanged: 0/0
  2671 ;; Data sizes:     COMMON   BANK0   BANK1   BANK3   BANK2
  2672 ;;      Params:         4       0       0       0       0
  2673 ;;      Locals:         3       0       0       0       0
  2674 ;;      Temps:          1       0       0       0       0
  2675 ;;      Totals:         8       0       0       0       0
  2676 ;;Total ram usage:        8 bytes
  2677 ;; Hardware stack levels used:    1
  2678 ;; This function calls:
  2679 ;;		Nothing
  2680 ;; This function is called by:
  2681 ;;		_sprintf
  2682 ;; This function uses a non-reentrant model
  2683 ;;
  2684                           
  2685                           
  2686                           ;psect for function ___lwdiv
  2687  1662                     ___lwdiv:	
  2688  1662                     l2220:	
  2689                           ;incstack = 0
  2690                           ; Regs used in ___lwdiv: [wreg+status,2+status,0]
  2691                           
  2692  1662  01F5               	clrf	___lwdiv@quotient
  2693  1663  01F6               	clrf	___lwdiv@quotient+1
  2694  1664                     l2222:	
  2695  1664  0870               	movf	___lwdiv@divisor,w
  2696  1665  0471               	iorwf	___lwdiv@divisor+1,w
  2697  1666  1903               	btfsc	3,2
  2698  1667  2E69               	goto	u2531
  2699  1668  2E6A               	goto	u2530
  2700  1669                     u2531:	
  2701  1669  2EA1               	goto	l2242
  2702  166A                     u2530:	
  2703  166A                     l2224:	
  2704  166A  01F7               	clrf	___lwdiv@counter
  2705  166B  0AF7               	incf	___lwdiv@counter,f
  2706  166C  2E78               	goto	l2230
  2707  166D                     l2226:	
  2708  166D  3001               	movlw	1
  2709  166E                     u2545:	
  2710  166E  1003               	clrc
  2711  166F  0DF0               	rlf	___lwdiv@divisor,f
  2712  1670  0DF1               	rlf	___lwdiv@divisor+1,f
  2713  1671  3EFF               	addlw	-1
  2714  1672  1D03               	skipz
  2715  1673  2E6E               	goto	u2545
  2716  1674                     l2228:	
  2717  1674  3001               	movlw	1
  2718  1675  00F4               	movwf	??___lwdiv
  2719  1676  0874               	movf	??___lwdiv,w
  2720  1677  07F7               	addwf	___lwdiv@counter,f
  2721  1678                     l2230:	
  2722  1678  1FF1               	btfss	___lwdiv@divisor+1,7
  2723  1679  2E7B               	goto	u2551
  2724  167A  2E7C               	goto	u2550
  2725  167B                     u2551:	
  2726  167B  2E6D               	goto	l2226
  2727  167C                     u2550:	
  2728  167C                     l2232:	
  2729  167C  3001               	movlw	1
  2730  167D                     u2565:	
  2731  167D  1003               	clrc
  2732  167E  0DF5               	rlf	___lwdiv@quotient,f
  2733  167F  0DF6               	rlf	___lwdiv@quotient+1,f
  2734  1680  3EFF               	addlw	-1
  2735  1681  1D03               	skipz
  2736  1682  2E7D               	goto	u2565
  2737  1683  0871               	movf	___lwdiv@divisor+1,w
  2738  1684  0273               	subwf	___lwdiv@dividend+1,w
  2739  1685  1D03               	skipz
  2740  1686  2E89               	goto	u2575
  2741  1687  0870               	movf	___lwdiv@divisor,w
  2742  1688  0272               	subwf	___lwdiv@dividend,w
  2743  1689                     u2575:	
  2744  1689  1C03               	skipc
  2745  168A  2E8C               	goto	u2571
  2746  168B  2E8D               	goto	u2570
  2747  168C                     u2571:	
  2748  168C  2E94               	goto	l2238
  2749  168D                     u2570:	
  2750  168D                     l2234:	
  2751  168D  0870               	movf	___lwdiv@divisor,w
  2752  168E  02F2               	subwf	___lwdiv@dividend,f
  2753  168F  0871               	movf	___lwdiv@divisor+1,w
  2754  1690  1C03               	skipc
  2755  1691  03F3               	decf	___lwdiv@dividend+1,f
  2756  1692  02F3               	subwf	___lwdiv@dividend+1,f
  2757  1693                     l2236:	
  2758  1693  1475               	bsf	___lwdiv@quotient,0
  2759  1694                     l2238:	
  2760  1694  3001               	movlw	1
  2761  1695                     u2585:	
  2762  1695  1003               	clrc
  2763  1696  0CF1               	rrf	___lwdiv@divisor+1,f
  2764  1697  0CF0               	rrf	___lwdiv@divisor,f
  2765  1698  3EFF               	addlw	-1
  2766  1699  1D03               	skipz
  2767  169A  2E95               	goto	u2585
  2768  169B                     l2240:	
  2769  169B  3001               	movlw	1
  2770  169C  02F7               	subwf	___lwdiv@counter,f
  2771  169D  1D03               	btfss	3,2
  2772  169E  2EA0               	goto	u2591
  2773  169F  2EA1               	goto	u2590
  2774  16A0                     u2591:	
  2775  16A0  2E7C               	goto	l2232
  2776  16A1                     u2590:	
  2777  16A1                     l2242:	
  2778  16A1  0876               	movf	___lwdiv@quotient+1,w
  2779  16A2  00F1               	movwf	?___lwdiv+1
  2780  16A3  0875               	movf	___lwdiv@quotient,w
  2781  16A4  00F0               	movwf	?___lwdiv
  2782  16A5                     l663:	
  2783  16A5  0008               	return
  2784  16A6                     __end_of___lwdiv:	
  2785                           
  2786                           	psect	text6
  2787  149D                     __ptext6:	
  2788 ;; *************** function _Initial_Configurations *****************
  2789 ;; Defined at:
  2790 ;;		line 13 in file "configurations.c"
  2791 ;; Parameters:    Size  Location     Type
  2792 ;;		None
  2793 ;; Auto vars:     Size  Location     Type
  2794 ;;		None
  2795 ;; Return value:  Size  Location     Type
  2796 ;;                  1    wreg      void 
  2797 ;; Registers used:
  2798 ;;		wreg, status,2
  2799 ;; Tracked objects:
  2800 ;;		On entry : 0/0
  2801 ;;		On exit  : 0/0
  2802 ;;		Unchanged: 0/0
  2803 ;; Data sizes:     COMMON   BANK0   BANK1   BANK3   BANK2
  2804 ;;      Params:         0       0       0       0       0
  2805 ;;      Locals:         0       0       0       0       0
  2806 ;;      Temps:          0       0       0       0       0
  2807 ;;      Totals:         0       0       0       0       0
  2808 ;;Total ram usage:        0 bytes
  2809 ;; Hardware stack levels used:    1
  2810 ;; This function calls:
  2811 ;;		Nothing
  2812 ;; This function is called by:
  2813 ;;		_main
  2814 ;; This function uses a non-reentrant model
  2815 ;;
  2816                           
  2817                           
  2818                           ;psect for function _Initial_Configurations
  2819  149D                     _Initial_Configurations:	
  2820  149D                     l2800:	
  2821                           ;incstack = 0
  2822                           ; Regs used in _Initial_Configurations: [wreg+status,2]
  2823                           
  2824                           
  2825                           ;configurations.c: 19:                 INTCONbits.PEIE = 0;
  2826  149D  130B               	bcf	11,6	;volatile
  2827                           
  2828                           ;configurations.c: 20:                 INTCONbits.GIE = 0;
  2829  149E  138B               	bcf	11,7	;volatile
  2830  149F                     l2802:	
  2831                           
  2832                           ;configurations.c: 35:                 TRISB = 0xFF;
  2833  149F  30FF               	movlw	255
  2834  14A0  1683               	bsf	3,5	;RP0=1, select bank1
  2835  14A1  1303               	bcf	3,6	;RP1=0, select bank1
  2836  14A2  0086               	movwf	6	;volatile
  2837  14A3                     l2804:	
  2838                           
  2839                           ;configurations.c: 36:                 PORTB = 0x00;
  2840  14A3  1283               	bcf	3,5	;RP0=0, select bank0
  2841  14A4  1303               	bcf	3,6	;RP1=0, select bank0
  2842  14A5  0186               	clrf	6	;volatile
  2843  14A6                     l89:	
  2844  14A6  0008               	return
  2845  14A7                     __end_of_Initial_Configurations:	
  2846                           
  2847                           	psect	text7
  2848  0B6C                     __ptext7:	
  2849 ;; *************** function _I2C_SHT25_Temperature_Read *****************
  2850 ;; Defined at:
  2851 ;;		line 26 in file "SHT25_RH_And_T_SENSOR_v1.0.c"
  2852 ;; Parameters:    Size  Location     Type
  2853 ;;		None
  2854 ;; Auto vars:     Size  Location     Type
  2855 ;;  Measurement_    4   12[BANK1 ] unsigned int [2]
  2856 ;; Return value:  Size  Location     Type
  2857 ;;                  2   78[BANK0 ] unsigned int 
  2858 ;; Registers used:
  2859 ;;		wreg, status,2, status,0, btemp+1, pclath, cstack
  2860 ;; Tracked objects:
  2861 ;;		On entry : 0/0
  2862 ;;		On exit  : 0/0
  2863 ;;		Unchanged: 0/0
  2864 ;; Data sizes:     COMMON   BANK0   BANK1   BANK3   BANK2
  2865 ;;      Params:         0       2       0       0       0
  2866 ;;      Locals:         0       0       8       0       0
  2867 ;;      Temps:          0       0       3       0       0
  2868 ;;      Totals:         0       2      11       0       0
  2869 ;;Total ram usage:       13 bytes
  2870 ;; Hardware stack levels used:    1
  2871 ;; Hardware stack levels required when called:    2
  2872 ;; This function calls:
  2873 ;;		_I2C_Master_Read
  2874 ;;		_I2C_Master_Send_ACK
  2875 ;;		_I2C_Master_Send_NACK
  2876 ;;		_I2C_Master_Start
  2877 ;;		_I2C_Master_Stop
  2878 ;;		_I2C_Master_Write
  2879 ;;		___fladd
  2880 ;;		___fldiv
  2881 ;;		___flmul
  2882 ;;		___fltol
  2883 ;;		___xxtofl
  2884 ;; This function is called by:
  2885 ;;		_main
  2886 ;; This function uses a non-reentrant model
  2887 ;;
  2888                           
  2889                           
  2890                           ;psect for function _I2C_SHT25_Temperature_Read
  2891  0B6C                     _I2C_SHT25_Temperature_Read:	
  2892  0B6C                     l2854:	
  2893                           ;incstack = 0
  2894                           ; Regs used in _I2C_SHT25_Temperature_Read: [wreg+status,2+status,0+btemp+1+pclath+cstac
      +                          k]
  2895                           
  2896                           
  2897                           ;SHT25_RH_And_T_SENSOR_v1.0.c: 27:         unsigned int Measurement_Buffer[2];;SHT25_RH_
      +                          And_T_SENSOR_v1.0.c: 28:         I2C_Master_Start();
  2898  0B6C  160A  118A  24A7  120A  158A  	fcall	_I2C_Master_Start
  2899  0B71                     l2856:	
  2900                           ;SHT25_RH_And_T_SENSOR_v1.0.c: 29:         while(I2C_Master_Write(0x40<<1));
  2901                           
  2902  0B71  3080               	movlw	128
  2903  0B72  160A  118A  24F3  120A  158A  	fcall	_I2C_Master_Write
  2904  0B77  3A00               	xorlw	0
  2905  0B78  1D03               	skipz
  2906  0B79  2B7B               	goto	u3971
  2907  0B7A  2B7C               	goto	u3970
  2908  0B7B                     u3971:	
  2909  0B7B  2B71               	goto	l2856
  2910  0B7C                     u3970:	
  2911  0B7C                     l2858:	
  2912  0B7C  30F3               	movlw	243
  2913  0B7D  160A  118A  24F3  120A  158A  	fcall	_I2C_Master_Write
  2914  0B82  3A00               	xorlw	0
  2915  0B83  1D03               	skipz
  2916  0B84  2B86               	goto	u3981
  2917  0B85  2B87               	goto	u3980
  2918  0B86                     u3981:	
  2919  0B86  2B7C               	goto	l2858
  2920  0B87                     u3980:	
  2921  0B87                     l2860:	
  2922                           
  2923                           ;SHT25_RH_And_T_SENSOR_v1.0.c: 31:         I2C_Master_Stop();
  2924  0B87  160A  118A  24B5  120A  158A  	fcall	_I2C_Master_Stop
  2925  0B8C                     l2862:	
  2926                           
  2927                           ;SHT25_RH_And_T_SENSOR_v1.0.c: 32:         _delay((unsigned long)((100)*(20000000UL/4000
      +                          .0)));
  2928  0B8C  3003               	movlw	3
  2929  0B8D  1683               	bsf	3,5	;RP0=1, select bank1
  2930  0B8E  1303               	bcf	3,6	;RP1=0, select bank1
  2931  0B8F  00D4               	movwf	(??_I2C_SHT25_Temperature_Read^(0+128)+2)
  2932  0B90  308A               	movlw	138
  2933  0B91  00D3               	movwf	(??_I2C_SHT25_Temperature_Read^(0+128)+1)
  2934  0B92  3055               	movlw	85
  2935  0B93  00D2               	movwf	??_I2C_SHT25_Temperature_Read^(0+128)
  2936  0B94                     u4237:	
  2937  0B94  0BD2               	decfsz	??_I2C_SHT25_Temperature_Read^(0+128),f
  2938  0B95  2B94               	goto	u4237
  2939  0B96  0BD3               	decfsz	(??_I2C_SHT25_Temperature_Read^(0+128)+1),f
  2940  0B97  2B94               	goto	u4237
  2941  0B98  0BD4               	decfsz	(??_I2C_SHT25_Temperature_Read^(0+128)+2),f
  2942  0B99  2B94               	goto	u4237
  2943  0B9A                     l2864:	
  2944                           
  2945                           ;SHT25_RH_And_T_SENSOR_v1.0.c: 33:         I2C_Master_Start();
  2946  0B9A  160A  118A  24A7  120A  158A  	fcall	_I2C_Master_Start
  2947  0B9F                     l2866:	
  2948                           ;SHT25_RH_And_T_SENSOR_v1.0.c: 34:         while(I2C_Master_Write((0x40<<1)|0x01));
  2949                           
  2950  0B9F  3081               	movlw	129
  2951  0BA0  160A  118A  24F3  120A  158A  	fcall	_I2C_Master_Write
  2952  0BA5  3A00               	xorlw	0
  2953  0BA6  1D03               	skipz
  2954  0BA7  2BA9               	goto	u3991
  2955  0BA8  2BAA               	goto	u3990
  2956  0BA9                     u3991:	
  2957  0BA9  2B9F               	goto	l2866
  2958  0BAA                     u3990:	
  2959  0BAA                     l2868:	
  2960                           
  2961                           ;SHT25_RH_And_T_SENSOR_v1.0.c: 35:         Measurement_Buffer[0] = I2C_Master_Read();
  2962  0BAA  160A  118A  25A1  120A  158A  	fcall	_I2C_Master_Read
  2963  0BAF  1683               	bsf	3,5	;RP0=1, select bank1
  2964  0BB0  1303               	bcf	3,6	;RP1=0, select bank1
  2965  0BB1  00D2               	movwf	??_I2C_SHT25_Temperature_Read^(0+128)
  2966  0BB2  01D3               	clrf	(??_I2C_SHT25_Temperature_Read^(0+128)+1)
  2967  0BB3  0852               	movf	??_I2C_SHT25_Temperature_Read^(0+128),w
  2968  0BB4  00D9               	movwf	I2C_SHT25_Temperature_Read@Measurement_Buffer^(0+128)
  2969  0BB5  0853               	movf	(??_I2C_SHT25_Temperature_Read+1)^(0+128),w
  2970  0BB6  00DA               	movwf	(I2C_SHT25_Temperature_Read@Measurement_Buffer+1)^(0+128)
  2971  0BB7                     l2870:	
  2972                           
  2973                           ;SHT25_RH_And_T_SENSOR_v1.0.c: 36:         I2C_Master_Send_ACK();
  2974  0BB7  160A  118A  24C3  120A  158A  	fcall	_I2C_Master_Send_ACK
  2975  0BBC                     l2872:	
  2976                           
  2977                           ;SHT25_RH_And_T_SENSOR_v1.0.c: 37:         Measurement_Buffer[1] = I2C_Master_Read();
  2978  0BBC  160A  118A  25A1  120A  158A  	fcall	_I2C_Master_Read
  2979  0BC1  1683               	bsf	3,5	;RP0=1, select bank1
  2980  0BC2  1303               	bcf	3,6	;RP1=0, select bank1
  2981  0BC3  00D2               	movwf	??_I2C_SHT25_Temperature_Read^(0+128)
  2982  0BC4  01D3               	clrf	(??_I2C_SHT25_Temperature_Read^(0+128)+1)
  2983  0BC5  0852               	movf	??_I2C_SHT25_Temperature_Read^(0+128),w
  2984  0BC6  00DB               	movwf	(I2C_SHT25_Temperature_Read@Measurement_Buffer^(0+128)+2)
  2985  0BC7  0853               	movf	(??_I2C_SHT25_Temperature_Read+1)^(0+128),w
  2986  0BC8  00DC               	movwf	((I2C_SHT25_Temperature_Read@Measurement_Buffer+1)^(0+128)+2)
  2987                           
  2988                           ;SHT25_RH_And_T_SENSOR_v1.0.c: 38:         I2C_Master_Send_NACK();
  2989  0BC9  160A  118A  24D2  120A  158A  	fcall	_I2C_Master_Send_NACK
  2990                           
  2991                           ;SHT25_RH_And_T_SENSOR_v1.0.c: 39:         I2C_Master_Stop();
  2992  0BCE  160A  118A  24B5  120A  158A  	fcall	_I2C_Master_Stop
  2993  0BD3                     l2874:	
  2994                           
  2995                           ;SHT25_RH_And_T_SENSOR_v1.0.c: 40:         return ((((Measurement_Buffer[0] * 256.0) + M
      +                          easurement_Buffer[1]) * 175.72) / 65536.0) - 45.85;
  2996  0BD3  1683               	bsf	3,5	;RP0=1, select bank1
  2997  0BD4  1303               	bcf	3,6	;RP1=0, select bank1
  2998  0BD5  0859               	movf	I2C_SHT25_Temperature_Read@Measurement_Buffer^(0+128),w
  2999  0BD6  00F0               	movwf	___xxtofl@val
  3000  0BD7  085A               	movf	(I2C_SHT25_Temperature_Read@Measurement_Buffer+1)^(0+128),w
  3001  0BD8  00F1               	movwf	___xxtofl@val+1
  3002  0BD9  01F2               	clrf	___xxtofl@val+2
  3003  0BDA  01F3               	clrf	___xxtofl@val+3
  3004  0BDB  3000               	movlw	0
  3005  0BDC  120A  158A  2183  120A  158A  	fcall	___xxtofl
  3006  0BE1  0873               	movf	?___xxtofl+3,w
  3007  0BE2  1283               	bcf	3,5	;RP0=0, select bank0
  3008  0BE3  1303               	bcf	3,6	;RP1=0, select bank0
  3009  0BE4  00A7               	movwf	___flmul@a+3
  3010  0BE5  0872               	movf	?___xxtofl+2,w
  3011  0BE6  00A6               	movwf	___flmul@a+2
  3012  0BE7  0871               	movf	?___xxtofl+1,w
  3013  0BE8  00A5               	movwf	___flmul@a+1
  3014  0BE9  0870               	movf	?___xxtofl,w
  3015  0BEA  00A4               	movwf	___flmul@a
  3016  0BEB  3043               	movlw	67
  3017  0BEC  00A3               	movwf	___flmul@b+3
  3018  0BED  3080               	movlw	128
  3019  0BEE  00A2               	movwf	___flmul@b+2
  3020  0BEF  3000               	movlw	0
  3021  0BF0  00A1               	movwf	___flmul@b+1
  3022  0BF1  3000               	movlw	0
  3023  0BF2  00A0               	movwf	___flmul@b
  3024  0BF3  120A  118A  2478  120A  158A  	fcall	___flmul
  3025  0BF8  1283               	bcf	3,5	;RP0=0, select bank0
  3026  0BF9  1303               	bcf	3,6	;RP1=0, select bank0
  3027  0BFA  0823               	movf	?___flmul+3,w
  3028  0BFB  00C1               	movwf	___fladd@a+3
  3029  0BFC  0822               	movf	?___flmul+2,w
  3030  0BFD  00C0               	movwf	___fladd@a+2
  3031  0BFE  0821               	movf	?___flmul+1,w
  3032  0BFF  00BF               	movwf	___fladd@a+1
  3033  0C00  0820               	movf	?___flmul,w
  3034  0C01  00BE               	movwf	___fladd@a
  3035  0C02  1683               	bsf	3,5	;RP0=1, select bank1
  3036  0C03  1303               	bcf	3,6	;RP1=0, select bank1
  3037  0C04  085B               	movf	(I2C_SHT25_Temperature_Read@Measurement_Buffer^(0+128)+2),w
  3038  0C05  00F0               	movwf	___xxtofl@val
  3039  0C06  085C               	movf	((I2C_SHT25_Temperature_Read@Measurement_Buffer+1)^(0+128)+2),w
  3040  0C07  00F1               	movwf	___xxtofl@val+1
  3041  0C08  01F2               	clrf	___xxtofl@val+2
  3042  0C09  01F3               	clrf	___xxtofl@val+3
  3043  0C0A  3000               	movlw	0
  3044  0C0B  120A  158A  2183  120A  158A  	fcall	___xxtofl
  3045  0C10  0873               	movf	?___xxtofl+3,w
  3046  0C11  1283               	bcf	3,5	;RP0=0, select bank0
  3047  0C12  1303               	bcf	3,6	;RP1=0, select bank0
  3048  0C13  00BD               	movwf	___fladd@b+3
  3049  0C14  0872               	movf	?___xxtofl+2,w
  3050  0C15  00BC               	movwf	___fladd@b+2
  3051  0C16  0871               	movf	?___xxtofl+1,w
  3052  0C17  00BB               	movwf	___fladd@b+1
  3053  0C18  0870               	movf	?___xxtofl,w
  3054  0C19  00BA               	movwf	___fladd@b
  3055  0C1A  120A  118A  21F0  120A  158A  	fcall	___fladd
  3056  0C1F  1283               	bcf	3,5	;RP0=0, select bank0
  3057  0C20  1303               	bcf	3,6	;RP1=0, select bank0
  3058  0C21  083D               	movf	?___fladd+3,w
  3059  0C22  1683               	bsf	3,5	;RP0=1, select bank1
  3060  0C23  1303               	bcf	3,6	;RP1=0, select bank1
  3061  0C24  00D8               	movwf	(_I2C_SHT25_Temperature_Read$1251+3)^(0+128)
  3062  0C25  1283               	bcf	3,5	;RP0=0, select bank0
  3063  0C26  1303               	bcf	3,6	;RP1=0, select bank0
  3064  0C27  083C               	movf	?___fladd+2,w
  3065  0C28  1683               	bsf	3,5	;RP0=1, select bank1
  3066  0C29  1303               	bcf	3,6	;RP1=0, select bank1
  3067  0C2A  00D7               	movwf	(_I2C_SHT25_Temperature_Read$1251+2)^(0+128)
  3068  0C2B  1283               	bcf	3,5	;RP0=0, select bank0
  3069  0C2C  1303               	bcf	3,6	;RP1=0, select bank0
  3070  0C2D  083B               	movf	?___fladd+1,w
  3071  0C2E  1683               	bsf	3,5	;RP0=1, select bank1
  3072  0C2F  1303               	bcf	3,6	;RP1=0, select bank1
  3073  0C30  00D6               	movwf	(_I2C_SHT25_Temperature_Read$1251+1)^(0+128)
  3074  0C31  1283               	bcf	3,5	;RP0=0, select bank0
  3075  0C32  1303               	bcf	3,6	;RP1=0, select bank0
  3076  0C33  083A               	movf	?___fladd,w
  3077  0C34  1683               	bsf	3,5	;RP0=1, select bank1
  3078  0C35  1303               	bcf	3,6	;RP1=0, select bank1
  3079  0C36  00D5               	movwf	_I2C_SHT25_Temperature_Read$1251^(0+128)
  3080  0C37                     l2876:	
  3081                           
  3082                           ;SHT25_RH_And_T_SENSOR_v1.0.c: 40:         return ((((Measurement_Buffer[0] * 256.0) + M
      +                          easurement_Buffer[1]) * 175.72) / 65536.0) - 45.85;
  3083  0C37  0858               	movf	(_I2C_SHT25_Temperature_Read$1251+3)^(0+128),w
  3084  0C38  1283               	bcf	3,5	;RP0=0, select bank0
  3085  0C39  1303               	bcf	3,6	;RP1=0, select bank0
  3086  0C3A  00A7               	movwf	___flmul@a+3
  3087  0C3B  1683               	bsf	3,5	;RP0=1, select bank1
  3088  0C3C  1303               	bcf	3,6	;RP1=0, select bank1
  3089  0C3D  0857               	movf	(_I2C_SHT25_Temperature_Read$1251+2)^(0+128),w
  3090  0C3E  1283               	bcf	3,5	;RP0=0, select bank0
  3091  0C3F  1303               	bcf	3,6	;RP1=0, select bank0
  3092  0C40  00A6               	movwf	___flmul@a+2
  3093  0C41  1683               	bsf	3,5	;RP0=1, select bank1
  3094  0C42  1303               	bcf	3,6	;RP1=0, select bank1
  3095  0C43  0856               	movf	(_I2C_SHT25_Temperature_Read$1251+1)^(0+128),w
  3096  0C44  1283               	bcf	3,5	;RP0=0, select bank0
  3097  0C45  1303               	bcf	3,6	;RP1=0, select bank0
  3098  0C46  00A5               	movwf	___flmul@a+1
  3099  0C47  1683               	bsf	3,5	;RP0=1, select bank1
  3100  0C48  1303               	bcf	3,6	;RP1=0, select bank1
  3101  0C49  0855               	movf	_I2C_SHT25_Temperature_Read$1251^(0+128),w
  3102  0C4A  1283               	bcf	3,5	;RP0=0, select bank0
  3103  0C4B  1303               	bcf	3,6	;RP1=0, select bank0
  3104  0C4C  00A4               	movwf	___flmul@a
  3105  0C4D  3043               	movlw	67
  3106  0C4E  00A3               	movwf	___flmul@b+3
  3107  0C4F  302F               	movlw	47
  3108  0C50  00A2               	movwf	___flmul@b+2
  3109  0C51  30B8               	movlw	184
  3110  0C52  00A1               	movwf	___flmul@b+1
  3111  0C53  3052               	movlw	82
  3112  0C54  00A0               	movwf	___flmul@b
  3113  0C55  120A  118A  2478  120A  158A  	fcall	___flmul
  3114  0C5A  1283               	bcf	3,5	;RP0=0, select bank0
  3115  0C5B  1303               	bcf	3,6	;RP1=0, select bank0
  3116  0C5C  0823               	movf	?___flmul+3,w
  3117  0C5D  00D5               	movwf	___fldiv@b+3
  3118  0C5E  0822               	movf	?___flmul+2,w
  3119  0C5F  00D4               	movwf	___fldiv@b+2
  3120  0C60  0821               	movf	?___flmul+1,w
  3121  0C61  00D3               	movwf	___fldiv@b+1
  3122  0C62  0820               	movf	?___flmul,w
  3123  0C63  00D2               	movwf	___fldiv@b
  3124  0C64  3047               	movlw	71
  3125  0C65  00D1               	movwf	___fldiv@a+3
  3126  0C66  3080               	movlw	128
  3127  0C67  00D0               	movwf	___fldiv@a+2
  3128  0C68  3000               	movlw	0
  3129  0C69  00CF               	movwf	___fldiv@a+1
  3130  0C6A  3000               	movlw	0
  3131  0C6B  00CE               	movwf	___fldiv@a
  3132  0C6C  120A  118A  2013  120A  158A  	fcall	___fldiv
  3133  0C71  1283               	bcf	3,5	;RP0=0, select bank0
  3134  0C72  1303               	bcf	3,6	;RP1=0, select bank0
  3135  0C73  0851               	movf	?___fldiv+3,w
  3136  0C74  00C1               	movwf	___fladd@a+3
  3137  0C75  0850               	movf	?___fldiv+2,w
  3138  0C76  00C0               	movwf	___fladd@a+2
  3139  0C77  084F               	movf	?___fldiv+1,w
  3140  0C78  00BF               	movwf	___fladd@a+1
  3141  0C79  084E               	movf	?___fldiv,w
  3142  0C7A  00BE               	movwf	___fladd@a
  3143  0C7B  30C2               	movlw	194
  3144  0C7C  00BD               	movwf	___fladd@b+3
  3145  0C7D  3037               	movlw	55
  3146  0C7E  00BC               	movwf	___fladd@b+2
  3147  0C7F  3066               	movlw	102
  3148  0C80  00BB               	movwf	___fladd@b+1
  3149  0C81  3066               	movlw	102
  3150  0C82  00BA               	movwf	___fladd@b
  3151  0C83  120A  118A  21F0  120A  158A  	fcall	___fladd
  3152  0C88  1283               	bcf	3,5	;RP0=0, select bank0
  3153  0C89  1303               	bcf	3,6	;RP1=0, select bank0
  3154  0C8A  083D               	movf	?___fladd+3,w
  3155  0C8B  00EB               	movwf	___fltol@f1+3
  3156  0C8C  083C               	movf	?___fladd+2,w
  3157  0C8D  00EA               	movwf	___fltol@f1+2
  3158  0C8E  083B               	movf	?___fladd+1,w
  3159  0C8F  00E9               	movwf	___fltol@f1+1
  3160  0C90  083A               	movf	?___fladd,w
  3161  0C91  00E8               	movwf	___fltol@f1
  3162  0C92  120A  158A  20E7  120A  158A  	fcall	___fltol
  3163  0C97  1283               	bcf	3,5	;RP0=0, select bank0
  3164  0C98  1303               	bcf	3,6	;RP1=0, select bank0
  3165  0C99  0869               	movf	?___fltol+1,w
  3166  0C9A  00EF               	movwf	?_I2C_SHT25_Temperature_Read+1
  3167  0C9B  0868               	movf	?___fltol,w
  3168  0C9C  00EE               	movwf	?_I2C_SHT25_Temperature_Read
  3169  0C9D                     l159:	
  3170  0C9D  0008               	return
  3171  0C9E                     __end_of_I2C_SHT25_Temperature_Read:	
  3172                           
  3173                           	psect	text8
  3174  0A3D                     __ptext8:	
  3175 ;; *************** function _I2C_SHT25_Relative_Humidity_Read *****************
  3176 ;; Defined at:
  3177 ;;		line 43 in file "SHT25_RH_And_T_SENSOR_v1.0.c"
  3178 ;; Parameters:    Size  Location     Type
  3179 ;;		None
  3180 ;; Auto vars:     Size  Location     Type
  3181 ;;  Measurement_    4   11[BANK1 ] unsigned int [2]
  3182 ;; Return value:  Size  Location     Type
  3183 ;;                  2   78[BANK0 ] unsigned int 
  3184 ;; Registers used:
  3185 ;;		wreg, status,2, status,0, btemp+1, pclath, cstack
  3186 ;; Tracked objects:
  3187 ;;		On entry : 0/0
  3188 ;;		On exit  : 0/0
  3189 ;;		Unchanged: 0/0
  3190 ;; Data sizes:     COMMON   BANK0   BANK1   BANK3   BANK2
  3191 ;;      Params:         0       2       0       0       0
  3192 ;;      Locals:         0       0       8       0       0
  3193 ;;      Temps:          0       0       2       0       0
  3194 ;;      Totals:         0       2      10       0       0
  3195 ;;Total ram usage:       12 bytes
  3196 ;; Hardware stack levels used:    1
  3197 ;; Hardware stack levels required when called:    2
  3198 ;; This function calls:
  3199 ;;		_I2C_Master_Read
  3200 ;;		_I2C_Master_Send_ACK
  3201 ;;		_I2C_Master_Send_NACK
  3202 ;;		_I2C_Master_Start
  3203 ;;		_I2C_Master_Stop
  3204 ;;		_I2C_Master_Write
  3205 ;;		___fladd
  3206 ;;		___fldiv
  3207 ;;		___flmul
  3208 ;;		___fltol
  3209 ;;		___xxtofl
  3210 ;; This function is called by:
  3211 ;;		_main
  3212 ;; This function uses a non-reentrant model
  3213 ;;
  3214                           
  3215                           
  3216                           ;psect for function _I2C_SHT25_Relative_Humidity_Read
  3217  0A3D                     _I2C_SHT25_Relative_Humidity_Read:	
  3218  0A3D                     l2880:	
  3219                           ;incstack = 0
  3220                           ; Regs used in _I2C_SHT25_Relative_Humidity_Read: [wreg+status,2+status,0+btemp+1+pclath
      +                          +cstack]
  3221                           
  3222                           
  3223                           ;SHT25_RH_And_T_SENSOR_v1.0.c: 44:         unsigned int Measurement_Buffer[2];;SHT25_RH_
      +                          And_T_SENSOR_v1.0.c: 45:         I2C_Master_Start();
  3224  0A3D  160A  118A  24A7  120A  158A  	fcall	_I2C_Master_Start
  3225  0A42                     l2882:	
  3226                           ;SHT25_RH_And_T_SENSOR_v1.0.c: 46:         while(I2C_Master_Write(0x40<<1));
  3227                           
  3228  0A42  3080               	movlw	128
  3229  0A43  160A  118A  24F3  120A  158A  	fcall	_I2C_Master_Write
  3230  0A48  3A00               	xorlw	0
  3231  0A49  1D03               	skipz
  3232  0A4A  2A4C               	goto	u4001
  3233  0A4B  2A4D               	goto	u4000
  3234  0A4C                     u4001:	
  3235  0A4C  2A42               	goto	l2882
  3236  0A4D                     u4000:	
  3237  0A4D                     l2884:	
  3238  0A4D  30F5               	movlw	245
  3239  0A4E  160A  118A  24F3  120A  158A  	fcall	_I2C_Master_Write
  3240  0A53  3A00               	xorlw	0
  3241  0A54  1D03               	skipz
  3242  0A55  2A57               	goto	u4011
  3243  0A56  2A58               	goto	u4010
  3244  0A57                     u4011:	
  3245  0A57  2A4D               	goto	l2884
  3246  0A58                     u4010:	
  3247  0A58                     l2886:	
  3248                           
  3249                           ;SHT25_RH_And_T_SENSOR_v1.0.c: 48:         I2C_Master_Stop();
  3250  0A58  160A  118A  24B5  120A  158A  	fcall	_I2C_Master_Stop
  3251  0A5D                     l2888:	
  3252                           
  3253                           ;SHT25_RH_And_T_SENSOR_v1.0.c: 49:         _delay((unsigned long)((30)*(20000000UL/4000.
      +                          0)));
  3254  0A5D  30C3               	movlw	195
  3255  0A5E  1683               	bsf	3,5	;RP0=1, select bank1
  3256  0A5F  1303               	bcf	3,6	;RP1=0, select bank1
  3257  0A60  00D3               	movwf	(??_I2C_SHT25_Relative_Humidity_Read^(0+128)+1)
  3258  0A61  30CC               	movlw	204
  3259  0A62  00D2               	movwf	??_I2C_SHT25_Relative_Humidity_Read^(0+128)
  3260  0A63                     u4247:	
  3261  0A63  0BD2               	decfsz	??_I2C_SHT25_Relative_Humidity_Read^(0+128),f
  3262  0A64  2A63               	goto	u4247
  3263  0A65  0BD3               	decfsz	(??_I2C_SHT25_Relative_Humidity_Read^(0+128)+1),f
  3264  0A66  2A63               	goto	u4247
  3265  0A67  0000               	nop
  3266  0A68                     l2890:	
  3267                           
  3268                           ;SHT25_RH_And_T_SENSOR_v1.0.c: 50:         I2C_Master_Start();
  3269  0A68  160A  118A  24A7  120A  158A  	fcall	_I2C_Master_Start
  3270  0A6D                     l2892:	
  3271                           ;SHT25_RH_And_T_SENSOR_v1.0.c: 51:         while(I2C_Master_Write((0x40<<1)|0x01));
  3272                           
  3273  0A6D  3081               	movlw	129
  3274  0A6E  160A  118A  24F3  120A  158A  	fcall	_I2C_Master_Write
  3275  0A73  3A00               	xorlw	0
  3276  0A74  1D03               	skipz
  3277  0A75  2A77               	goto	u4021
  3278  0A76  2A78               	goto	u4020
  3279  0A77                     u4021:	
  3280  0A77  2A6D               	goto	l2892
  3281  0A78                     u4020:	
  3282  0A78                     l2894:	
  3283                           
  3284                           ;SHT25_RH_And_T_SENSOR_v1.0.c: 52:         Measurement_Buffer[0] = I2C_Master_Read();
  3285  0A78  160A  118A  25A1  120A  158A  	fcall	_I2C_Master_Read
  3286  0A7D  1683               	bsf	3,5	;RP0=1, select bank1
  3287  0A7E  1303               	bcf	3,6	;RP1=0, select bank1
  3288  0A7F  00D2               	movwf	??_I2C_SHT25_Relative_Humidity_Read^(0+128)
  3289  0A80  01D3               	clrf	(??_I2C_SHT25_Relative_Humidity_Read^(0+128)+1)
  3290  0A81  0852               	movf	??_I2C_SHT25_Relative_Humidity_Read^(0+128),w
  3291  0A82  00D8               	movwf	I2C_SHT25_Relative_Humidity_Read@Measurement_Buffer^(0+128)
  3292  0A83  0853               	movf	(??_I2C_SHT25_Relative_Humidity_Read+1)^(0+128),w
  3293  0A84  00D9               	movwf	(I2C_SHT25_Relative_Humidity_Read@Measurement_Buffer+1)^(0+128)
  3294  0A85                     l2896:	
  3295                           
  3296                           ;SHT25_RH_And_T_SENSOR_v1.0.c: 53:         I2C_Master_Send_ACK();
  3297  0A85  160A  118A  24C3  120A  158A  	fcall	_I2C_Master_Send_ACK
  3298  0A8A                     l2898:	
  3299                           
  3300                           ;SHT25_RH_And_T_SENSOR_v1.0.c: 54:         Measurement_Buffer[1] = I2C_Master_Read();
  3301  0A8A  160A  118A  25A1  120A  158A  	fcall	_I2C_Master_Read
  3302  0A8F  1683               	bsf	3,5	;RP0=1, select bank1
  3303  0A90  1303               	bcf	3,6	;RP1=0, select bank1
  3304  0A91  00D2               	movwf	??_I2C_SHT25_Relative_Humidity_Read^(0+128)
  3305  0A92  01D3               	clrf	(??_I2C_SHT25_Relative_Humidity_Read^(0+128)+1)
  3306  0A93  0852               	movf	??_I2C_SHT25_Relative_Humidity_Read^(0+128),w
  3307  0A94  00DA               	movwf	(I2C_SHT25_Relative_Humidity_Read@Measurement_Buffer^(0+128)+2)
  3308  0A95  0853               	movf	(??_I2C_SHT25_Relative_Humidity_Read+1)^(0+128),w
  3309  0A96  00DB               	movwf	((I2C_SHT25_Relative_Humidity_Read@Measurement_Buffer+1)^(0+128)+2)
  3310                           
  3311                           ;SHT25_RH_And_T_SENSOR_v1.0.c: 55:         I2C_Master_Send_NACK();
  3312  0A97  160A  118A  24D2  120A  158A  	fcall	_I2C_Master_Send_NACK
  3313                           
  3314                           ;SHT25_RH_And_T_SENSOR_v1.0.c: 56:         I2C_Master_Stop();
  3315  0A9C  160A  118A  24B5  120A  158A  	fcall	_I2C_Master_Stop
  3316  0AA1                     l2900:	
  3317                           
  3318                           ;SHT25_RH_And_T_SENSOR_v1.0.c: 57:         return ((((Measurement_Buffer[0] * 256.0) + M
      +                          easurement_Buffer[1]) * 125.0) / 65536.0) - 6.0;
  3319  0AA1  1683               	bsf	3,5	;RP0=1, select bank1
  3320  0AA2  1303               	bcf	3,6	;RP1=0, select bank1
  3321  0AA3  0858               	movf	I2C_SHT25_Relative_Humidity_Read@Measurement_Buffer^(0+128),w
  3322  0AA4  00F0               	movwf	___xxtofl@val
  3323  0AA5  0859               	movf	(I2C_SHT25_Relative_Humidity_Read@Measurement_Buffer+1)^(0+128),w
  3324  0AA6  00F1               	movwf	___xxtofl@val+1
  3325  0AA7  01F2               	clrf	___xxtofl@val+2
  3326  0AA8  01F3               	clrf	___xxtofl@val+3
  3327  0AA9  3000               	movlw	0
  3328  0AAA  120A  158A  2183  120A  158A  	fcall	___xxtofl
  3329  0AAF  0873               	movf	?___xxtofl+3,w
  3330  0AB0  1283               	bcf	3,5	;RP0=0, select bank0
  3331  0AB1  1303               	bcf	3,6	;RP1=0, select bank0
  3332  0AB2  00A7               	movwf	___flmul@a+3
  3333  0AB3  0872               	movf	?___xxtofl+2,w
  3334  0AB4  00A6               	movwf	___flmul@a+2
  3335  0AB5  0871               	movf	?___xxtofl+1,w
  3336  0AB6  00A5               	movwf	___flmul@a+1
  3337  0AB7  0870               	movf	?___xxtofl,w
  3338  0AB8  00A4               	movwf	___flmul@a
  3339  0AB9  3043               	movlw	67
  3340  0ABA  00A3               	movwf	___flmul@b+3
  3341  0ABB  3080               	movlw	128
  3342  0ABC  00A2               	movwf	___flmul@b+2
  3343  0ABD  3000               	movlw	0
  3344  0ABE  00A1               	movwf	___flmul@b+1
  3345  0ABF  3000               	movlw	0
  3346  0AC0  00A0               	movwf	___flmul@b
  3347  0AC1  120A  118A  2478  120A  158A  	fcall	___flmul
  3348  0AC6  1283               	bcf	3,5	;RP0=0, select bank0
  3349  0AC7  1303               	bcf	3,6	;RP1=0, select bank0
  3350  0AC8  0823               	movf	?___flmul+3,w
  3351  0AC9  00C1               	movwf	___fladd@a+3
  3352  0ACA  0822               	movf	?___flmul+2,w
  3353  0ACB  00C0               	movwf	___fladd@a+2
  3354  0ACC  0821               	movf	?___flmul+1,w
  3355  0ACD  00BF               	movwf	___fladd@a+1
  3356  0ACE  0820               	movf	?___flmul,w
  3357  0ACF  00BE               	movwf	___fladd@a
  3358  0AD0  1683               	bsf	3,5	;RP0=1, select bank1
  3359  0AD1  1303               	bcf	3,6	;RP1=0, select bank1
  3360  0AD2  085A               	movf	(I2C_SHT25_Relative_Humidity_Read@Measurement_Buffer^(0+128)+2),w
  3361  0AD3  00F0               	movwf	___xxtofl@val
  3362  0AD4  085B               	movf	((I2C_SHT25_Relative_Humidity_Read@Measurement_Buffer+1)^(0+128)+2),w
  3363  0AD5  00F1               	movwf	___xxtofl@val+1
  3364  0AD6  01F2               	clrf	___xxtofl@val+2
  3365  0AD7  01F3               	clrf	___xxtofl@val+3
  3366  0AD8  3000               	movlw	0
  3367  0AD9  120A  158A  2183  120A  158A  	fcall	___xxtofl
  3368  0ADE  0873               	movf	?___xxtofl+3,w
  3369  0ADF  1283               	bcf	3,5	;RP0=0, select bank0
  3370  0AE0  1303               	bcf	3,6	;RP1=0, select bank0
  3371  0AE1  00BD               	movwf	___fladd@b+3
  3372  0AE2  0872               	movf	?___xxtofl+2,w
  3373  0AE3  00BC               	movwf	___fladd@b+2
  3374  0AE4  0871               	movf	?___xxtofl+1,w
  3375  0AE5  00BB               	movwf	___fladd@b+1
  3376  0AE6  0870               	movf	?___xxtofl,w
  3377  0AE7  00BA               	movwf	___fladd@b
  3378  0AE8  120A  118A  21F0  120A  158A  	fcall	___fladd
  3379  0AED  1283               	bcf	3,5	;RP0=0, select bank0
  3380  0AEE  1303               	bcf	3,6	;RP1=0, select bank0
  3381  0AEF  083D               	movf	?___fladd+3,w
  3382  0AF0  1683               	bsf	3,5	;RP0=1, select bank1
  3383  0AF1  1303               	bcf	3,6	;RP1=0, select bank1
  3384  0AF2  00D7               	movwf	(_I2C_SHT25_Relative_Humidity_Read$1252+3)^(0+128)
  3385  0AF3  1283               	bcf	3,5	;RP0=0, select bank0
  3386  0AF4  1303               	bcf	3,6	;RP1=0, select bank0
  3387  0AF5  083C               	movf	?___fladd+2,w
  3388  0AF6  1683               	bsf	3,5	;RP0=1, select bank1
  3389  0AF7  1303               	bcf	3,6	;RP1=0, select bank1
  3390  0AF8  00D6               	movwf	(_I2C_SHT25_Relative_Humidity_Read$1252+2)^(0+128)
  3391  0AF9  1283               	bcf	3,5	;RP0=0, select bank0
  3392  0AFA  1303               	bcf	3,6	;RP1=0, select bank0
  3393  0AFB  083B               	movf	?___fladd+1,w
  3394  0AFC  1683               	bsf	3,5	;RP0=1, select bank1
  3395  0AFD  1303               	bcf	3,6	;RP1=0, select bank1
  3396  0AFE  00D5               	movwf	(_I2C_SHT25_Relative_Humidity_Read$1252+1)^(0+128)
  3397  0AFF  1283               	bcf	3,5	;RP0=0, select bank0
  3398  0B00  1303               	bcf	3,6	;RP1=0, select bank0
  3399  0B01  083A               	movf	?___fladd,w
  3400  0B02  1683               	bsf	3,5	;RP0=1, select bank1
  3401  0B03  1303               	bcf	3,6	;RP1=0, select bank1
  3402  0B04  00D4               	movwf	_I2C_SHT25_Relative_Humidity_Read$1252^(0+128)
  3403  0B05                     l2902:	
  3404                           
  3405                           ;SHT25_RH_And_T_SENSOR_v1.0.c: 57:         return ((((Measurement_Buffer[0] * 256.0) + M
      +                          easurement_Buffer[1]) * 125.0) / 65536.0) - 6.0;
  3406  0B05  0857               	movf	(_I2C_SHT25_Relative_Humidity_Read$1252+3)^(0+128),w
  3407  0B06  1283               	bcf	3,5	;RP0=0, select bank0
  3408  0B07  1303               	bcf	3,6	;RP1=0, select bank0
  3409  0B08  00A7               	movwf	___flmul@a+3
  3410  0B09  1683               	bsf	3,5	;RP0=1, select bank1
  3411  0B0A  1303               	bcf	3,6	;RP1=0, select bank1
  3412  0B0B  0856               	movf	(_I2C_SHT25_Relative_Humidity_Read$1252+2)^(0+128),w
  3413  0B0C  1283               	bcf	3,5	;RP0=0, select bank0
  3414  0B0D  1303               	bcf	3,6	;RP1=0, select bank0
  3415  0B0E  00A6               	movwf	___flmul@a+2
  3416  0B0F  1683               	bsf	3,5	;RP0=1, select bank1
  3417  0B10  1303               	bcf	3,6	;RP1=0, select bank1
  3418  0B11  0855               	movf	(_I2C_SHT25_Relative_Humidity_Read$1252+1)^(0+128),w
  3419  0B12  1283               	bcf	3,5	;RP0=0, select bank0
  3420  0B13  1303               	bcf	3,6	;RP1=0, select bank0
  3421  0B14  00A5               	movwf	___flmul@a+1
  3422  0B15  1683               	bsf	3,5	;RP0=1, select bank1
  3423  0B16  1303               	bcf	3,6	;RP1=0, select bank1
  3424  0B17  0854               	movf	_I2C_SHT25_Relative_Humidity_Read$1252^(0+128),w
  3425  0B18  1283               	bcf	3,5	;RP0=0, select bank0
  3426  0B19  1303               	bcf	3,6	;RP1=0, select bank0
  3427  0B1A  00A4               	movwf	___flmul@a
  3428  0B1B  3042               	movlw	66
  3429  0B1C  00A3               	movwf	___flmul@b+3
  3430  0B1D  30FA               	movlw	250
  3431  0B1E  00A2               	movwf	___flmul@b+2
  3432  0B1F  3000               	movlw	0
  3433  0B20  00A1               	movwf	___flmul@b+1
  3434  0B21  3000               	movlw	0
  3435  0B22  00A0               	movwf	___flmul@b
  3436  0B23  120A  118A  2478  120A  158A  	fcall	___flmul
  3437  0B28  1283               	bcf	3,5	;RP0=0, select bank0
  3438  0B29  1303               	bcf	3,6	;RP1=0, select bank0
  3439  0B2A  0823               	movf	?___flmul+3,w
  3440  0B2B  00D5               	movwf	___fldiv@b+3
  3441  0B2C  0822               	movf	?___flmul+2,w
  3442  0B2D  00D4               	movwf	___fldiv@b+2
  3443  0B2E  0821               	movf	?___flmul+1,w
  3444  0B2F  00D3               	movwf	___fldiv@b+1
  3445  0B30  0820               	movf	?___flmul,w
  3446  0B31  00D2               	movwf	___fldiv@b
  3447  0B32  3047               	movlw	71
  3448  0B33  00D1               	movwf	___fldiv@a+3
  3449  0B34  3080               	movlw	128
  3450  0B35  00D0               	movwf	___fldiv@a+2
  3451  0B36  3000               	movlw	0
  3452  0B37  00CF               	movwf	___fldiv@a+1
  3453  0B38  3000               	movlw	0
  3454  0B39  00CE               	movwf	___fldiv@a
  3455  0B3A  120A  118A  2013  120A  158A  	fcall	___fldiv
  3456  0B3F  1283               	bcf	3,5	;RP0=0, select bank0
  3457  0B40  1303               	bcf	3,6	;RP1=0, select bank0
  3458  0B41  0851               	movf	?___fldiv+3,w
  3459  0B42  00C1               	movwf	___fladd@a+3
  3460  0B43  0850               	movf	?___fldiv+2,w
  3461  0B44  00C0               	movwf	___fladd@a+2
  3462  0B45  084F               	movf	?___fldiv+1,w
  3463  0B46  00BF               	movwf	___fladd@a+1
  3464  0B47  084E               	movf	?___fldiv,w
  3465  0B48  00BE               	movwf	___fladd@a
  3466  0B49  30C0               	movlw	192
  3467  0B4A  00BD               	movwf	___fladd@b+3
  3468  0B4B  30C0               	movlw	192
  3469  0B4C  00BC               	movwf	___fladd@b+2
  3470  0B4D  3000               	movlw	0
  3471  0B4E  00BB               	movwf	___fladd@b+1
  3472  0B4F  3000               	movlw	0
  3473  0B50  00BA               	movwf	___fladd@b
  3474  0B51  120A  118A  21F0  120A  158A  	fcall	___fladd
  3475  0B56  1283               	bcf	3,5	;RP0=0, select bank0
  3476  0B57  1303               	bcf	3,6	;RP1=0, select bank0
  3477  0B58  083D               	movf	?___fladd+3,w
  3478  0B59  00EB               	movwf	___fltol@f1+3
  3479  0B5A  083C               	movf	?___fladd+2,w
  3480  0B5B  00EA               	movwf	___fltol@f1+2
  3481  0B5C  083B               	movf	?___fladd+1,w
  3482  0B5D  00E9               	movwf	___fltol@f1+1
  3483  0B5E  083A               	movf	?___fladd,w
  3484  0B5F  00E8               	movwf	___fltol@f1
  3485  0B60  120A  158A  20E7  120A  158A  	fcall	___fltol
  3486  0B65  1283               	bcf	3,5	;RP0=0, select bank0
  3487  0B66  1303               	bcf	3,6	;RP1=0, select bank0
  3488  0B67  0869               	movf	?___fltol+1,w
  3489  0B68  00EF               	movwf	?_I2C_SHT25_Relative_Humidity_Read+1
  3490  0B69  0868               	movf	?___fltol,w
  3491  0B6A  00EE               	movwf	?_I2C_SHT25_Relative_Humidity_Read
  3492  0B6B                     l171:	
  3493  0B6B  0008               	return
  3494  0B6C                     __end_of_I2C_SHT25_Relative_Humidity_Read:	
  3495                           
  3496                           	psect	text9
  3497  0983                     __ptext9:	
  3498 ;; *************** function ___xxtofl *****************
  3499 ;; Defined at:
  3500 ;;		line 10 in file "C:\Program Files (x86)\Microchip\xc8\v2.10\pic\sources\c90\common\xxtofl.c"
  3501 ;; Parameters:    Size  Location     Type
  3502 ;;  sign            1    wreg     unsigned char 
  3503 ;;  val             4    0[COMMON] long 
  3504 ;; Auto vars:     Size  Location     Type
  3505 ;;  sign            1    8[COMMON] unsigned char 
  3506 ;;  arg             4   10[COMMON] unsigned long 
  3507 ;;  exp             1    9[COMMON] unsigned char 
  3508 ;; Return value:  Size  Location     Type
  3509 ;;                  4    0[COMMON] unsigned char 
  3510 ;; Registers used:
  3511 ;;		wreg, status,2, status,0
  3512 ;; Tracked objects:
  3513 ;;		On entry : 0/0
  3514 ;;		On exit  : 0/0
  3515 ;;		Unchanged: 0/0
  3516 ;; Data sizes:     COMMON   BANK0   BANK1   BANK3   BANK2
  3517 ;;      Params:         4       0       0       0       0
  3518 ;;      Locals:         6       0       0       0       0
  3519 ;;      Temps:          4       0       0       0       0
  3520 ;;      Totals:        14       0       0       0       0
  3521 ;;Total ram usage:       14 bytes
  3522 ;; Hardware stack levels used:    1
  3523 ;; This function calls:
  3524 ;;		Nothing
  3525 ;; This function is called by:
  3526 ;;		_I2C_SHT25_Temperature_Read
  3527 ;;		_I2C_SHT25_Relative_Humidity_Read
  3528 ;; This function uses a non-reentrant model
  3529 ;;
  3530                           
  3531                           
  3532                           ;psect for function ___xxtofl
  3533  0983                     ___xxtofl:	
  3534                           
  3535                           ;incstack = 0
  3536                           ; Regs used in ___xxtofl: [wreg+status,2+status,0]
  3537                           ;___xxtofl@sign stored from wreg
  3538  0983  00F8               	movwf	___xxtofl@sign
  3539  0984                     l2744:	
  3540  0984  0878               	movf	___xxtofl@sign,w
  3541  0985  1903               	btfsc	3,2
  3542  0986  2988               	goto	u3781
  3543  0987  2989               	goto	u3780
  3544  0988                     u3781:	
  3545  0988  299D               	goto	l2750
  3546  0989                     u3780:	
  3547  0989                     l2746:	
  3548  0989  1FF3               	btfss	___xxtofl@val+3,7
  3549  098A  298C               	goto	u3791
  3550  098B  298D               	goto	u3790
  3551  098C                     u3791:	
  3552  098C  299D               	goto	l2750
  3553  098D                     u3790:	
  3554  098D                     l2748:	
  3555  098D  0970               	comf	___xxtofl@val,w
  3556  098E  00FA               	movwf	___xxtofl@arg
  3557  098F  0971               	comf	___xxtofl@val+1,w
  3558  0990  00FB               	movwf	___xxtofl@arg+1
  3559  0991  0972               	comf	___xxtofl@val+2,w
  3560  0992  00FC               	movwf	___xxtofl@arg+2
  3561  0993  0973               	comf	___xxtofl@val+3,w
  3562  0994  00FD               	movwf	___xxtofl@arg+3
  3563  0995  0AFA               	incf	___xxtofl@arg,f
  3564  0996  1903               	skipnz
  3565  0997  0AFB               	incf	___xxtofl@arg+1,f
  3566  0998  1903               	skipnz
  3567  0999  0AFC               	incf	___xxtofl@arg+2,f
  3568  099A  1903               	skipnz
  3569  099B  0AFD               	incf	___xxtofl@arg+3,f
  3570  099C  29A5               	goto	l818
  3571  099D                     l2750:	
  3572  099D  0873               	movf	___xxtofl@val+3,w
  3573  099E  00FD               	movwf	___xxtofl@arg+3
  3574  099F  0872               	movf	___xxtofl@val+2,w
  3575  09A0  00FC               	movwf	___xxtofl@arg+2
  3576  09A1  0871               	movf	___xxtofl@val+1,w
  3577  09A2  00FB               	movwf	___xxtofl@arg+1
  3578  09A3  0870               	movf	___xxtofl@val,w
  3579  09A4  00FA               	movwf	___xxtofl@arg
  3580  09A5                     l818:	
  3581  09A5  0873               	movf	___xxtofl@val+3,w
  3582  09A6  0472               	iorwf	___xxtofl@val+2,w
  3583  09A7  0471               	iorwf	___xxtofl@val+1,w
  3584  09A8  0470               	iorwf	___xxtofl@val,w
  3585  09A9  1D03               	skipz
  3586  09AA  29AC               	goto	u3801
  3587  09AB  29AD               	goto	u3800
  3588  09AC                     u3801:	
  3589  09AC  29B6               	goto	l2756
  3590  09AD                     u3800:	
  3591  09AD                     l2752:	
  3592  09AD  3000               	movlw	0
  3593  09AE  00F3               	movwf	?___xxtofl+3
  3594  09AF  3000               	movlw	0
  3595  09B0  00F2               	movwf	?___xxtofl+2
  3596  09B1  3000               	movlw	0
  3597  09B2  00F1               	movwf	?___xxtofl+1
  3598  09B3  3000               	movlw	0
  3599  09B4  00F0               	movwf	?___xxtofl
  3600  09B5  2A3C               	goto	l820
  3601  09B6                     l2756:	
  3602  09B6  3096               	movlw	150
  3603  09B7  00F4               	movwf	??___xxtofl
  3604  09B8  0874               	movf	??___xxtofl,w
  3605  09B9  00F9               	movwf	___xxtofl@exp
  3606  09BA  29C8               	goto	l2760
  3607  09BB                     l2758:	
  3608  09BB  3001               	movlw	1
  3609  09BC  00F4               	movwf	??___xxtofl
  3610  09BD  0874               	movf	??___xxtofl,w
  3611  09BE  07F9               	addwf	___xxtofl@exp,f
  3612  09BF  3001               	movlw	1
  3613  09C0                     u3815:	
  3614  09C0  1003               	clrc
  3615  09C1  0CFD               	rrf	___xxtofl@arg+3,f
  3616  09C2  0CFC               	rrf	___xxtofl@arg+2,f
  3617  09C3  0CFB               	rrf	___xxtofl@arg+1,f
  3618  09C4  0CFA               	rrf	___xxtofl@arg,f
  3619  09C5  3EFF               	addlw	-1
  3620  09C6  1D03               	skipz
  3621  09C7  29C0               	goto	u3815
  3622  09C8                     l2760:	
  3623  09C8  30FE               	movlw	254
  3624  09C9  057D               	andwf	___xxtofl@arg+3,w
  3625  09CA  1D03               	btfss	3,2
  3626  09CB  29CD               	goto	u3821
  3627  09CC  29CE               	goto	u3820
  3628  09CD                     u3821:	
  3629  09CD  29BB               	goto	l2758
  3630  09CE                     u3820:	
  3631  09CE  29EA               	goto	l824
  3632  09CF                     l2762:	
  3633  09CF  3001               	movlw	1
  3634  09D0  00F4               	movwf	??___xxtofl
  3635  09D1  0874               	movf	??___xxtofl,w
  3636  09D2  07F9               	addwf	___xxtofl@exp,f
  3637  09D3                     l2764:	
  3638  09D3  3001               	movlw	1
  3639  09D4  07FA               	addwf	___xxtofl@arg,f
  3640  09D5  3000               	movlw	0
  3641  09D6  1803               	skipnc
  3642  09D7  3001               	movlw	1
  3643  09D8  07FB               	addwf	___xxtofl@arg+1,f
  3644  09D9  3000               	movlw	0
  3645  09DA  1803               	skipnc
  3646  09DB  3001               	movlw	1
  3647  09DC  07FC               	addwf	___xxtofl@arg+2,f
  3648  09DD  3000               	movlw	0
  3649  09DE  1803               	skipnc
  3650  09DF  3001               	movlw	1
  3651  09E0  07FD               	addwf	___xxtofl@arg+3,f
  3652  09E1                     l2766:	
  3653  09E1  3001               	movlw	1
  3654  09E2                     u3835:	
  3655  09E2  1003               	clrc
  3656  09E3  0CFD               	rrf	___xxtofl@arg+3,f
  3657  09E4  0CFC               	rrf	___xxtofl@arg+2,f
  3658  09E5  0CFB               	rrf	___xxtofl@arg+1,f
  3659  09E6  0CFA               	rrf	___xxtofl@arg,f
  3660  09E7  3EFF               	addlw	-1
  3661  09E8  1D03               	skipz
  3662  09E9  29E2               	goto	u3835
  3663  09EA                     l824:	
  3664  09EA  30FF               	movlw	255
  3665  09EB  057D               	andwf	___xxtofl@arg+3,w
  3666  09EC  1D03               	btfss	3,2
  3667  09ED  29EF               	goto	u3841
  3668  09EE  29F0               	goto	u3840
  3669  09EF                     u3841:	
  3670  09EF  29CF               	goto	l2762
  3671  09F0                     u3840:	
  3672  09F0  29FC               	goto	l2770
  3673  09F1                     l2768:	
  3674  09F1  3001               	movlw	1
  3675  09F2  02F9               	subwf	___xxtofl@exp,f
  3676  09F3  3001               	movlw	1
  3677  09F4  00F4               	movwf	??___xxtofl
  3678  09F5                     u3855:	
  3679  09F5  1003               	clrc
  3680  09F6  0DFA               	rlf	___xxtofl@arg,f
  3681  09F7  0DFB               	rlf	___xxtofl@arg+1,f
  3682  09F8  0DFC               	rlf	___xxtofl@arg+2,f
  3683  09F9  0DFD               	rlf	___xxtofl@arg+3,f
  3684  09FA  0BF4               	decfsz	??___xxtofl,f
  3685  09FB  29F5               	goto	u3855
  3686  09FC                     l2770:	
  3687  09FC  1BFC               	btfsc	___xxtofl@arg+2,7
  3688  09FD  29FF               	goto	u3861
  3689  09FE  2A00               	goto	u3860
  3690  09FF                     u3861:	
  3691  09FF  2A06               	goto	l831
  3692  0A00                     u3860:	
  3693  0A00                     l2772:	
  3694  0A00  3002               	movlw	2
  3695  0A01  0279               	subwf	___xxtofl@exp,w
  3696  0A02  1803               	skipnc
  3697  0A03  2A05               	goto	u3871
  3698  0A04  2A06               	goto	u3870
  3699  0A05                     u3871:	
  3700  0A05  29F1               	goto	l2768
  3701  0A06                     u3870:	
  3702  0A06                     l831:	
  3703  0A06  1879               	btfsc	___xxtofl@exp,0
  3704  0A07  2A09               	goto	u3881
  3705  0A08  2A0A               	goto	u3880
  3706  0A09                     u3881:	
  3707  0A09  2A12               	goto	l832
  3708  0A0A                     u3880:	
  3709  0A0A                     l2774:	
  3710  0A0A  30FF               	movlw	255
  3711  0A0B  05FA               	andwf	___xxtofl@arg,f
  3712  0A0C  30FF               	movlw	255
  3713  0A0D  05FB               	andwf	___xxtofl@arg+1,f
  3714  0A0E  307F               	movlw	127
  3715  0A0F  05FC               	andwf	___xxtofl@arg+2,f
  3716  0A10  30FF               	movlw	255
  3717  0A11  05FD               	andwf	___xxtofl@arg+3,f
  3718  0A12                     l832:	
  3719  0A12  1003               	clrc
  3720  0A13  0CF9               	rrf	___xxtofl@exp,f
  3721  0A14                     l2776:	
  3722  0A14  0879               	movf	___xxtofl@exp,w
  3723  0A15  00F4               	movwf	??___xxtofl
  3724  0A16  01F5               	clrf	??___xxtofl+1
  3725  0A17  01F6               	clrf	??___xxtofl+2
  3726  0A18  01F7               	clrf	??___xxtofl+3
  3727  0A19  3018               	movlw	24
  3728  0A1A                     u3895:	
  3729  0A1A  1003               	clrc
  3730  0A1B  0DF4               	rlf	??___xxtofl,f
  3731  0A1C  0DF5               	rlf	??___xxtofl+1,f
  3732  0A1D  0DF6               	rlf	??___xxtofl+2,f
  3733  0A1E  0DF7               	rlf	??___xxtofl+3,f
  3734  0A1F                     u3890:	
  3735  0A1F  3EFF               	addlw	-1
  3736  0A20  1D03               	skipz
  3737  0A21  2A1A               	goto	u3895
  3738  0A22  0874               	movf	??___xxtofl,w
  3739  0A23  04FA               	iorwf	___xxtofl@arg,f
  3740  0A24  0875               	movf	??___xxtofl+1,w
  3741  0A25  04FB               	iorwf	___xxtofl@arg+1,f
  3742  0A26  0876               	movf	??___xxtofl+2,w
  3743  0A27  04FC               	iorwf	___xxtofl@arg+2,f
  3744  0A28  0877               	movf	??___xxtofl+3,w
  3745  0A29  04FD               	iorwf	___xxtofl@arg+3,f
  3746  0A2A                     l2778:	
  3747  0A2A  0878               	movf	___xxtofl@sign,w
  3748  0A2B  1903               	btfsc	3,2
  3749  0A2C  2A2E               	goto	u3901
  3750  0A2D  2A2F               	goto	u3900
  3751  0A2E                     u3901:	
  3752  0A2E  2A34               	goto	l2784
  3753  0A2F                     u3900:	
  3754  0A2F                     l2780:	
  3755  0A2F  1FF3               	btfss	___xxtofl@val+3,7
  3756  0A30  2A32               	goto	u3911
  3757  0A31  2A33               	goto	u3910
  3758  0A32                     u3911:	
  3759  0A32  2A34               	goto	l2784
  3760  0A33                     u3910:	
  3761  0A33                     l2782:	
  3762  0A33  17FD               	bsf	___xxtofl@arg+3,7
  3763  0A34                     l2784:	
  3764  0A34  087D               	movf	___xxtofl@arg+3,w
  3765  0A35  00F3               	movwf	?___xxtofl+3
  3766  0A36  087C               	movf	___xxtofl@arg+2,w
  3767  0A37  00F2               	movwf	?___xxtofl+2
  3768  0A38  087B               	movf	___xxtofl@arg+1,w
  3769  0A39  00F1               	movwf	?___xxtofl+1
  3770  0A3A  087A               	movf	___xxtofl@arg,w
  3771  0A3B  00F0               	movwf	?___xxtofl
  3772  0A3C                     l820:	
  3773  0A3C  0008               	return
  3774  0A3D                     __end_of___xxtofl:	
  3775                           
  3776                           	psect	text10
  3777  08E7                     __ptext10:	
  3778 ;; *************** function ___fltol *****************
  3779 ;; Defined at:
  3780 ;;		line 43 in file "C:\Program Files (x86)\Microchip\xc8\v2.10\pic\sources\c90\common\fltol.c"
  3781 ;; Parameters:    Size  Location     Type
  3782 ;;  f1              4   72[BANK0 ] unsigned char 
  3783 ;; Auto vars:     Size  Location     Type
  3784 ;;  exp1            1   77[BANK0 ] unsigned char 
  3785 ;;  sign1           1   76[BANK0 ] unsigned char 
  3786 ;; Return value:  Size  Location     Type
  3787 ;;                  4   72[BANK0 ] long 
  3788 ;; Registers used:
  3789 ;;		wreg, status,2, status,0
  3790 ;; Tracked objects:
  3791 ;;		On entry : 0/0
  3792 ;;		On exit  : 0/0
  3793 ;;		Unchanged: 0/0
  3794 ;; Data sizes:     COMMON   BANK0   BANK1   BANK3   BANK2
  3795 ;;      Params:         0       4       0       0       0
  3796 ;;      Locals:         0       2       0       0       0
  3797 ;;      Temps:          0       0       5       0       0
  3798 ;;      Totals:         0       6       5       0       0
  3799 ;;Total ram usage:       11 bytes
  3800 ;; Hardware stack levels used:    1
  3801 ;; This function calls:
  3802 ;;		Nothing
  3803 ;; This function is called by:
  3804 ;;		_I2C_SHT25_Temperature_Read
  3805 ;;		_I2C_SHT25_Relative_Humidity_Read
  3806 ;; This function uses a non-reentrant model
  3807 ;;
  3808                           
  3809                           
  3810                           ;psect for function ___fltol
  3811  08E7                     ___fltol:	
  3812  08E7                     l2184:	
  3813                           ;incstack = 0
  3814                           ; Regs used in ___fltol: [wreg+status,2+status,0]
  3815                           
  3816  08E7  1003               	clrc
  3817  08E8  1283               	bcf	3,5	;RP0=0, select bank0
  3818  08E9  1303               	bcf	3,6	;RP1=0, select bank0
  3819  08EA  0D6A               	rlf	___fltol@f1+2,w
  3820  08EB  0D6B               	rlf	___fltol@f1+3,w
  3821  08EC  1683               	bsf	3,5	;RP0=1, select bank1
  3822  08ED  1303               	bcf	3,6	;RP1=0, select bank1
  3823  08EE  00CD               	movwf	??___fltol^(0+128)
  3824  08EF  084D               	movf	??___fltol^(0+128),w
  3825  08F0  1283               	bcf	3,5	;RP0=0, select bank0
  3826  08F1  1303               	bcf	3,6	;RP1=0, select bank0
  3827  08F2  00ED               	movwf	___fltol@exp1
  3828  08F3  086D               	movf	___fltol@exp1,w
  3829  08F4  1D03               	btfss	3,2
  3830  08F5  28F7               	goto	u2431
  3831  08F6  28F8               	goto	u2430
  3832  08F7                     u2431:	
  3833  08F7  2901               	goto	l2190
  3834  08F8                     u2430:	
  3835  08F8                     l2186:	
  3836  08F8  3000               	movlw	0
  3837  08F9  00EB               	movwf	?___fltol+3
  3838  08FA  3000               	movlw	0
  3839  08FB  00EA               	movwf	?___fltol+2
  3840  08FC  3000               	movlw	0
  3841  08FD  00E9               	movwf	?___fltol+1
  3842  08FE  3000               	movlw	0
  3843  08FF  00E8               	movwf	?___fltol
  3844  0900  2982               	goto	l577
  3845  0901                     l2190:	
  3846  0901  0868               	movf	___fltol@f1,w
  3847  0902  1683               	bsf	3,5	;RP0=1, select bank1
  3848  0903  1303               	bcf	3,6	;RP1=0, select bank1
  3849  0904  00CD               	movwf	??___fltol^(0+128)
  3850  0905  1283               	bcf	3,5	;RP0=0, select bank0
  3851  0906  1303               	bcf	3,6	;RP1=0, select bank0
  3852  0907  0869               	movf	___fltol@f1+1,w
  3853  0908  1683               	bsf	3,5	;RP0=1, select bank1
  3854  0909  1303               	bcf	3,6	;RP1=0, select bank1
  3855  090A  00CE               	movwf	(??___fltol^(0+128)+1)
  3856  090B  1283               	bcf	3,5	;RP0=0, select bank0
  3857  090C  1303               	bcf	3,6	;RP1=0, select bank0
  3858  090D  086A               	movf	___fltol@f1+2,w
  3859  090E  1683               	bsf	3,5	;RP0=1, select bank1
  3860  090F  1303               	bcf	3,6	;RP1=0, select bank1
  3861  0910  00CF               	movwf	(??___fltol^(0+128)+2)
  3862  0911  1283               	bcf	3,5	;RP0=0, select bank0
  3863  0912  1303               	bcf	3,6	;RP1=0, select bank0
  3864  0913  086B               	movf	___fltol@f1+3,w
  3865  0914  1683               	bsf	3,5	;RP0=1, select bank1
  3866  0915  1303               	bcf	3,6	;RP1=0, select bank1
  3867  0916  00D0               	movwf	(??___fltol^(0+128)+3)
  3868  0917  301F               	movlw	31
  3869  0918                     u2445:	
  3870  0918  1003               	clrc
  3871  0919  0CD0               	rrf	(??___fltol^(0+128)+3),f
  3872  091A  0CCF               	rrf	(??___fltol^(0+128)+2),f
  3873  091B  0CCE               	rrf	(??___fltol^(0+128)+1),f
  3874  091C  0CCD               	rrf	??___fltol^(0+128),f
  3875  091D                     u2440:	
  3876  091D  3EFF               	addlw	-1
  3877  091E  1D03               	skipz
  3878  091F  2918               	goto	u2445
  3879  0920  084D               	movf	??___fltol^(0+128),w
  3880  0921  00D1               	movwf	(??___fltol+4)^(0+128)
  3881  0922  0851               	movf	(??___fltol+4)^(0+128),w
  3882  0923  1283               	bcf	3,5	;RP0=0, select bank0
  3883  0924  1303               	bcf	3,6	;RP1=0, select bank0
  3884  0925  00EC               	movwf	___fltol@sign1
  3885  0926                     l2192:	
  3886  0926  17EA               	bsf	___fltol@f1+2,7
  3887  0927                     l2194:	
  3888  0927  30FF               	movlw	255
  3889  0928  05E8               	andwf	___fltol@f1,f
  3890  0929  30FF               	movlw	255
  3891  092A  05E9               	andwf	___fltol@f1+1,f
  3892  092B  30FF               	movlw	255
  3893  092C  05EA               	andwf	___fltol@f1+2,f
  3894  092D  3000               	movlw	0
  3895  092E  05EB               	andwf	___fltol@f1+3,f
  3896  092F                     l2196:	
  3897  092F  3096               	movlw	150
  3898  0930  02ED               	subwf	___fltol@exp1,f
  3899  0931                     l2198:	
  3900  0931  1FED               	btfss	___fltol@exp1,7
  3901  0932  2934               	goto	u2451
  3902  0933  2935               	goto	u2450
  3903  0934                     u2451:	
  3904  0934  2953               	goto	l2208
  3905  0935                     u2450:	
  3906  0935                     l2200:	
  3907  0935  086D               	movf	___fltol@exp1,w
  3908  0936  3A80               	xorlw	128
  3909  0937  3E97               	addlw	151
  3910  0938  1803               	skipnc
  3911  0939  293B               	goto	u2461
  3912  093A  293C               	goto	u2460
  3913  093B                     u2461:	
  3914  093B  293D               	goto	l2206
  3915  093C                     u2460:	
  3916  093C  28F8               	goto	l2186
  3917  093D                     l2206:	
  3918  093D  3001               	movlw	1
  3919  093E                     u2475:	
  3920  093E  1003               	clrc
  3921  093F  0CEB               	rrf	___fltol@f1+3,f
  3922  0940  0CEA               	rrf	___fltol@f1+2,f
  3923  0941  0CE9               	rrf	___fltol@f1+1,f
  3924  0942  0CE8               	rrf	___fltol@f1,f
  3925  0943  3EFF               	addlw	-1
  3926  0944  1D03               	skipz
  3927  0945  293E               	goto	u2475
  3928  0946  3001               	movlw	1
  3929  0947  1683               	bsf	3,5	;RP0=1, select bank1
  3930  0948  1303               	bcf	3,6	;RP1=0, select bank1
  3931  0949  00CD               	movwf	??___fltol^(0+128)
  3932  094A  084D               	movf	??___fltol^(0+128),w
  3933  094B  1283               	bcf	3,5	;RP0=0, select bank0
  3934  094C  1303               	bcf	3,6	;RP1=0, select bank0
  3935  094D  07ED               	addwf	___fltol@exp1,f
  3936  094E  1D03               	btfss	3,2
  3937  094F  2951               	goto	u2481
  3938  0950  2952               	goto	u2480
  3939  0951                     u2481:	
  3940  0951  293D               	goto	l2206
  3941  0952                     u2480:	
  3942  0952  2972               	goto	l2216
  3943  0953                     l2208:	
  3944  0953  3020               	movlw	32
  3945  0954  026D               	subwf	___fltol@exp1,w
  3946  0955  1C03               	skipc
  3947  0956  2958               	goto	u2491
  3948  0957  2959               	goto	u2490
  3949  0958                     u2491:	
  3950  0958  296D               	goto	l584
  3951  0959                     u2490:	
  3952  0959  28F8               	goto	l2186
  3953  095A                     l2214:	
  3954  095A  3001               	movlw	1
  3955  095B  1683               	bsf	3,5	;RP0=1, select bank1
  3956  095C  1303               	bcf	3,6	;RP1=0, select bank1
  3957  095D  00CD               	movwf	??___fltol^(0+128)
  3958  095E                     u2505:	
  3959  095E  1003               	clrc
  3960  095F  1283               	bcf	3,5	;RP0=0, select bank0
  3961  0960  1303               	bcf	3,6	;RP1=0, select bank0
  3962  0961  0DE8               	rlf	___fltol@f1,f
  3963  0962  0DE9               	rlf	___fltol@f1+1,f
  3964  0963  0DEA               	rlf	___fltol@f1+2,f
  3965  0964  0DEB               	rlf	___fltol@f1+3,f
  3966  0965  1683               	bsf	3,5	;RP0=1, select bank1
  3967  0966  1303               	bcf	3,6	;RP1=0, select bank1
  3968  0967  0BCD               	decfsz	??___fltol^(0+128),f
  3969  0968  295E               	goto	u2505
  3970  0969  3001               	movlw	1
  3971  096A  1283               	bcf	3,5	;RP0=0, select bank0
  3972  096B  1303               	bcf	3,6	;RP1=0, select bank0
  3973  096C  02ED               	subwf	___fltol@exp1,f
  3974  096D                     l584:	
  3975  096D  086D               	movf	___fltol@exp1,w
  3976  096E  1D03               	btfss	3,2
  3977  096F  2971               	goto	u2511
  3978  0970  2972               	goto	u2510
  3979  0971                     u2511:	
  3980  0971  295A               	goto	l2214
  3981  0972                     u2510:	
  3982  0972                     l2216:	
  3983  0972  086C               	movf	___fltol@sign1,w
  3984  0973  1903               	btfsc	3,2
  3985  0974  2976               	goto	u2521
  3986  0975  2977               	goto	u2520
  3987  0976                     u2521:	
  3988  0976  2982               	goto	l587
  3989  0977                     u2520:	
  3990  0977                     l2218:	
  3991  0977  09E8               	comf	___fltol@f1,f
  3992  0978  09E9               	comf	___fltol@f1+1,f
  3993  0979  09EA               	comf	___fltol@f1+2,f
  3994  097A  09EB               	comf	___fltol@f1+3,f
  3995  097B  0AE8               	incf	___fltol@f1,f
  3996  097C  1903               	skipnz
  3997  097D  0AE9               	incf	___fltol@f1+1,f
  3998  097E  1903               	skipnz
  3999  097F  0AEA               	incf	___fltol@f1+2,f
  4000  0980  1903               	skipnz
  4001  0981  0AEB               	incf	___fltol@f1+3,f
  4002  0982                     l587:	
  4003  0982                     l577:	
  4004  0982  0008               	return
  4005  0983                     __end_of___fltol:	
  4006                           
  4007                           	psect	text11
  4008  0478                     __ptext11:	
  4009 ;; *************** function ___flmul *****************
  4010 ;; Defined at:
  4011 ;;		line 8 in file "C:\Program Files (x86)\Microchip\xc8\v2.10\pic\sources\c90\common\sprcmul.c"
  4012 ;; Parameters:    Size  Location     Type
  4013 ;;  b               4    0[BANK0 ] long 
  4014 ;;  a               4    4[BANK0 ] long 
  4015 ;; Auto vars:     Size  Location     Type
  4016 ;;  prod            4   20[BANK0 ] struct .
  4017 ;;  grs             4   14[BANK0 ] unsigned long 
  4018 ;;  temp            2   24[BANK0 ] struct .
  4019 ;;  bexp            1   19[BANK0 ] unsigned char 
  4020 ;;  aexp            1   18[BANK0 ] unsigned char 
  4021 ;;  sign            1   13[BANK0 ] unsigned char 
  4022 ;; Return value:  Size  Location     Type
  4023 ;;                  4    0[BANK0 ] unsigned char 
  4024 ;; Registers used:
  4025 ;;		wreg, status,2, status,0, btemp+1, pclath, cstack
  4026 ;; Tracked objects:
  4027 ;;		On entry : 0/0
  4028 ;;		On exit  : 0/0
  4029 ;;		Unchanged: 0/0
  4030 ;; Data sizes:     COMMON   BANK0   BANK1   BANK3   BANK2
  4031 ;;      Params:         0       8       0       0       0
  4032 ;;      Locals:         0      13       0       0       0
  4033 ;;      Temps:          0       5       0       0       0
  4034 ;;      Totals:         0      26       0       0       0
  4035 ;;Total ram usage:       26 bytes
  4036 ;; Hardware stack levels used:    1
  4037 ;; Hardware stack levels required when called:    1
  4038 ;; This function calls:
  4039 ;;		__Umul8_16
  4040 ;; This function is called by:
  4041 ;;		_I2C_SHT25_Temperature_Read
  4042 ;;		_I2C_SHT25_Relative_Humidity_Read
  4043 ;; This function uses a non-reentrant model
  4044 ;;
  4045                           
  4046                           
  4047                           ;psect for function ___flmul
  4048  0478                     ___flmul:	
  4049  0478                     l2604:	
  4050                           ;incstack = 0
  4051                           ; Regs used in ___flmul: [wreg+status,2+status,0+btemp+1+pclath+cstack]
  4052                           
  4053  0478  1283               	bcf	3,5	;RP0=0, select bank0
  4054  0479  1303               	bcf	3,6	;RP1=0, select bank0
  4055  047A  0823               	movf	___flmul@b+3,w
  4056  047B  3980               	andlw	128
  4057  047C  00A8               	movwf	??___flmul
  4058  047D  0828               	movf	??___flmul,w
  4059  047E  00AD               	movwf	___flmul@sign
  4060  047F                     l2606:	
  4061  047F  0823               	movf	___flmul@b+3,w
  4062  0480  00A8               	movwf	??___flmul
  4063  0481  0728               	addwf	??___flmul,w
  4064  0482  00A9               	movwf	??___flmul+1
  4065  0483  0829               	movf	??___flmul+1,w
  4066  0484  00B3               	movwf	___flmul@bexp
  4067  0485                     l2608:	
  4068  0485  1FA2               	btfss	___flmul@b+2,7
  4069  0486  2C88               	goto	u3411
  4070  0487  2C89               	goto	u3410
  4071  0488                     u3411:	
  4072  0488  2C8A               	goto	l2612
  4073  0489                     u3410:	
  4074  0489                     l2610:	
  4075  0489  1433               	bsf	___flmul@bexp,0
  4076  048A                     l2612:	
  4077  048A  0833               	movf	___flmul@bexp,w
  4078  048B  1903               	btfsc	3,2
  4079  048C  2C8E               	goto	u3421
  4080  048D  2C8F               	goto	u3420
  4081  048E                     u3421:	
  4082  048E  2C9E               	goto	l2620
  4083  048F                     u3420:	
  4084  048F                     l2614:	
  4085  048F  0A33               	incf	___flmul@bexp,w
  4086  0490  1D03               	btfss	3,2
  4087  0491  2C93               	goto	u3431
  4088  0492  2C94               	goto	u3430
  4089  0493                     u3431:	
  4090  0493  2C9C               	goto	l2618
  4091  0494                     u3430:	
  4092  0494                     l2616:	
  4093  0494  3000               	movlw	0
  4094  0495  00A3               	movwf	___flmul@b+3
  4095  0496  3000               	movlw	0
  4096  0497  00A2               	movwf	___flmul@b+2
  4097  0498  3000               	movlw	0
  4098  0499  00A1               	movwf	___flmul@b+1
  4099  049A  3000               	movlw	0
  4100  049B  00A0               	movwf	___flmul@b
  4101  049C                     l2618:	
  4102  049C  17A2               	bsf	___flmul@b+2,7
  4103  049D  2CA6               	goto	l2622
  4104  049E                     l2620:	
  4105  049E  3000               	movlw	0
  4106  049F  00A3               	movwf	___flmul@b+3
  4107  04A0  3000               	movlw	0
  4108  04A1  00A2               	movwf	___flmul@b+2
  4109  04A2  3000               	movlw	0
  4110  04A3  00A1               	movwf	___flmul@b+1
  4111  04A4  3000               	movlw	0
  4112  04A5  00A0               	movwf	___flmul@b
  4113  04A6                     l2622:	
  4114  04A6  0827               	movf	___flmul@a+3,w
  4115  04A7  3980               	andlw	128
  4116  04A8  00A8               	movwf	??___flmul
  4117  04A9  0828               	movf	??___flmul,w
  4118  04AA  06AD               	xorwf	___flmul@sign,f
  4119  04AB                     l2624:	
  4120  04AB  0827               	movf	___flmul@a+3,w
  4121  04AC  00A8               	movwf	??___flmul
  4122  04AD  0728               	addwf	??___flmul,w
  4123  04AE  00A9               	movwf	??___flmul+1
  4124  04AF  0829               	movf	??___flmul+1,w
  4125  04B0  00B2               	movwf	___flmul@aexp
  4126  04B1                     l2626:	
  4127  04B1  1FA6               	btfss	___flmul@a+2,7
  4128  04B2  2CB4               	goto	u3441
  4129  04B3  2CB5               	goto	u3440
  4130  04B4                     u3441:	
  4131  04B4  2CB6               	goto	l2630
  4132  04B5                     u3440:	
  4133  04B5                     l2628:	
  4134  04B5  1432               	bsf	___flmul@aexp,0
  4135  04B6                     l2630:	
  4136  04B6  0832               	movf	___flmul@aexp,w
  4137  04B7  1903               	btfsc	3,2
  4138  04B8  2CBA               	goto	u3451
  4139  04B9  2CBB               	goto	u3450
  4140  04BA                     u3451:	
  4141  04BA  2CCA               	goto	l2638
  4142  04BB                     u3450:	
  4143  04BB                     l2632:	
  4144  04BB  0A32               	incf	___flmul@aexp,w
  4145  04BC  1D03               	btfss	3,2
  4146  04BD  2CBF               	goto	u3461
  4147  04BE  2CC0               	goto	u3460
  4148  04BF                     u3461:	
  4149  04BF  2CC8               	goto	l2636
  4150  04C0                     u3460:	
  4151  04C0                     l2634:	
  4152  04C0  3000               	movlw	0
  4153  04C1  00A7               	movwf	___flmul@a+3
  4154  04C2  3000               	movlw	0
  4155  04C3  00A6               	movwf	___flmul@a+2
  4156  04C4  3000               	movlw	0
  4157  04C5  00A5               	movwf	___flmul@a+1
  4158  04C6  3000               	movlw	0
  4159  04C7  00A4               	movwf	___flmul@a
  4160  04C8                     l2636:	
  4161  04C8  17A6               	bsf	___flmul@a+2,7
  4162  04C9  2CD2               	goto	l2640
  4163  04CA                     l2638:	
  4164  04CA  3000               	movlw	0
  4165  04CB  00A7               	movwf	___flmul@a+3
  4166  04CC  3000               	movlw	0
  4167  04CD  00A6               	movwf	___flmul@a+2
  4168  04CE  3000               	movlw	0
  4169  04CF  00A5               	movwf	___flmul@a+1
  4170  04D0  3000               	movlw	0
  4171  04D1  00A4               	movwf	___flmul@a
  4172  04D2                     l2640:	
  4173  04D2  0832               	movf	___flmul@aexp,w
  4174  04D3  1903               	btfsc	3,2
  4175  04D4  2CD6               	goto	u3471
  4176  04D5  2CD7               	goto	u3470
  4177  04D6                     u3471:	
  4178  04D6  2CDC               	goto	l2644
  4179  04D7                     u3470:	
  4180  04D7                     l2642:	
  4181  04D7  0833               	movf	___flmul@bexp,w
  4182  04D8  1D03               	btfss	3,2
  4183  04D9  2CDB               	goto	u3481
  4184  04DA  2CDC               	goto	u3480
  4185  04DB                     u3481:	
  4186  04DB  2CE5               	goto	l2648
  4187  04DC                     u3480:	
  4188  04DC                     l2644:	
  4189  04DC  3000               	movlw	0
  4190  04DD  00A3               	movwf	?___flmul+3
  4191  04DE  3000               	movlw	0
  4192  04DF  00A2               	movwf	?___flmul+2
  4193  04E0  3000               	movlw	0
  4194  04E1  00A1               	movwf	?___flmul+1
  4195  04E2  3000               	movlw	0
  4196  04E3  00A0               	movwf	?___flmul
  4197  04E4  2FD8               	goto	l780
  4198  04E5                     l2648:	
  4199  04E5  0820               	movf	___flmul@b,w
  4200  04E6  00A8               	movwf	??___flmul
  4201  04E7  0828               	movf	??___flmul,w
  4202  04E8  00F0               	movwf	__Umul8_16@multiplicand
  4203  04E9  0826               	movf	___flmul@a+2,w
  4204  04EA  160A  118A  2601  120A  118A  	fcall	__Umul8_16
  4205  04EF  0871               	movf	?__Umul8_16+1,w
  4206  04F0  1283               	bcf	3,5	;RP0=0, select bank0
  4207  04F1  1303               	bcf	3,6	;RP1=0, select bank0
  4208  04F2  00B9               	movwf	___flmul@temp+1
  4209  04F3  0870               	movf	?__Umul8_16,w
  4210  04F4  00B8               	movwf	___flmul@temp
  4211  04F5                     l2650:	
  4212  04F5  0838               	movf	___flmul@temp,w
  4213  04F6  00A8               	movwf	??___flmul
  4214  04F7  01A9               	clrf	??___flmul+1
  4215  04F8  01AA               	clrf	??___flmul+2
  4216  04F9  01AB               	clrf	??___flmul+3
  4217  04FA  082B               	movf	??___flmul+3,w
  4218  04FB  00B1               	movwf	___flmul@grs+3
  4219  04FC  082A               	movf	??___flmul+2,w
  4220  04FD  00B0               	movwf	___flmul@grs+2
  4221  04FE  0829               	movf	??___flmul+1,w
  4222  04FF  00AF               	movwf	___flmul@grs+1
  4223  0500  0828               	movf	??___flmul,w
  4224  0501  00AE               	movwf	___flmul@grs
  4225  0502                     l2652:	
  4226  0502  0839               	movf	___flmul@temp+1,w
  4227  0503  00A8               	movwf	??___flmul
  4228  0504  01A9               	clrf	??___flmul+1
  4229  0505  01AA               	clrf	??___flmul+2
  4230  0506  01AB               	clrf	??___flmul+3
  4231  0507  082B               	movf	??___flmul+3,w
  4232  0508  00B7               	movwf	___flmul@prod+3
  4233  0509  082A               	movf	??___flmul+2,w
  4234  050A  00B6               	movwf	___flmul@prod+2
  4235  050B  0829               	movf	??___flmul+1,w
  4236  050C  00B5               	movwf	___flmul@prod+1
  4237  050D  0828               	movf	??___flmul,w
  4238  050E  00B4               	movwf	___flmul@prod
  4239  050F  0821               	movf	___flmul@b+1,w
  4240  0510  00A8               	movwf	??___flmul
  4241  0511  0828               	movf	??___flmul,w
  4242  0512  00F0               	movwf	__Umul8_16@multiplicand
  4243  0513  0825               	movf	___flmul@a+1,w
  4244  0514  160A  118A  2601  120A  118A  	fcall	__Umul8_16
  4245  0519  0871               	movf	?__Umul8_16+1,w
  4246  051A  1283               	bcf	3,5	;RP0=0, select bank0
  4247  051B  1303               	bcf	3,6	;RP1=0, select bank0
  4248  051C  00B9               	movwf	___flmul@temp+1
  4249  051D  0870               	movf	?__Umul8_16,w
  4250  051E  00B8               	movwf	___flmul@temp
  4251  051F                     l2654:	
  4252  051F  0838               	movf	___flmul@temp,w
  4253  0520  00A8               	movwf	??___flmul
  4254  0521  01A9               	clrf	??___flmul+1
  4255  0522  01AA               	clrf	??___flmul+2
  4256  0523  01AB               	clrf	??___flmul+3
  4257  0524  0828               	movf	??___flmul,w
  4258  0525  07AE               	addwf	___flmul@grs,f
  4259  0526  0829               	movf	??___flmul+1,w
  4260  0527  1103               	clrz
  4261  0528  1803               	skipnc
  4262  0529  3E01               	addlw	1
  4263  052A  1903               	skipnz
  4264  052B  2D2D               	goto	u3491
  4265  052C  07AF               	addwf	___flmul@grs+1,f
  4266  052D                     u3491:	
  4267  052D  082A               	movf	??___flmul+2,w
  4268  052E  1103               	clrz
  4269  052F  1803               	skipnc
  4270  0530  3E01               	addlw	1
  4271  0531  1903               	skipnz
  4272  0532  2D34               	goto	u3492
  4273  0533  07B0               	addwf	___flmul@grs+2,f
  4274  0534                     u3492:	
  4275  0534  082B               	movf	??___flmul+3,w
  4276  0535  1103               	clrz
  4277  0536  1803               	skipnc
  4278  0537  3E01               	addlw	1
  4279  0538  1903               	skipnz
  4280  0539  2D3B               	goto	u3493
  4281  053A  07B1               	addwf	___flmul@grs+3,f
  4282  053B                     u3493:	
  4283  053B                     l2656:	
  4284  053B  0839               	movf	___flmul@temp+1,w
  4285  053C  00A8               	movwf	??___flmul
  4286  053D  01A9               	clrf	??___flmul+1
  4287  053E  01AA               	clrf	??___flmul+2
  4288  053F  01AB               	clrf	??___flmul+3
  4289  0540  0828               	movf	??___flmul,w
  4290  0541  07B4               	addwf	___flmul@prod,f
  4291  0542  0829               	movf	??___flmul+1,w
  4292  0543  1103               	clrz
  4293  0544  1803               	skipnc
  4294  0545  3E01               	addlw	1
  4295  0546  1903               	skipnz
  4296  0547  2D49               	goto	u3501
  4297  0548  07B5               	addwf	___flmul@prod+1,f
  4298  0549                     u3501:	
  4299  0549  082A               	movf	??___flmul+2,w
  4300  054A  1103               	clrz
  4301  054B  1803               	skipnc
  4302  054C  3E01               	addlw	1
  4303  054D  1903               	skipnz
  4304  054E  2D50               	goto	u3502
  4305  054F  07B6               	addwf	___flmul@prod+2,f
  4306  0550                     u3502:	
  4307  0550  082B               	movf	??___flmul+3,w
  4308  0551  1103               	clrz
  4309  0552  1803               	skipnc
  4310  0553  3E01               	addlw	1
  4311  0554  1903               	skipnz
  4312  0555  2D57               	goto	u3503
  4313  0556  07B7               	addwf	___flmul@prod+3,f
  4314  0557                     u3503:	
  4315  0557  0822               	movf	___flmul@b+2,w
  4316  0558  00A8               	movwf	??___flmul
  4317  0559  0828               	movf	??___flmul,w
  4318  055A  00F0               	movwf	__Umul8_16@multiplicand
  4319  055B  0824               	movf	___flmul@a,w
  4320  055C  160A  118A  2601  120A  118A  	fcall	__Umul8_16
  4321  0561  0871               	movf	?__Umul8_16+1,w
  4322  0562  1283               	bcf	3,5	;RP0=0, select bank0
  4323  0563  1303               	bcf	3,6	;RP1=0, select bank0
  4324  0564  00B9               	movwf	___flmul@temp+1
  4325  0565  0870               	movf	?__Umul8_16,w
  4326  0566  00B8               	movwf	___flmul@temp
  4327  0567                     l2658:	
  4328  0567  0838               	movf	___flmul@temp,w
  4329  0568  00A8               	movwf	??___flmul
  4330  0569  01A9               	clrf	??___flmul+1
  4331  056A  01AA               	clrf	??___flmul+2
  4332  056B  01AB               	clrf	??___flmul+3
  4333  056C  0828               	movf	??___flmul,w
  4334  056D  07AE               	addwf	___flmul@grs,f
  4335  056E  0829               	movf	??___flmul+1,w
  4336  056F  1103               	clrz
  4337  0570  1803               	skipnc
  4338  0571  3E01               	addlw	1
  4339  0572  1903               	skipnz
  4340  0573  2D75               	goto	u3511
  4341  0574  07AF               	addwf	___flmul@grs+1,f
  4342  0575                     u3511:	
  4343  0575  082A               	movf	??___flmul+2,w
  4344  0576  1103               	clrz
  4345  0577  1803               	skipnc
  4346  0578  3E01               	addlw	1
  4347  0579  1903               	skipnz
  4348  057A  2D7C               	goto	u3512
  4349  057B  07B0               	addwf	___flmul@grs+2,f
  4350  057C                     u3512:	
  4351  057C  082B               	movf	??___flmul+3,w
  4352  057D  1103               	clrz
  4353  057E  1803               	skipnc
  4354  057F  3E01               	addlw	1
  4355  0580  1903               	skipnz
  4356  0581  2D83               	goto	u3513
  4357  0582  07B1               	addwf	___flmul@grs+3,f
  4358  0583                     u3513:	
  4359  0583                     l2660:	
  4360  0583  0839               	movf	___flmul@temp+1,w
  4361  0584  00A8               	movwf	??___flmul
  4362  0585  01A9               	clrf	??___flmul+1
  4363  0586  01AA               	clrf	??___flmul+2
  4364  0587  01AB               	clrf	??___flmul+3
  4365  0588  0828               	movf	??___flmul,w
  4366  0589  07B4               	addwf	___flmul@prod,f
  4367  058A  0829               	movf	??___flmul+1,w
  4368  058B  1103               	clrz
  4369  058C  1803               	skipnc
  4370  058D  3E01               	addlw	1
  4371  058E  1903               	skipnz
  4372  058F  2D91               	goto	u3521
  4373  0590  07B5               	addwf	___flmul@prod+1,f
  4374  0591                     u3521:	
  4375  0591  082A               	movf	??___flmul+2,w
  4376  0592  1103               	clrz
  4377  0593  1803               	skipnc
  4378  0594  3E01               	addlw	1
  4379  0595  1903               	skipnz
  4380  0596  2D98               	goto	u3522
  4381  0597  07B6               	addwf	___flmul@prod+2,f
  4382  0598                     u3522:	
  4383  0598  082B               	movf	??___flmul+3,w
  4384  0599  1103               	clrz
  4385  059A  1803               	skipnc
  4386  059B  3E01               	addlw	1
  4387  059C  1903               	skipnz
  4388  059D  2D9F               	goto	u3523
  4389  059E  07B7               	addwf	___flmul@prod+3,f
  4390  059F                     u3523:	
  4391  059F                     l2662:	
  4392  059F  3008               	movlw	8
  4393  05A0  00A8               	movwf	??___flmul
  4394  05A1                     u3535:	
  4395  05A1  1003               	clrc
  4396  05A2  0DAE               	rlf	___flmul@grs,f
  4397  05A3  0DAF               	rlf	___flmul@grs+1,f
  4398  05A4  0DB0               	rlf	___flmul@grs+2,f
  4399  05A5  0DB1               	rlf	___flmul@grs+3,f
  4400  05A6  0BA8               	decfsz	??___flmul,f
  4401  05A7  2DA1               	goto	u3535
  4402  05A8                     l2664:	
  4403  05A8  0821               	movf	___flmul@b+1,w
  4404  05A9  00A8               	movwf	??___flmul
  4405  05AA  0828               	movf	??___flmul,w
  4406  05AB  00F0               	movwf	__Umul8_16@multiplicand
  4407  05AC  0824               	movf	___flmul@a,w
  4408  05AD  160A  118A  2601  120A  118A  	fcall	__Umul8_16
  4409  05B2  0871               	movf	?__Umul8_16+1,w
  4410  05B3  1283               	bcf	3,5	;RP0=0, select bank0
  4411  05B4  1303               	bcf	3,6	;RP1=0, select bank0
  4412  05B5  00B9               	movwf	___flmul@temp+1
  4413  05B6  0870               	movf	?__Umul8_16,w
  4414  05B7  00B8               	movwf	___flmul@temp
  4415  05B8                     l2666:	
  4416  05B8  0838               	movf	___flmul@temp,w
  4417  05B9  00A8               	movwf	??___flmul
  4418  05BA  0839               	movf	___flmul@temp+1,w
  4419  05BB  00A9               	movwf	??___flmul+1
  4420  05BC  01AA               	clrf	??___flmul+2
  4421  05BD  01AB               	clrf	??___flmul+3
  4422  05BE  0828               	movf	??___flmul,w
  4423  05BF  07AE               	addwf	___flmul@grs,f
  4424  05C0  0829               	movf	??___flmul+1,w
  4425  05C1  1103               	clrz
  4426  05C2  1803               	skipnc
  4427  05C3  3E01               	addlw	1
  4428  05C4  1903               	skipnz
  4429  05C5  2DC7               	goto	u3541
  4430  05C6  07AF               	addwf	___flmul@grs+1,f
  4431  05C7                     u3541:	
  4432  05C7  082A               	movf	??___flmul+2,w
  4433  05C8  1103               	clrz
  4434  05C9  1803               	skipnc
  4435  05CA  3E01               	addlw	1
  4436  05CB  1903               	skipnz
  4437  05CC  2DCE               	goto	u3542
  4438  05CD  07B0               	addwf	___flmul@grs+2,f
  4439  05CE                     u3542:	
  4440  05CE  082B               	movf	??___flmul+3,w
  4441  05CF  1103               	clrz
  4442  05D0  1803               	skipnc
  4443  05D1  3E01               	addlw	1
  4444  05D2  1903               	skipnz
  4445  05D3  2DD5               	goto	u3543
  4446  05D4  07B1               	addwf	___flmul@grs+3,f
  4447  05D5                     u3543:	
  4448  05D5                     l2668:	
  4449  05D5  0820               	movf	___flmul@b,w
  4450  05D6  00A8               	movwf	??___flmul
  4451  05D7  0828               	movf	??___flmul,w
  4452  05D8  00F0               	movwf	__Umul8_16@multiplicand
  4453  05D9  0825               	movf	___flmul@a+1,w
  4454  05DA  160A  118A  2601  120A  118A  	fcall	__Umul8_16
  4455  05DF  0871               	movf	?__Umul8_16+1,w
  4456  05E0  1283               	bcf	3,5	;RP0=0, select bank0
  4457  05E1  1303               	bcf	3,6	;RP1=0, select bank0
  4458  05E2  00B9               	movwf	___flmul@temp+1
  4459  05E3  0870               	movf	?__Umul8_16,w
  4460  05E4  00B8               	movwf	___flmul@temp
  4461  05E5                     l2670:	
  4462  05E5  0838               	movf	___flmul@temp,w
  4463  05E6  00A8               	movwf	??___flmul
  4464  05E7  0839               	movf	___flmul@temp+1,w
  4465  05E8  00A9               	movwf	??___flmul+1
  4466  05E9  01AA               	clrf	??___flmul+2
  4467  05EA  01AB               	clrf	??___flmul+3
  4468  05EB  0828               	movf	??___flmul,w
  4469  05EC  07AE               	addwf	___flmul@grs,f
  4470  05ED  0829               	movf	??___flmul+1,w
  4471  05EE  1103               	clrz
  4472  05EF  1803               	skipnc
  4473  05F0  3E01               	addlw	1
  4474  05F1  1903               	skipnz
  4475  05F2  2DF4               	goto	u3551
  4476  05F3  07AF               	addwf	___flmul@grs+1,f
  4477  05F4                     u3551:	
  4478  05F4  082A               	movf	??___flmul+2,w
  4479  05F5  1103               	clrz
  4480  05F6  1803               	skipnc
  4481  05F7  3E01               	addlw	1
  4482  05F8  1903               	skipnz
  4483  05F9  2DFB               	goto	u3552
  4484  05FA  07B0               	addwf	___flmul@grs+2,f
  4485  05FB                     u3552:	
  4486  05FB  082B               	movf	??___flmul+3,w
  4487  05FC  1103               	clrz
  4488  05FD  1803               	skipnc
  4489  05FE  3E01               	addlw	1
  4490  05FF  1903               	skipnz
  4491  0600  2E02               	goto	u3553
  4492  0601  07B1               	addwf	___flmul@grs+3,f
  4493  0602                     u3553:	
  4494  0602                     l2672:	
  4495  0602  3008               	movlw	8
  4496  0603  00A8               	movwf	??___flmul
  4497  0604                     u3565:	
  4498  0604  1003               	clrc
  4499  0605  0DAE               	rlf	___flmul@grs,f
  4500  0606  0DAF               	rlf	___flmul@grs+1,f
  4501  0607  0DB0               	rlf	___flmul@grs+2,f
  4502  0608  0DB1               	rlf	___flmul@grs+3,f
  4503  0609  0BA8               	decfsz	??___flmul,f
  4504  060A  2E04               	goto	u3565
  4505  060B  0820               	movf	___flmul@b,w
  4506  060C  00A8               	movwf	??___flmul
  4507  060D  0828               	movf	??___flmul,w
  4508  060E  00F0               	movwf	__Umul8_16@multiplicand
  4509  060F  0824               	movf	___flmul@a,w
  4510  0610  160A  118A  2601  120A  118A  	fcall	__Umul8_16
  4511  0615  0871               	movf	?__Umul8_16+1,w
  4512  0616  1283               	bcf	3,5	;RP0=0, select bank0
  4513  0617  1303               	bcf	3,6	;RP1=0, select bank0
  4514  0618  00B9               	movwf	___flmul@temp+1
  4515  0619  0870               	movf	?__Umul8_16,w
  4516  061A  00B8               	movwf	___flmul@temp
  4517  061B                     l2674:	
  4518  061B  0838               	movf	___flmul@temp,w
  4519  061C  00A8               	movwf	??___flmul
  4520  061D  0839               	movf	___flmul@temp+1,w
  4521  061E  00A9               	movwf	??___flmul+1
  4522  061F  01AA               	clrf	??___flmul+2
  4523  0620  01AB               	clrf	??___flmul+3
  4524  0621  0828               	movf	??___flmul,w
  4525  0622  07AE               	addwf	___flmul@grs,f
  4526  0623  0829               	movf	??___flmul+1,w
  4527  0624  1103               	clrz
  4528  0625  1803               	skipnc
  4529  0626  3E01               	addlw	1
  4530  0627  1903               	skipnz
  4531  0628  2E2A               	goto	u3571
  4532  0629  07AF               	addwf	___flmul@grs+1,f
  4533  062A                     u3571:	
  4534  062A  082A               	movf	??___flmul+2,w
  4535  062B  1103               	clrz
  4536  062C  1803               	skipnc
  4537  062D  3E01               	addlw	1
  4538  062E  1903               	skipnz
  4539  062F  2E31               	goto	u3572
  4540  0630  07B0               	addwf	___flmul@grs+2,f
  4541  0631                     u3572:	
  4542  0631  082B               	movf	??___flmul+3,w
  4543  0632  1103               	clrz
  4544  0633  1803               	skipnc
  4545  0634  3E01               	addlw	1
  4546  0635  1903               	skipnz
  4547  0636  2E38               	goto	u3573
  4548  0637  07B1               	addwf	___flmul@grs+3,f
  4549  0638                     u3573:	
  4550  0638                     l2676:	
  4551  0638  0821               	movf	___flmul@b+1,w
  4552  0639  00A8               	movwf	??___flmul
  4553  063A  0828               	movf	??___flmul,w
  4554  063B  00F0               	movwf	__Umul8_16@multiplicand
  4555  063C  0826               	movf	___flmul@a+2,w
  4556  063D  160A  118A  2601  120A  118A  	fcall	__Umul8_16
  4557  0642  0871               	movf	?__Umul8_16+1,w
  4558  0643  1283               	bcf	3,5	;RP0=0, select bank0
  4559  0644  1303               	bcf	3,6	;RP1=0, select bank0
  4560  0645  00B9               	movwf	___flmul@temp+1
  4561  0646  0870               	movf	?__Umul8_16,w
  4562  0647  00B8               	movwf	___flmul@temp
  4563  0648  0838               	movf	___flmul@temp,w
  4564  0649  00A8               	movwf	??___flmul
  4565  064A  0839               	movf	___flmul@temp+1,w
  4566  064B  00A9               	movwf	??___flmul+1
  4567  064C  01AA               	clrf	??___flmul+2
  4568  064D  01AB               	clrf	??___flmul+3
  4569  064E  0828               	movf	??___flmul,w
  4570  064F  07B4               	addwf	___flmul@prod,f
  4571  0650  0829               	movf	??___flmul+1,w
  4572  0651  1103               	clrz
  4573  0652  1803               	skipnc
  4574  0653  3E01               	addlw	1
  4575  0654  1903               	skipnz
  4576  0655  2E57               	goto	u3581
  4577  0656  07B5               	addwf	___flmul@prod+1,f
  4578  0657                     u3581:	
  4579  0657  082A               	movf	??___flmul+2,w
  4580  0658  1103               	clrz
  4581  0659  1803               	skipnc
  4582  065A  3E01               	addlw	1
  4583  065B  1903               	skipnz
  4584  065C  2E5E               	goto	u3582
  4585  065D  07B6               	addwf	___flmul@prod+2,f
  4586  065E                     u3582:	
  4587  065E  082B               	movf	??___flmul+3,w
  4588  065F  1103               	clrz
  4589  0660  1803               	skipnc
  4590  0661  3E01               	addlw	1
  4591  0662  1903               	skipnz
  4592  0663  2E65               	goto	u3583
  4593  0664  07B7               	addwf	___flmul@prod+3,f
  4594  0665                     u3583:	
  4595  0665                     l2678:	
  4596  0665  0822               	movf	___flmul@b+2,w
  4597  0666  00A8               	movwf	??___flmul
  4598  0667  0828               	movf	??___flmul,w
  4599  0668  00F0               	movwf	__Umul8_16@multiplicand
  4600  0669  0825               	movf	___flmul@a+1,w
  4601  066A  160A  118A  2601  120A  118A  	fcall	__Umul8_16
  4602  066F  0871               	movf	?__Umul8_16+1,w
  4603  0670  1283               	bcf	3,5	;RP0=0, select bank0
  4604  0671  1303               	bcf	3,6	;RP1=0, select bank0
  4605  0672  00B9               	movwf	___flmul@temp+1
  4606  0673  0870               	movf	?__Umul8_16,w
  4607  0674  00B8               	movwf	___flmul@temp
  4608  0675                     l2680:	
  4609  0675  0838               	movf	___flmul@temp,w
  4610  0676  00A8               	movwf	??___flmul
  4611  0677  0839               	movf	___flmul@temp+1,w
  4612  0678  00A9               	movwf	??___flmul+1
  4613  0679  01AA               	clrf	??___flmul+2
  4614  067A  01AB               	clrf	??___flmul+3
  4615  067B  0828               	movf	??___flmul,w
  4616  067C  07B4               	addwf	___flmul@prod,f
  4617  067D  0829               	movf	??___flmul+1,w
  4618  067E  1103               	clrz
  4619  067F  1803               	skipnc
  4620  0680  3E01               	addlw	1
  4621  0681  1903               	skipnz
  4622  0682  2E84               	goto	u3591
  4623  0683  07B5               	addwf	___flmul@prod+1,f
  4624  0684                     u3591:	
  4625  0684  082A               	movf	??___flmul+2,w
  4626  0685  1103               	clrz
  4627  0686  1803               	skipnc
  4628  0687  3E01               	addlw	1
  4629  0688  1903               	skipnz
  4630  0689  2E8B               	goto	u3592
  4631  068A  07B6               	addwf	___flmul@prod+2,f
  4632  068B                     u3592:	
  4633  068B  082B               	movf	??___flmul+3,w
  4634  068C  1103               	clrz
  4635  068D  1803               	skipnc
  4636  068E  3E01               	addlw	1
  4637  068F  1903               	skipnz
  4638  0690  2E92               	goto	u3593
  4639  0691  07B7               	addwf	___flmul@prod+3,f
  4640  0692                     u3593:	
  4641  0692  0822               	movf	___flmul@b+2,w
  4642  0693  00A8               	movwf	??___flmul
  4643  0694  0828               	movf	??___flmul,w
  4644  0695  00F0               	movwf	__Umul8_16@multiplicand
  4645  0696  0826               	movf	___flmul@a+2,w
  4646  0697  160A  118A  2601  120A  118A  	fcall	__Umul8_16
  4647  069C  0871               	movf	?__Umul8_16+1,w
  4648  069D  1283               	bcf	3,5	;RP0=0, select bank0
  4649  069E  1303               	bcf	3,6	;RP1=0, select bank0
  4650  069F  00B9               	movwf	___flmul@temp+1
  4651  06A0  0870               	movf	?__Umul8_16,w
  4652  06A1  00B8               	movwf	___flmul@temp
  4653  06A2                     l2682:	
  4654  06A2  0838               	movf	___flmul@temp,w
  4655  06A3  00A8               	movwf	??___flmul
  4656  06A4  0839               	movf	___flmul@temp+1,w
  4657  06A5  00A9               	movwf	??___flmul+1
  4658  06A6  01AA               	clrf	??___flmul+2
  4659  06A7  01AB               	clrf	??___flmul+3
  4660  06A8  3008               	movlw	8
  4661  06A9                     u3605:	
  4662  06A9  1003               	clrc
  4663  06AA  0DA8               	rlf	??___flmul,f
  4664  06AB  0DA9               	rlf	??___flmul+1,f
  4665  06AC  0DAA               	rlf	??___flmul+2,f
  4666  06AD  0DAB               	rlf	??___flmul+3,f
  4667  06AE                     u3600:	
  4668  06AE  3EFF               	addlw	-1
  4669  06AF  1D03               	skipz
  4670  06B0  2EA9               	goto	u3605
  4671  06B1  0828               	movf	??___flmul,w
  4672  06B2  07B4               	addwf	___flmul@prod,f
  4673  06B3  0829               	movf	??___flmul+1,w
  4674  06B4  1103               	clrz
  4675  06B5  1803               	skipnc
  4676  06B6  3E01               	addlw	1
  4677  06B7  1903               	skipnz
  4678  06B8  2EBA               	goto	u3611
  4679  06B9  07B5               	addwf	___flmul@prod+1,f
  4680  06BA                     u3611:	
  4681  06BA  082A               	movf	??___flmul+2,w
  4682  06BB  1103               	clrz
  4683  06BC  1803               	skipnc
  4684  06BD  3E01               	addlw	1
  4685  06BE  1903               	skipnz
  4686  06BF  2EC1               	goto	u3612
  4687  06C0  07B6               	addwf	___flmul@prod+2,f
  4688  06C1                     u3612:	
  4689  06C1  082B               	movf	??___flmul+3,w
  4690  06C2  1103               	clrz
  4691  06C3  1803               	skipnc
  4692  06C4  3E01               	addlw	1
  4693  06C5  1903               	skipnz
  4694  06C6  2EC8               	goto	u3613
  4695  06C7  07B7               	addwf	___flmul@prod+3,f
  4696  06C8                     u3613:	
  4697  06C8                     l2684:	
  4698  06C8  082E               	movf	___flmul@grs,w
  4699  06C9  00A8               	movwf	??___flmul
  4700  06CA  082F               	movf	___flmul@grs+1,w
  4701  06CB  00A9               	movwf	??___flmul+1
  4702  06CC  0830               	movf	___flmul@grs+2,w
  4703  06CD  00AA               	movwf	??___flmul+2
  4704  06CE  0831               	movf	___flmul@grs+3,w
  4705  06CF  00AB               	movwf	??___flmul+3
  4706  06D0  3018               	movlw	24
  4707  06D1                     u3625:	
  4708  06D1  1003               	clrc
  4709  06D2  0CAB               	rrf	??___flmul+3,f
  4710  06D3  0CAA               	rrf	??___flmul+2,f
  4711  06D4  0CA9               	rrf	??___flmul+1,f
  4712  06D5  0CA8               	rrf	??___flmul,f
  4713  06D6                     u3620:	
  4714  06D6  3EFF               	addlw	-1
  4715  06D7  1D03               	skipz
  4716  06D8  2ED1               	goto	u3625
  4717  06D9  0828               	movf	??___flmul,w
  4718  06DA  07B4               	addwf	___flmul@prod,f
  4719  06DB  0829               	movf	??___flmul+1,w
  4720  06DC  1103               	clrz
  4721  06DD  1803               	skipnc
  4722  06DE  3E01               	addlw	1
  4723  06DF  1903               	skipnz
  4724  06E0  2EE2               	goto	u3631
  4725  06E1  07B5               	addwf	___flmul@prod+1,f
  4726  06E2                     u3631:	
  4727  06E2  082A               	movf	??___flmul+2,w
  4728  06E3  1103               	clrz
  4729  06E4  1803               	skipnc
  4730  06E5  3E01               	addlw	1
  4731  06E6  1903               	skipnz
  4732  06E7  2EE9               	goto	u3632
  4733  06E8  07B6               	addwf	___flmul@prod+2,f
  4734  06E9                     u3632:	
  4735  06E9  082B               	movf	??___flmul+3,w
  4736  06EA  1103               	clrz
  4737  06EB  1803               	skipnc
  4738  06EC  3E01               	addlw	1
  4739  06ED  1903               	skipnz
  4740  06EE  2EF0               	goto	u3633
  4741  06EF  07B7               	addwf	___flmul@prod+3,f
  4742  06F0                     u3633:	
  4743  06F0                     l2686:	
  4744  06F0  3008               	movlw	8
  4745  06F1  00A8               	movwf	??___flmul
  4746  06F2                     u3645:	
  4747  06F2  1003               	clrc
  4748  06F3  0DAE               	rlf	___flmul@grs,f
  4749  06F4  0DAF               	rlf	___flmul@grs+1,f
  4750  06F5  0DB0               	rlf	___flmul@grs+2,f
  4751  06F6  0DB1               	rlf	___flmul@grs+3,f
  4752  06F7  0BA8               	decfsz	??___flmul,f
  4753  06F8  2EF2               	goto	u3645
  4754  06F9                     l2688:	
  4755  06F9  0833               	movf	___flmul@bexp,w
  4756  06FA  0732               	addwf	___flmul@aexp,w
  4757  06FB  00A8               	movwf	??___flmul
  4758  06FC  01A9               	clrf	??___flmul+1
  4759  06FD  0DA9               	rlf	??___flmul+1,f
  4760  06FE  0828               	movf	??___flmul,w
  4761  06FF  3E82               	addlw	130
  4762  0700  00B8               	movwf	___flmul@temp
  4763  0701  0829               	movf	??___flmul+1,w
  4764  0702  1803               	skipnc
  4765  0703  3E01               	addlw	1
  4766  0704  3EFF               	addlw	255
  4767  0705  00B9               	movwf	___flmul@temp+1
  4768  0706  2F24               	goto	l2700
  4769  0707                     l2690:	
  4770  0707  3001               	movlw	1
  4771  0708  00A8               	movwf	??___flmul
  4772  0709                     u3655:	
  4773  0709  1003               	clrc
  4774  070A  0DB4               	rlf	___flmul@prod,f
  4775  070B  0DB5               	rlf	___flmul@prod+1,f
  4776  070C  0DB6               	rlf	___flmul@prod+2,f
  4777  070D  0DB7               	rlf	___flmul@prod+3,f
  4778  070E  0BA8               	decfsz	??___flmul,f
  4779  070F  2F09               	goto	u3655
  4780  0710                     l2692:	
  4781  0710  1FB1               	btfss	___flmul@grs+3,7
  4782  0711  2F13               	goto	u3661
  4783  0712  2F14               	goto	u3660
  4784  0713                     u3661:	
  4785  0713  2F15               	goto	l2696
  4786  0714                     u3660:	
  4787  0714                     l2694:	
  4788  0714  1434               	bsf	___flmul@prod,0
  4789  0715                     l2696:	
  4790  0715  3001               	movlw	1
  4791  0716  00A8               	movwf	??___flmul
  4792  0717                     u3675:	
  4793  0717  1003               	clrc
  4794  0718  0DAE               	rlf	___flmul@grs,f
  4795  0719  0DAF               	rlf	___flmul@grs+1,f
  4796  071A  0DB0               	rlf	___flmul@grs+2,f
  4797  071B  0DB1               	rlf	___flmul@grs+3,f
  4798  071C  0BA8               	decfsz	??___flmul,f
  4799  071D  2F17               	goto	u3675
  4800  071E                     l2698:	
  4801  071E  30FF               	movlw	255
  4802  071F  07B8               	addwf	___flmul@temp,f
  4803  0720  1803               	skipnc
  4804  0721  0AB9               	incf	___flmul@temp+1,f
  4805  0722  30FF               	movlw	255
  4806  0723  07B9               	addwf	___flmul@temp+1,f
  4807  0724                     l2700:	
  4808  0724  1FB6               	btfss	___flmul@prod+2,7
  4809  0725  2F27               	goto	u3681
  4810  0726  2F28               	goto	u3680
  4811  0727                     u3681:	
  4812  0727  2F07               	goto	l2690
  4813  0728                     u3680:	
  4814  0728                     l2702:	
  4815  0728  01B2               	clrf	___flmul@aexp
  4816  0729                     l2704:	
  4817  0729  1FB1               	btfss	___flmul@grs+3,7
  4818  072A  2F2C               	goto	u3691
  4819  072B  2F2D               	goto	u3690
  4820  072C                     u3691:	
  4821  072C  2F49               	goto	l2712
  4822  072D                     u3690:	
  4823  072D                     l2706:	
  4824  072D  30FF               	movlw	255
  4825  072E  052E               	andwf	___flmul@grs,w
  4826  072F  00A8               	movwf	??___flmul
  4827  0730  30FF               	movlw	255
  4828  0731  052F               	andwf	___flmul@grs+1,w
  4829  0732  00A9               	movwf	??___flmul+1
  4830  0733  30FF               	movlw	255
  4831  0734  0530               	andwf	___flmul@grs+2,w
  4832  0735  00AA               	movwf	??___flmul+2
  4833  0736  307F               	movlw	127
  4834  0737  0531               	andwf	___flmul@grs+3,w
  4835  0738  00AB               	movwf	??___flmul+3
  4836  0739  082B               	movf	??___flmul+3,w
  4837  073A  042A               	iorwf	??___flmul+2,w
  4838  073B  0429               	iorwf	??___flmul+1,w
  4839  073C  0428               	iorwf	??___flmul,w
  4840  073D  1903               	skipnz
  4841  073E  2F40               	goto	u3701
  4842  073F  2F41               	goto	u3700
  4843  0740                     u3701:	
  4844  0740  2F44               	goto	l786
  4845  0741                     u3700:	
  4846  0741                     l2708:	
  4847  0741  01B2               	clrf	___flmul@aexp
  4848  0742  0AB2               	incf	___flmul@aexp,f
  4849  0743  2F49               	goto	l2712
  4850  0744                     l786:	
  4851  0744  1C34               	btfss	___flmul@prod,0
  4852  0745  2F47               	goto	u3711
  4853  0746  2F48               	goto	u3710
  4854  0747                     u3711:	
  4855  0747  2F49               	goto	l2712
  4856  0748                     u3710:	
  4857  0748  2F41               	goto	l2708
  4858  0749                     l2712:	
  4859  0749  0832               	movf	___flmul@aexp,w
  4860  074A  1903               	btfsc	3,2
  4861  074B  2F4D               	goto	u3721
  4862  074C  2F4E               	goto	u3720
  4863  074D                     u3721:	
  4864  074D  2F7F               	goto	l2722
  4865  074E                     u3720:	
  4866  074E                     l2714:	
  4867  074E  3001               	movlw	1
  4868  074F  07B4               	addwf	___flmul@prod,f
  4869  0750  3000               	movlw	0
  4870  0751  1803               	skipnc
  4871  0752  3001               	movlw	1
  4872  0753  07B5               	addwf	___flmul@prod+1,f
  4873  0754  3000               	movlw	0
  4874  0755  1803               	skipnc
  4875  0756  3001               	movlw	1
  4876  0757  07B6               	addwf	___flmul@prod+2,f
  4877  0758  3000               	movlw	0
  4878  0759  1803               	skipnc
  4879  075A  3001               	movlw	1
  4880  075B  07B7               	addwf	___flmul@prod+3,f
  4881  075C                     l2716:	
  4882  075C  1C37               	btfss	___flmul@prod+3,0
  4883  075D  2F5F               	goto	u3731
  4884  075E  2F60               	goto	u3730
  4885  075F                     u3731:	
  4886  075F  2F7F               	goto	l2722
  4887  0760                     u3730:	
  4888  0760                     l2718:	
  4889  0760  0834               	movf	___flmul@prod,w
  4890  0761  00A8               	movwf	??___flmul
  4891  0762  0835               	movf	___flmul@prod+1,w
  4892  0763  00A9               	movwf	??___flmul+1
  4893  0764  0836               	movf	___flmul@prod+2,w
  4894  0765  00AA               	movwf	??___flmul+2
  4895  0766  0837               	movf	___flmul@prod+3,w
  4896  0767  00AB               	movwf	??___flmul+3
  4897  0768  3001               	movlw	1
  4898  0769  00AC               	movwf	??___flmul+4
  4899  076A                     u3745:	
  4900  076A  0D2B               	rlf	??___flmul+3,w
  4901  076B  0CAB               	rrf	??___flmul+3,f
  4902  076C  0CAA               	rrf	??___flmul+2,f
  4903  076D  0CA9               	rrf	??___flmul+1,f
  4904  076E  0CA8               	rrf	??___flmul,f
  4905  076F                     u3740:	
  4906  076F  0BAC               	decfsz	??___flmul+4,f
  4907  0770  2F6A               	goto	u3745
  4908  0771  082B               	movf	??___flmul+3,w
  4909  0772  00B7               	movwf	___flmul@prod+3
  4910  0773  082A               	movf	??___flmul+2,w
  4911  0774  00B6               	movwf	___flmul@prod+2
  4912  0775  0829               	movf	??___flmul+1,w
  4913  0776  00B5               	movwf	___flmul@prod+1
  4914  0777  0828               	movf	??___flmul,w
  4915  0778  00B4               	movwf	___flmul@prod
  4916  0779                     l2720:	
  4917  0779  3001               	movlw	1
  4918  077A  07B8               	addwf	___flmul@temp,f
  4919  077B  1803               	skipnc
  4920  077C  0AB9               	incf	___flmul@temp+1,f
  4921  077D  3000               	movlw	0
  4922  077E  07B9               	addwf	___flmul@temp+1,f
  4923  077F                     l2722:	
  4924  077F  0839               	movf	___flmul@temp+1,w
  4925  0780  3A80               	xorlw	128
  4926  0781  00FF               	movwf	btemp+1
  4927  0782  3080               	movlw	128
  4928  0783  027F               	subwf	btemp+1,w
  4929  0784  1D03               	skipz
  4930  0785  2F88               	goto	u3755
  4931  0786  30FF               	movlw	255
  4932  0787  0238               	subwf	___flmul@temp,w
  4933  0788                     u3755:	
  4934  0788  1C03               	skipc
  4935  0789  2F8B               	goto	u3751
  4936  078A  2F8C               	goto	u3750
  4937  078B                     u3751:	
  4938  078B  2F97               	goto	l2726
  4939  078C                     u3750:	
  4940  078C                     l2724:	
  4941  078C  307F               	movlw	127
  4942  078D  1283               	bcf	3,5	;RP0=0, select bank0
  4943  078E  1303               	bcf	3,6	;RP1=0, select bank0
  4944  078F  00B7               	movwf	___flmul@prod+3
  4945  0790  3080               	movlw	128
  4946  0791  00B6               	movwf	___flmul@prod+2
  4947  0792  3000               	movlw	0
  4948  0793  00B5               	movwf	___flmul@prod+1
  4949  0794  3000               	movlw	0
  4950  0795  00B4               	movwf	___flmul@prod
  4951  0796  2FCC               	goto	l792
  4952  0797                     l2726:	
  4953  0797  1283               	bcf	3,5	;RP0=0, select bank0
  4954  0798  1303               	bcf	3,6	;RP1=0, select bank0
  4955  0799  0839               	movf	___flmul@temp+1,w
  4956  079A  3A80               	xorlw	128
  4957  079B  00FF               	movwf	btemp+1
  4958  079C  3080               	movlw	128
  4959  079D  027F               	subwf	btemp+1,w
  4960  079E  1D03               	skipz
  4961  079F  2FA2               	goto	u3765
  4962  07A0  3001               	movlw	1
  4963  07A1  0238               	subwf	___flmul@temp,w
  4964  07A2                     u3765:	
  4965  07A2  1803               	skipnc
  4966  07A3  2FA5               	goto	u3761
  4967  07A4  2FA6               	goto	u3760
  4968  07A5                     u3761:	
  4969  07A5  2FB2               	goto	l2732
  4970  07A6                     u3760:	
  4971  07A6                     l2728:	
  4972  07A6  3000               	movlw	0
  4973  07A7  1283               	bcf	3,5	;RP0=0, select bank0
  4974  07A8  1303               	bcf	3,6	;RP1=0, select bank0
  4975  07A9  00B7               	movwf	___flmul@prod+3
  4976  07AA  3000               	movlw	0
  4977  07AB  00B6               	movwf	___flmul@prod+2
  4978  07AC  3000               	movlw	0
  4979  07AD  00B5               	movwf	___flmul@prod+1
  4980  07AE  3000               	movlw	0
  4981  07AF  00B4               	movwf	___flmul@prod
  4982  07B0                     l2730:	
  4983  07B0  01AD               	clrf	___flmul@sign
  4984  07B1  2FCC               	goto	l792
  4985  07B2                     l2732:	
  4986  07B2  1283               	bcf	3,5	;RP0=0, select bank0
  4987  07B3  1303               	bcf	3,6	;RP1=0, select bank0
  4988  07B4  0838               	movf	___flmul@temp,w
  4989  07B5  00A8               	movwf	??___flmul
  4990  07B6  0828               	movf	??___flmul,w
  4991  07B7  00B3               	movwf	___flmul@bexp
  4992  07B8  30FF               	movlw	255
  4993  07B9  05B4               	andwf	___flmul@prod,f
  4994  07BA  30FF               	movlw	255
  4995  07BB  05B5               	andwf	___flmul@prod+1,f
  4996  07BC  307F               	movlw	127
  4997  07BD  05B6               	andwf	___flmul@prod+2,f
  4998  07BE  3000               	movlw	0
  4999  07BF  05B7               	andwf	___flmul@prod+3,f
  5000  07C0                     l2734:	
  5001  07C0  1C33               	btfss	___flmul@bexp,0
  5002  07C1  2FC3               	goto	u3771
  5003  07C2  2FC4               	goto	u3770
  5004  07C3                     u3771:	
  5005  07C3  2FC5               	goto	l2738
  5006  07C4                     u3770:	
  5007  07C4                     l2736:	
  5008  07C4  17B6               	bsf	___flmul@prod+2,7
  5009  07C5                     l2738:	
  5010  07C5  0833               	movf	___flmul@bexp,w
  5011  07C6  00A8               	movwf	??___flmul
  5012  07C7  1003               	clrc
  5013  07C8  0C28               	rrf	??___flmul,w
  5014  07C9  00A9               	movwf	??___flmul+1
  5015  07CA  0829               	movf	??___flmul+1,w
  5016  07CB  00B7               	movwf	___flmul@prod+3
  5017  07CC                     l792:	
  5018  07CC  082D               	movf	___flmul@sign,w
  5019  07CD  00A8               	movwf	??___flmul
  5020  07CE  0828               	movf	??___flmul,w
  5021  07CF  04B7               	iorwf	___flmul@prod+3,f
  5022  07D0                     l2740:	
  5023  07D0  0837               	movf	___flmul@prod+3,w
  5024  07D1  00A3               	movwf	?___flmul+3
  5025  07D2  0836               	movf	___flmul@prod+2,w
  5026  07D3  00A2               	movwf	?___flmul+2
  5027  07D4  0835               	movf	___flmul@prod+1,w
  5028  07D5  00A1               	movwf	?___flmul+1
  5029  07D6  0834               	movf	___flmul@prod,w
  5030  07D7  00A0               	movwf	?___flmul
  5031  07D8                     l780:	
  5032  07D8  0008               	return
  5033  07D9                     __end_of___flmul:	
  5034                           
  5035                           	psect	text12
  5036  1601                     __ptext12:	
  5037 ;; *************** function __Umul8_16 *****************
  5038 ;; Defined at:
  5039 ;;		line 4 in file "C:\Program Files (x86)\Microchip\xc8\v2.10\pic\sources\c90\common\Umul8_16.c"
  5040 ;; Parameters:    Size  Location     Type
  5041 ;;  multiplier      1    wreg     unsigned char 
  5042 ;;  multiplicand    1    0[COMMON] unsigned char 
  5043 ;; Auto vars:     Size  Location     Type
  5044 ;;  multiplier      1    8[COMMON] unsigned char 
  5045 ;;  word_mpld       2    6[COMMON] unsigned int 
  5046 ;;  product         2    4[COMMON] unsigned int 
  5047 ;; Return value:  Size  Location     Type
  5048 ;;                  2    0[COMMON] unsigned int 
  5049 ;; Registers used:
  5050 ;;		wreg, status,2, status,0
  5051 ;; Tracked objects:
  5052 ;;		On entry : 0/0
  5053 ;;		On exit  : 0/0
  5054 ;;		Unchanged: 0/0
  5055 ;; Data sizes:     COMMON   BANK0   BANK1   BANK3   BANK2
  5056 ;;      Params:         2       0       0       0       0
  5057 ;;      Locals:         5       0       0       0       0
  5058 ;;      Temps:          2       0       0       0       0
  5059 ;;      Totals:         9       0       0       0       0
  5060 ;;Total ram usage:        9 bytes
  5061 ;; Hardware stack levels used:    1
  5062 ;; This function calls:
  5063 ;;		Nothing
  5064 ;; This function is called by:
  5065 ;;		___flmul
  5066 ;; This function uses a non-reentrant model
  5067 ;;
  5068                           
  5069                           
  5070                           ;psect for function __Umul8_16
  5071  1601                     __Umul8_16:	
  5072                           
  5073                           ;incstack = 0
  5074                           ; Regs used in __Umul8_16: [wreg+status,2+status,0]
  5075                           ;__Umul8_16@multiplier stored from wreg
  5076  1601  00F8               	movwf	__Umul8_16@multiplier
  5077  1602                     l2082:	
  5078  1602  01F4               	clrf	__Umul8_16@product
  5079  1603  01F5               	clrf	__Umul8_16@product+1
  5080  1604                     l2084:	
  5081  1604  0870               	movf	__Umul8_16@multiplicand,w
  5082  1605  00F2               	movwf	??__Umul8_16
  5083  1606  01F3               	clrf	??__Umul8_16+1
  5084  1607  0872               	movf	??__Umul8_16,w
  5085  1608  00F6               	movwf	__Umul8_16@word_mpld
  5086  1609  0873               	movf	??__Umul8_16+1,w
  5087  160A  00F7               	movwf	__Umul8_16@word_mpld+1
  5088  160B                     l2086:	
  5089  160B  1C78               	btfss	__Umul8_16@multiplier,0
  5090  160C  2E0E               	goto	u2261
  5091  160D  2E0F               	goto	u2260
  5092  160E                     u2261:	
  5093  160E  2E15               	goto	l842
  5094  160F                     u2260:	
  5095  160F                     l2088:	
  5096  160F  0876               	movf	__Umul8_16@word_mpld,w
  5097  1610  07F4               	addwf	__Umul8_16@product,f
  5098  1611  1803               	skipnc
  5099  1612  0AF5               	incf	__Umul8_16@product+1,f
  5100  1613  0877               	movf	__Umul8_16@word_mpld+1,w
  5101  1614  07F5               	addwf	__Umul8_16@product+1,f
  5102  1615                     l842:	
  5103  1615  3001               	movlw	1
  5104  1616                     u2275:	
  5105  1616  1003               	clrc
  5106  1617  0DF6               	rlf	__Umul8_16@word_mpld,f
  5107  1618  0DF7               	rlf	__Umul8_16@word_mpld+1,f
  5108  1619  3EFF               	addlw	-1
  5109  161A  1D03               	skipz
  5110  161B  2E16               	goto	u2275
  5111  161C  1003               	clrc
  5112  161D  0CF8               	rrf	__Umul8_16@multiplier,f
  5113  161E                     l2090:	
  5114  161E  0878               	movf	__Umul8_16@multiplier,w
  5115  161F  1D03               	btfss	3,2
  5116  1620  2E22               	goto	u2281
  5117  1621  2E23               	goto	u2280
  5118  1622                     u2281:	
  5119  1622  2E0B               	goto	l2086
  5120  1623                     u2280:	
  5121  1623                     l2092:	
  5122  1623  0875               	movf	__Umul8_16@product+1,w
  5123  1624  00F1               	movwf	?__Umul8_16+1
  5124  1625  0874               	movf	__Umul8_16@product,w
  5125  1626  00F0               	movwf	?__Umul8_16
  5126  1627                     l844:	
  5127  1627  0008               	return
  5128  1628                     __end_of__Umul8_16:	
  5129                           
  5130                           	psect	text13
  5131  0013                     __ptext13:	
  5132 ;; *************** function ___fldiv *****************
  5133 ;; Defined at:
  5134 ;;		line 8 in file "C:\Program Files (x86)\Microchip\xc8\v2.10\pic\sources\c90\common\sprcdiv.c"
  5135 ;; Parameters:    Size  Location     Type
  5136 ;;  a               4   46[BANK0 ] unsigned int 
  5137 ;;  b               4   50[BANK0 ] unsigned int 
  5138 ;; Auto vars:     Size  Location     Type
  5139 ;;  grs             4   66[BANK0 ] unsigned long 
  5140 ;;  rem             4   59[BANK0 ] unsigned long 
  5141 ;;  new_exp         2   64[BANK0 ] int 
  5142 ;;  aexp            1   71[BANK0 ] unsigned char 
  5143 ;;  bexp            1   70[BANK0 ] unsigned char 
  5144 ;;  sign            1   63[BANK0 ] unsigned char 
  5145 ;; Return value:  Size  Location     Type
  5146 ;;                  4   46[BANK0 ] unsigned char 
  5147 ;; Registers used:
  5148 ;;		wreg, status,2, status,0, btemp+1
  5149 ;; Tracked objects:
  5150 ;;		On entry : 0/0
  5151 ;;		On exit  : 0/0
  5152 ;;		Unchanged: 0/0
  5153 ;; Data sizes:     COMMON   BANK0   BANK1   BANK3   BANK2
  5154 ;;      Params:         0       8       0       0       0
  5155 ;;      Locals:         0      13       0       0       0
  5156 ;;      Temps:          0       5       0       0       0
  5157 ;;      Totals:         0      26       0       0       0
  5158 ;;Total ram usage:       26 bytes
  5159 ;; Hardware stack levels used:    1
  5160 ;; This function calls:
  5161 ;;		Nothing
  5162 ;; This function is called by:
  5163 ;;		_I2C_SHT25_Temperature_Read
  5164 ;;		_I2C_SHT25_Relative_Humidity_Read
  5165 ;; This function uses a non-reentrant model
  5166 ;;
  5167                           
  5168                           
  5169                           ;psect for function ___fldiv
  5170  0013                     ___fldiv:	
  5171  0013                     l2462:	
  5172                           ;incstack = 0
  5173                           ; Regs used in ___fldiv: [wreg+status,2+status,0+btemp+1]
  5174                           
  5175  0013  1283               	bcf	3,5	;RP0=0, select bank0
  5176  0014  1303               	bcf	3,6	;RP1=0, select bank0
  5177  0015  0855               	movf	___fldiv@b+3,w
  5178  0016  3980               	andlw	128
  5179  0017  00D6               	movwf	??___fldiv
  5180  0018  0856               	movf	??___fldiv,w
  5181  0019  00DF               	movwf	___fldiv@sign
  5182  001A                     l2464:	
  5183  001A  0855               	movf	___fldiv@b+3,w
  5184  001B  00D6               	movwf	??___fldiv
  5185  001C  0756               	addwf	??___fldiv,w
  5186  001D  00D7               	movwf	??___fldiv+1
  5187  001E  0857               	movf	??___fldiv+1,w
  5188  001F  00E6               	movwf	___fldiv@bexp
  5189  0020                     l2466:	
  5190  0020  1FD4               	btfss	___fldiv@b+2,7
  5191  0021  2823               	goto	u3121
  5192  0022  2824               	goto	u3120
  5193  0023                     u3121:	
  5194  0023  2825               	goto	l2470
  5195  0024                     u3120:	
  5196  0024                     l2468:	
  5197  0024  1466               	bsf	___fldiv@bexp,0
  5198  0025                     l2470:	
  5199  0025  0866               	movf	___fldiv@bexp,w
  5200  0026  1903               	btfsc	3,2
  5201  0027  2829               	goto	u3131
  5202  0028  282A               	goto	u3130
  5203  0029                     u3131:	
  5204  0029  283A               	goto	l2480
  5205  002A                     u3130:	
  5206  002A                     l2472:	
  5207  002A  0A66               	incf	___fldiv@bexp,w
  5208  002B  1D03               	btfss	3,2
  5209  002C  282E               	goto	u3141
  5210  002D  282F               	goto	u3140
  5211  002E                     u3141:	
  5212  002E  2837               	goto	l2476
  5213  002F                     u3140:	
  5214  002F                     l2474:	
  5215  002F  3000               	movlw	0
  5216  0030  00D5               	movwf	___fldiv@b+3
  5217  0031  3000               	movlw	0
  5218  0032  00D4               	movwf	___fldiv@b+2
  5219  0033  3000               	movlw	0
  5220  0034  00D3               	movwf	___fldiv@b+1
  5221  0035  3000               	movlw	0
  5222  0036  00D2               	movwf	___fldiv@b
  5223  0037                     l2476:	
  5224  0037  17D4               	bsf	___fldiv@b+2,7
  5225  0038                     l2478:	
  5226  0038  01D5               	clrf	___fldiv@b+3
  5227  0039  2842               	goto	l2482
  5228  003A                     l2480:	
  5229  003A  3000               	movlw	0
  5230  003B  00D5               	movwf	___fldiv@b+3
  5231  003C  3000               	movlw	0
  5232  003D  00D4               	movwf	___fldiv@b+2
  5233  003E  3000               	movlw	0
  5234  003F  00D3               	movwf	___fldiv@b+1
  5235  0040  3000               	movlw	0
  5236  0041  00D2               	movwf	___fldiv@b
  5237  0042                     l2482:	
  5238  0042  0851               	movf	___fldiv@a+3,w
  5239  0043  3980               	andlw	128
  5240  0044  00D6               	movwf	??___fldiv
  5241  0045  0856               	movf	??___fldiv,w
  5242  0046  06DF               	xorwf	___fldiv@sign,f
  5243  0047                     l2484:	
  5244  0047  0851               	movf	___fldiv@a+3,w
  5245  0048  00D6               	movwf	??___fldiv
  5246  0049  0756               	addwf	??___fldiv,w
  5247  004A  00D7               	movwf	??___fldiv+1
  5248  004B  0857               	movf	??___fldiv+1,w
  5249  004C  00E7               	movwf	___fldiv@aexp
  5250  004D                     l2486:	
  5251  004D  1FD0               	btfss	___fldiv@a+2,7
  5252  004E  2850               	goto	u3151
  5253  004F  2851               	goto	u3150
  5254  0050                     u3151:	
  5255  0050  2852               	goto	l2490
  5256  0051                     u3150:	
  5257  0051                     l2488:	
  5258  0051  1467               	bsf	___fldiv@aexp,0
  5259  0052                     l2490:	
  5260  0052  0867               	movf	___fldiv@aexp,w
  5261  0053  1903               	btfsc	3,2
  5262  0054  2856               	goto	u3161
  5263  0055  2857               	goto	u3160
  5264  0056                     u3161:	
  5265  0056  2867               	goto	l2500
  5266  0057                     u3160:	
  5267  0057                     l2492:	
  5268  0057  0A67               	incf	___fldiv@aexp,w
  5269  0058  1D03               	btfss	3,2
  5270  0059  285B               	goto	u3171
  5271  005A  285C               	goto	u3170
  5272  005B                     u3171:	
  5273  005B  2864               	goto	l2496
  5274  005C                     u3170:	
  5275  005C                     l2494:	
  5276  005C  3000               	movlw	0
  5277  005D  00D1               	movwf	___fldiv@a+3
  5278  005E  3000               	movlw	0
  5279  005F  00D0               	movwf	___fldiv@a+2
  5280  0060  3000               	movlw	0
  5281  0061  00CF               	movwf	___fldiv@a+1
  5282  0062  3000               	movlw	0
  5283  0063  00CE               	movwf	___fldiv@a
  5284  0064                     l2496:	
  5285  0064  17D0               	bsf	___fldiv@a+2,7
  5286  0065                     l2498:	
  5287  0065  01D1               	clrf	___fldiv@a+3
  5288  0066  286F               	goto	l740
  5289  0067                     l2500:	
  5290  0067  3000               	movlw	0
  5291  0068  00D1               	movwf	___fldiv@a+3
  5292  0069  3000               	movlw	0
  5293  006A  00D0               	movwf	___fldiv@a+2
  5294  006B  3000               	movlw	0
  5295  006C  00CF               	movwf	___fldiv@a+1
  5296  006D  3000               	movlw	0
  5297  006E  00CE               	movwf	___fldiv@a
  5298  006F                     l740:	
  5299  006F  0851               	movf	___fldiv@a+3,w
  5300  0070  0450               	iorwf	___fldiv@a+2,w
  5301  0071  044F               	iorwf	___fldiv@a+1,w
  5302  0072  044E               	iorwf	___fldiv@a,w
  5303  0073  1D03               	skipz
  5304  0074  2876               	goto	u3181
  5305  0075  2877               	goto	u3180
  5306  0076                     u3181:	
  5307  0076  2890               	goto	l2510
  5308  0077                     u3180:	
  5309  0077                     l2502:	
  5310  0077  3000               	movlw	0
  5311  0078  00D5               	movwf	___fldiv@b+3
  5312  0079  3000               	movlw	0
  5313  007A  00D4               	movwf	___fldiv@b+2
  5314  007B  3000               	movlw	0
  5315  007C  00D3               	movwf	___fldiv@b+1
  5316  007D  3000               	movlw	0
  5317  007E  00D2               	movwf	___fldiv@b
  5318  007F  3080               	movlw	128
  5319  0080  04D4               	iorwf	___fldiv@b+2,f
  5320  0081  307F               	movlw	127
  5321  0082  04D5               	iorwf	___fldiv@b+3,f
  5322  0083                     l2504:	
  5323  0083  085F               	movf	___fldiv@sign,w
  5324  0084  00D6               	movwf	??___fldiv
  5325  0085  0856               	movf	??___fldiv,w
  5326  0086  04D5               	iorwf	___fldiv@b+3,f
  5327  0087                     l2506:	
  5328  0087  0855               	movf	___fldiv@b+3,w
  5329  0088  00D1               	movwf	?___fldiv+3
  5330  0089  0854               	movf	___fldiv@b+2,w
  5331  008A  00D0               	movwf	?___fldiv+2
  5332  008B  0853               	movf	___fldiv@b+1,w
  5333  008C  00CF               	movwf	?___fldiv+1
  5334  008D  0852               	movf	___fldiv@b,w
  5335  008E  00CE               	movwf	?___fldiv
  5336  008F  29EF               	goto	l742
  5337  0090                     l2510:	
  5338  0090  0866               	movf	___fldiv@bexp,w
  5339  0091  1D03               	btfss	3,2
  5340  0092  2894               	goto	u3191
  5341  0093  2895               	goto	u3190
  5342  0094                     u3191:	
  5343  0094  289E               	goto	l2516
  5344  0095                     u3190:	
  5345  0095                     l2512:	
  5346  0095  3000               	movlw	0
  5347  0096  00D1               	movwf	?___fldiv+3
  5348  0097  3000               	movlw	0
  5349  0098  00D0               	movwf	?___fldiv+2
  5350  0099  3000               	movlw	0
  5351  009A  00CF               	movwf	?___fldiv+1
  5352  009B  3000               	movlw	0
  5353  009C  00CE               	movwf	?___fldiv
  5354  009D  29EF               	goto	l742
  5355  009E                     l2516:	
  5356  009E  0866               	movf	___fldiv@bexp,w
  5357  009F  00D6               	movwf	??___fldiv
  5358  00A0  01D7               	clrf	??___fldiv+1
  5359  00A1  0857               	movf	??___fldiv+1,w
  5360  00A2  00D9               	movwf	??___fldiv+3
  5361  00A3  0867               	movf	___fldiv@aexp,w
  5362  00A4  0256               	subwf	??___fldiv,w
  5363  00A5  00D8               	movwf	??___fldiv+2
  5364  00A6  1C03               	skipc
  5365  00A7  03D9               	decf	??___fldiv+3,f
  5366  00A8  0858               	movf	??___fldiv+2,w
  5367  00A9  3E7F               	addlw	127
  5368  00AA  00E0               	movwf	___fldiv@new_exp
  5369  00AB  0859               	movf	??___fldiv+3,w
  5370  00AC  1803               	skipnc
  5371  00AD  3E01               	addlw	1
  5372  00AE  3E00               	addlw	0
  5373  00AF  00E1               	movwf	___fldiv@new_exp+1
  5374  00B0                     l2518:	
  5375  00B0  0855               	movf	___fldiv@b+3,w
  5376  00B1  00DE               	movwf	___fldiv@rem+3
  5377  00B2  0854               	movf	___fldiv@b+2,w
  5378  00B3  00DD               	movwf	___fldiv@rem+2
  5379  00B4  0853               	movf	___fldiv@b+1,w
  5380  00B5  00DC               	movwf	___fldiv@rem+1
  5381  00B6  0852               	movf	___fldiv@b,w
  5382  00B7  00DB               	movwf	___fldiv@rem
  5383  00B8                     l2520:	
  5384  00B8  3000               	movlw	0
  5385  00B9  00D5               	movwf	___fldiv@b+3
  5386  00BA  3000               	movlw	0
  5387  00BB  00D4               	movwf	___fldiv@b+2
  5388  00BC  3000               	movlw	0
  5389  00BD  00D3               	movwf	___fldiv@b+1
  5390  00BE  3000               	movlw	0
  5391  00BF  00D2               	movwf	___fldiv@b
  5392  00C0                     l2522:	
  5393  00C0  3000               	movlw	0
  5394  00C1  00E5               	movwf	___fldiv@grs+3
  5395  00C2  3000               	movlw	0
  5396  00C3  00E4               	movwf	___fldiv@grs+2
  5397  00C4  3000               	movlw	0
  5398  00C5  00E3               	movwf	___fldiv@grs+1
  5399  00C6  3000               	movlw	0
  5400  00C7  00E2               	movwf	___fldiv@grs
  5401  00C8                     l2524:	
  5402  00C8  01E7               	clrf	___fldiv@aexp
  5403  00C9  2914               	goto	l2544
  5404  00CA                     l2526:	
  5405  00CA  0867               	movf	___fldiv@aexp,w
  5406  00CB  1903               	btfsc	3,2
  5407  00CC  28CE               	goto	u3201
  5408  00CD  28CF               	goto	u3200
  5409  00CE                     u3201:	
  5410  00CE  28EF               	goto	l2536
  5411  00CF                     u3200:	
  5412  00CF                     l2528:	
  5413  00CF  3001               	movlw	1
  5414  00D0  00D6               	movwf	??___fldiv
  5415  00D1                     u3215:	
  5416  00D1  1003               	clrc
  5417  00D2  0DDB               	rlf	___fldiv@rem,f
  5418  00D3  0DDC               	rlf	___fldiv@rem+1,f
  5419  00D4  0DDD               	rlf	___fldiv@rem+2,f
  5420  00D5  0DDE               	rlf	___fldiv@rem+3,f
  5421  00D6  0BD6               	decfsz	??___fldiv,f
  5422  00D7  28D1               	goto	u3215
  5423  00D8  3001               	movlw	1
  5424  00D9  00D6               	movwf	??___fldiv
  5425  00DA                     u3225:	
  5426  00DA  1003               	clrc
  5427  00DB  0DD2               	rlf	___fldiv@b,f
  5428  00DC  0DD3               	rlf	___fldiv@b+1,f
  5429  00DD  0DD4               	rlf	___fldiv@b+2,f
  5430  00DE  0DD5               	rlf	___fldiv@b+3,f
  5431  00DF  0BD6               	decfsz	??___fldiv,f
  5432  00E0  28DA               	goto	u3225
  5433  00E1                     l2530:	
  5434  00E1  1FE5               	btfss	___fldiv@grs+3,7
  5435  00E2  28E4               	goto	u3231
  5436  00E3  28E5               	goto	u3230
  5437  00E4                     u3231:	
  5438  00E4  28E6               	goto	l2534
  5439  00E5                     u3230:	
  5440  00E5                     l2532:	
  5441  00E5  1452               	bsf	___fldiv@b,0
  5442  00E6                     l2534:	
  5443  00E6  3001               	movlw	1
  5444  00E7  00D6               	movwf	??___fldiv
  5445  00E8                     u3245:	
  5446  00E8  1003               	clrc
  5447  00E9  0DE2               	rlf	___fldiv@grs,f
  5448  00EA  0DE3               	rlf	___fldiv@grs+1,f
  5449  00EB  0DE4               	rlf	___fldiv@grs+2,f
  5450  00EC  0DE5               	rlf	___fldiv@grs+3,f
  5451  00ED  0BD6               	decfsz	??___fldiv,f
  5452  00EE  28E8               	goto	u3245
  5453  00EF                     l2536:	
  5454  00EF  0851               	movf	___fldiv@a+3,w
  5455  00F0  025E               	subwf	___fldiv@rem+3,w
  5456  00F1  1D03               	skipz
  5457  00F2  28FD               	goto	u3255
  5458  00F3  0850               	movf	___fldiv@a+2,w
  5459  00F4  025D               	subwf	___fldiv@rem+2,w
  5460  00F5  1D03               	skipz
  5461  00F6  28FD               	goto	u3255
  5462  00F7  084F               	movf	___fldiv@a+1,w
  5463  00F8  025C               	subwf	___fldiv@rem+1,w
  5464  00F9  1D03               	skipz
  5465  00FA  28FD               	goto	u3255
  5466  00FB  084E               	movf	___fldiv@a,w
  5467  00FC  025B               	subwf	___fldiv@rem,w
  5468  00FD                     u3255:	
  5469  00FD  1C03               	skipc
  5470  00FE  2900               	goto	u3251
  5471  00FF  2901               	goto	u3250
  5472  0100                     u3251:	
  5473  0100  2910               	goto	l2542
  5474  0101                     u3250:	
  5475  0101                     l2538:	
  5476  0101  1765               	bsf	___fldiv@grs+3,6
  5477  0102                     l2540:	
  5478  0102  084E               	movf	___fldiv@a,w
  5479  0103  02DB               	subwf	___fldiv@rem,f
  5480  0104  084F               	movf	___fldiv@a+1,w
  5481  0105  1C03               	skipc
  5482  0106  0F4F               	incfsz	___fldiv@a+1,w
  5483  0107  02DC               	subwf	___fldiv@rem+1,f
  5484  0108  0850               	movf	___fldiv@a+2,w
  5485  0109  1C03               	skipc
  5486  010A  0F50               	incfsz	___fldiv@a+2,w
  5487  010B  02DD               	subwf	___fldiv@rem+2,f
  5488  010C  0851               	movf	___fldiv@a+3,w
  5489  010D  1C03               	skipc
  5490  010E  0F51               	incfsz	___fldiv@a+3,w
  5491  010F  02DE               	subwf	___fldiv@rem+3,f
  5492  0110                     l2542:	
  5493  0110  3001               	movlw	1
  5494  0111  00D6               	movwf	??___fldiv
  5495  0112  0856               	movf	??___fldiv,w
  5496  0113  07E7               	addwf	___fldiv@aexp,f
  5497  0114                     l2544:	
  5498  0114  301A               	movlw	26
  5499  0115  0267               	subwf	___fldiv@aexp,w
  5500  0116  1C03               	skipc
  5501  0117  2919               	goto	u3261
  5502  0118  291A               	goto	u3260
  5503  0119                     u3261:	
  5504  0119  28CA               	goto	l2526
  5505  011A                     u3260:	
  5506  011A                     l2546:	
  5507  011A  085E               	movf	___fldiv@rem+3,w
  5508  011B  045D               	iorwf	___fldiv@rem+2,w
  5509  011C  045C               	iorwf	___fldiv@rem+1,w
  5510  011D  045B               	iorwf	___fldiv@rem,w
  5511  011E  1903               	skipnz
  5512  011F  2921               	goto	u3271
  5513  0120  2922               	goto	u3270
  5514  0121                     u3271:	
  5515  0121  2941               	goto	l2560
  5516  0122                     u3270:	
  5517  0122                     l2548:	
  5518  0122  1462               	bsf	___fldiv@grs,0
  5519  0123  2941               	goto	l2560
  5520  0124                     l2550:	
  5521  0124  3001               	movlw	1
  5522  0125  00D6               	movwf	??___fldiv
  5523  0126                     u3285:	
  5524  0126  1003               	clrc
  5525  0127  0DD2               	rlf	___fldiv@b,f
  5526  0128  0DD3               	rlf	___fldiv@b+1,f
  5527  0129  0DD4               	rlf	___fldiv@b+2,f
  5528  012A  0DD5               	rlf	___fldiv@b+3,f
  5529  012B  0BD6               	decfsz	??___fldiv,f
  5530  012C  2926               	goto	u3285
  5531  012D                     l2552:	
  5532  012D  1FE5               	btfss	___fldiv@grs+3,7
  5533  012E  2930               	goto	u3291
  5534  012F  2931               	goto	u3290
  5535  0130                     u3291:	
  5536  0130  2932               	goto	l2556
  5537  0131                     u3290:	
  5538  0131                     l2554:	
  5539  0131  1452               	bsf	___fldiv@b,0
  5540  0132                     l2556:	
  5541  0132  3001               	movlw	1
  5542  0133  00D6               	movwf	??___fldiv
  5543  0134                     u3305:	
  5544  0134  1003               	clrc
  5545  0135  0DE2               	rlf	___fldiv@grs,f
  5546  0136  0DE3               	rlf	___fldiv@grs+1,f
  5547  0137  0DE4               	rlf	___fldiv@grs+2,f
  5548  0138  0DE5               	rlf	___fldiv@grs+3,f
  5549  0139  0BD6               	decfsz	??___fldiv,f
  5550  013A  2934               	goto	u3305
  5551  013B                     l2558:	
  5552  013B  30FF               	movlw	255
  5553  013C  07E0               	addwf	___fldiv@new_exp,f
  5554  013D  1803               	skipnc
  5555  013E  0AE1               	incf	___fldiv@new_exp+1,f
  5556  013F  30FF               	movlw	255
  5557  0140  07E1               	addwf	___fldiv@new_exp+1,f
  5558  0141                     l2560:	
  5559  0141  1FD4               	btfss	___fldiv@b+2,7
  5560  0142  2944               	goto	u3311
  5561  0143  2945               	goto	u3310
  5562  0144                     u3311:	
  5563  0144  2924               	goto	l2550
  5564  0145                     u3310:	
  5565  0145                     l2562:	
  5566  0145  01E7               	clrf	___fldiv@aexp
  5567  0146                     l2564:	
  5568  0146  1FE5               	btfss	___fldiv@grs+3,7
  5569  0147  2949               	goto	u3321
  5570  0148  294A               	goto	u3320
  5571  0149                     u3321:	
  5572  0149  2966               	goto	l2572
  5573  014A                     u3320:	
  5574  014A                     l2566:	
  5575  014A  30FF               	movlw	255
  5576  014B  0562               	andwf	___fldiv@grs,w
  5577  014C  00D6               	movwf	??___fldiv
  5578  014D  30FF               	movlw	255
  5579  014E  0563               	andwf	___fldiv@grs+1,w
  5580  014F  00D7               	movwf	??___fldiv+1
  5581  0150  30FF               	movlw	255
  5582  0151  0564               	andwf	___fldiv@grs+2,w
  5583  0152  00D8               	movwf	??___fldiv+2
  5584  0153  307F               	movlw	127
  5585  0154  0565               	andwf	___fldiv@grs+3,w
  5586  0155  00D9               	movwf	??___fldiv+3
  5587  0156  0859               	movf	??___fldiv+3,w
  5588  0157  0458               	iorwf	??___fldiv+2,w
  5589  0158  0457               	iorwf	??___fldiv+1,w
  5590  0159  0456               	iorwf	??___fldiv,w
  5591  015A  1903               	skipnz
  5592  015B  295D               	goto	u3331
  5593  015C  295E               	goto	u3330
  5594  015D                     u3331:	
  5595  015D  2961               	goto	l756
  5596  015E                     u3330:	
  5597  015E                     l2568:	
  5598  015E  01E7               	clrf	___fldiv@aexp
  5599  015F  0AE7               	incf	___fldiv@aexp,f
  5600  0160  2966               	goto	l2572
  5601  0161                     l756:	
  5602  0161  1C52               	btfss	___fldiv@b,0
  5603  0162  2964               	goto	u3341
  5604  0163  2965               	goto	u3340
  5605  0164                     u3341:	
  5606  0164  2966               	goto	l2572
  5607  0165                     u3340:	
  5608  0165  295E               	goto	l2568
  5609  0166                     l2572:	
  5610  0166  0867               	movf	___fldiv@aexp,w
  5611  0167  1903               	btfsc	3,2
  5612  0168  296A               	goto	u3351
  5613  0169  296B               	goto	u3350
  5614  016A                     u3351:	
  5615  016A  299C               	goto	l2582
  5616  016B                     u3350:	
  5617  016B                     l2574:	
  5618  016B  3001               	movlw	1
  5619  016C  07D2               	addwf	___fldiv@b,f
  5620  016D  3000               	movlw	0
  5621  016E  1803               	skipnc
  5622  016F  3001               	movlw	1
  5623  0170  07D3               	addwf	___fldiv@b+1,f
  5624  0171  3000               	movlw	0
  5625  0172  1803               	skipnc
  5626  0173  3001               	movlw	1
  5627  0174  07D4               	addwf	___fldiv@b+2,f
  5628  0175  3000               	movlw	0
  5629  0176  1803               	skipnc
  5630  0177  3001               	movlw	1
  5631  0178  07D5               	addwf	___fldiv@b+3,f
  5632  0179                     l2576:	
  5633  0179  1C55               	btfss	___fldiv@b+3,0
  5634  017A  297C               	goto	u3361
  5635  017B  297D               	goto	u3360
  5636  017C                     u3361:	
  5637  017C  299C               	goto	l2582
  5638  017D                     u3360:	
  5639  017D                     l2578:	
  5640  017D  0852               	movf	___fldiv@b,w
  5641  017E  00D6               	movwf	??___fldiv
  5642  017F  0853               	movf	___fldiv@b+1,w
  5643  0180  00D7               	movwf	??___fldiv+1
  5644  0181  0854               	movf	___fldiv@b+2,w
  5645  0182  00D8               	movwf	??___fldiv+2
  5646  0183  0855               	movf	___fldiv@b+3,w
  5647  0184  00D9               	movwf	??___fldiv+3
  5648  0185  3001               	movlw	1
  5649  0186  00DA               	movwf	??___fldiv+4
  5650  0187                     u3375:	
  5651  0187  0D59               	rlf	??___fldiv+3,w
  5652  0188  0CD9               	rrf	??___fldiv+3,f
  5653  0189  0CD8               	rrf	??___fldiv+2,f
  5654  018A  0CD7               	rrf	??___fldiv+1,f
  5655  018B  0CD6               	rrf	??___fldiv,f
  5656  018C                     u3370:	
  5657  018C  0BDA               	decfsz	??___fldiv+4,f
  5658  018D  2987               	goto	u3375
  5659  018E  0859               	movf	??___fldiv+3,w
  5660  018F  00D5               	movwf	___fldiv@b+3
  5661  0190  0858               	movf	??___fldiv+2,w
  5662  0191  00D4               	movwf	___fldiv@b+2
  5663  0192  0857               	movf	??___fldiv+1,w
  5664  0193  00D3               	movwf	___fldiv@b+1
  5665  0194  0856               	movf	??___fldiv,w
  5666  0195  00D2               	movwf	___fldiv@b
  5667  0196                     l2580:	
  5668  0196  3001               	movlw	1
  5669  0197  07E0               	addwf	___fldiv@new_exp,f
  5670  0198  1803               	skipnc
  5671  0199  0AE1               	incf	___fldiv@new_exp+1,f
  5672  019A  3000               	movlw	0
  5673  019B  07E1               	addwf	___fldiv@new_exp+1,f
  5674  019C                     l2582:	
  5675  019C  0861               	movf	___fldiv@new_exp+1,w
  5676  019D  3A80               	xorlw	128
  5677  019E  00FF               	movwf	btemp+1
  5678  019F  3080               	movlw	128
  5679  01A0  027F               	subwf	btemp+1,w
  5680  01A1  1D03               	skipz
  5681  01A2  29A5               	goto	u3385
  5682  01A3  30FF               	movlw	255
  5683  01A4  0260               	subwf	___fldiv@new_exp,w
  5684  01A5                     u3385:	
  5685  01A5  1C03               	skipc
  5686  01A6  29A8               	goto	u3381
  5687  01A7  29A9               	goto	u3380
  5688  01A8                     u3381:	
  5689  01A8  29B7               	goto	l2586
  5690  01A9                     u3380:	
  5691  01A9                     l2584:	
  5692  01A9  30FF               	movlw	255
  5693  01AA  1283               	bcf	3,5	;RP0=0, select bank0
  5694  01AB  1303               	bcf	3,6	;RP1=0, select bank0
  5695  01AC  00E0               	movwf	___fldiv@new_exp
  5696  01AD  3000               	movlw	0
  5697  01AE  00E1               	movwf	___fldiv@new_exp+1
  5698  01AF  3000               	movlw	0
  5699  01B0  00D5               	movwf	___fldiv@b+3
  5700  01B1  3000               	movlw	0
  5701  01B2  00D4               	movwf	___fldiv@b+2
  5702  01B3  3000               	movlw	0
  5703  01B4  00D3               	movwf	___fldiv@b+1
  5704  01B5  3000               	movlw	0
  5705  01B6  00D2               	movwf	___fldiv@b
  5706  01B7                     l2586:	
  5707  01B7  1283               	bcf	3,5	;RP0=0, select bank0
  5708  01B8  1303               	bcf	3,6	;RP1=0, select bank0
  5709  01B9  0861               	movf	___fldiv@new_exp+1,w
  5710  01BA  3A80               	xorlw	128
  5711  01BB  00FF               	movwf	btemp+1
  5712  01BC  3080               	movlw	128
  5713  01BD  027F               	subwf	btemp+1,w
  5714  01BE  1D03               	skipz
  5715  01BF  29C2               	goto	u3395
  5716  01C0  3001               	movlw	1
  5717  01C1  0260               	subwf	___fldiv@new_exp,w
  5718  01C2                     u3395:	
  5719  01C2  1803               	skipnc
  5720  01C3  29C5               	goto	u3391
  5721  01C4  29C6               	goto	u3390
  5722  01C5                     u3391:	
  5723  01C5  29D3               	goto	l762
  5724  01C6                     u3390:	
  5725  01C6                     l2588:	
  5726  01C6  1283               	bcf	3,5	;RP0=0, select bank0
  5727  01C7  1303               	bcf	3,6	;RP1=0, select bank0
  5728  01C8  01E0               	clrf	___fldiv@new_exp
  5729  01C9  01E1               	clrf	___fldiv@new_exp+1
  5730  01CA                     l2590:	
  5731  01CA  3000               	movlw	0
  5732  01CB  00D5               	movwf	___fldiv@b+3
  5733  01CC  3000               	movlw	0
  5734  01CD  00D4               	movwf	___fldiv@b+2
  5735  01CE  3000               	movlw	0
  5736  01CF  00D3               	movwf	___fldiv@b+1
  5737  01D0  3000               	movlw	0
  5738  01D1  00D2               	movwf	___fldiv@b
  5739  01D2                     l2592:	
  5740  01D2  01DF               	clrf	___fldiv@sign
  5741  01D3                     l762:	
  5742  01D3  1283               	bcf	3,5	;RP0=0, select bank0
  5743  01D4  1303               	bcf	3,6	;RP1=0, select bank0
  5744  01D5  0860               	movf	___fldiv@new_exp,w
  5745  01D6  00D6               	movwf	??___fldiv
  5746  01D7  0856               	movf	??___fldiv,w
  5747  01D8  00E6               	movwf	___fldiv@bexp
  5748  01D9                     l2594:	
  5749  01D9  1C66               	btfss	___fldiv@bexp,0
  5750  01DA  29DC               	goto	u3401
  5751  01DB  29DD               	goto	u3400
  5752  01DC                     u3401:	
  5753  01DC  29DF               	goto	l2598
  5754  01DD                     u3400:	
  5755  01DD                     l2596:	
  5756  01DD  17D4               	bsf	___fldiv@b+2,7
  5757  01DE  29E3               	goto	l764
  5758  01DF                     l2598:	
  5759  01DF  307F               	movlw	127
  5760  01E0  00D6               	movwf	??___fldiv
  5761  01E1  0856               	movf	??___fldiv,w
  5762  01E2  05D4               	andwf	___fldiv@b+2,f
  5763  01E3                     l764:	
  5764  01E3  0866               	movf	___fldiv@bexp,w
  5765  01E4  00D6               	movwf	??___fldiv
  5766  01E5  1003               	clrc
  5767  01E6  0C56               	rrf	??___fldiv,w
  5768  01E7  00D7               	movwf	??___fldiv+1
  5769  01E8  0857               	movf	??___fldiv+1,w
  5770  01E9  00D5               	movwf	___fldiv@b+3
  5771  01EA  085F               	movf	___fldiv@sign,w
  5772  01EB  00D6               	movwf	??___fldiv
  5773  01EC  0856               	movf	??___fldiv,w
  5774  01ED  04D5               	iorwf	___fldiv@b+3,f
  5775  01EE  2887               	goto	l2506
  5776  01EF                     l742:	
  5777  01EF  0008               	return
  5778  01F0                     __end_of___fldiv:	
  5779                           
  5780                           	psect	text14
  5781  01F0                     __ptext14:	
  5782 ;; *************** function ___fladd *****************
  5783 ;; Defined at:
  5784 ;;		line 10 in file "C:\Program Files (x86)\Microchip\xc8\v2.10\pic\sources\c90\common\sprcadd.c"
  5785 ;; Parameters:    Size  Location     Type
  5786 ;;  b               4   26[BANK0 ] unsigned char 
  5787 ;;  a               4   30[BANK0 ] unsigned char 
  5788 ;; Auto vars:     Size  Location     Type
  5789 ;;  grs             1   45[BANK0 ] unsigned char 
  5790 ;;  bexp            1   44[BANK0 ] unsigned char 
  5791 ;;  aexp            1   43[BANK0 ] unsigned char 
  5792 ;;  signs           1   42[BANK0 ] unsigned char 
  5793 ;; Return value:  Size  Location     Type
  5794 ;;                  4   26[BANK0 ] unsigned char 
  5795 ;; Registers used:
  5796 ;;		wreg, status,2, status,0, btemp+1
  5797 ;; Tracked objects:
  5798 ;;		On entry : 0/0
  5799 ;;		On exit  : 0/0
  5800 ;;		Unchanged: 0/0
  5801 ;; Data sizes:     COMMON   BANK0   BANK1   BANK3   BANK2
  5802 ;;      Params:         0       8       0       0       0
  5803 ;;      Locals:         0       4       0       0       0
  5804 ;;      Temps:          0       8       0       0       0
  5805 ;;      Totals:         0      20       0       0       0
  5806 ;;Total ram usage:       20 bytes
  5807 ;; Hardware stack levels used:    1
  5808 ;; This function calls:
  5809 ;;		Nothing
  5810 ;; This function is called by:
  5811 ;;		_I2C_SHT25_Temperature_Read
  5812 ;;		_I2C_SHT25_Relative_Humidity_Read
  5813 ;; This function uses a non-reentrant model
  5814 ;;
  5815                           
  5816                           
  5817                           ;psect for function ___fladd
  5818  01F0                     ___fladd:	
  5819  01F0                     l2268:	
  5820                           ;incstack = 0
  5821                           ; Regs used in ___fladd: [wreg+status,2+status,0+btemp+1]
  5822                           
  5823  01F0  1283               	bcf	3,5	;RP0=0, select bank0
  5824  01F1  1303               	bcf	3,6	;RP1=0, select bank0
  5825  01F2  083D               	movf	___fladd@b+3,w
  5826  01F3  3980               	andlw	128
  5827  01F4  00C2               	movwf	??___fladd
  5828  01F5  0842               	movf	??___fladd,w
  5829  01F6  00CA               	movwf	___fladd@signs
  5830  01F7                     l2270:	
  5831  01F7  083D               	movf	___fladd@b+3,w
  5832  01F8  00C2               	movwf	??___fladd
  5833  01F9  0742               	addwf	??___fladd,w
  5834  01FA  00C3               	movwf	??___fladd+1
  5835  01FB  0843               	movf	??___fladd+1,w
  5836  01FC  00CC               	movwf	___fladd@bexp
  5837  01FD                     l2272:	
  5838  01FD  1FBC               	btfss	___fladd@b+2,7
  5839  01FE  2A00               	goto	u2661
  5840  01FF  2A01               	goto	u2660
  5841  0200                     u2661:	
  5842  0200  2A02               	goto	l2276
  5843  0201                     u2660:	
  5844  0201                     l2274:	
  5845  0201  144C               	bsf	___fladd@bexp,0
  5846  0202                     l2276:	
  5847  0202  084C               	movf	___fladd@bexp,w
  5848  0203  1903               	btfsc	3,2
  5849  0204  2A06               	goto	u2671
  5850  0205  2A07               	goto	u2670
  5851  0206                     u2671:	
  5852  0206  2A17               	goto	l2286
  5853  0207                     u2670:	
  5854  0207                     l2278:	
  5855  0207  0A4C               	incf	___fladd@bexp,w
  5856  0208  1D03               	btfss	3,2
  5857  0209  2A0B               	goto	u2681
  5858  020A  2A0C               	goto	u2680
  5859  020B                     u2681:	
  5860  020B  2A14               	goto	l2282
  5861  020C                     u2680:	
  5862  020C                     l2280:	
  5863  020C  3000               	movlw	0
  5864  020D  00BD               	movwf	___fladd@b+3
  5865  020E  3000               	movlw	0
  5866  020F  00BC               	movwf	___fladd@b+2
  5867  0210  3000               	movlw	0
  5868  0211  00BB               	movwf	___fladd@b+1
  5869  0212  3000               	movlw	0
  5870  0213  00BA               	movwf	___fladd@b
  5871  0214                     l2282:	
  5872  0214  17BC               	bsf	___fladd@b+2,7
  5873  0215                     l2284:	
  5874  0215  01BD               	clrf	___fladd@b+3
  5875  0216  2A1F               	goto	l2288
  5876  0217                     l2286:	
  5877  0217  3000               	movlw	0
  5878  0218  00BD               	movwf	___fladd@b+3
  5879  0219  3000               	movlw	0
  5880  021A  00BC               	movwf	___fladd@b+2
  5881  021B  3000               	movlw	0
  5882  021C  00BB               	movwf	___fladd@b+1
  5883  021D  3000               	movlw	0
  5884  021E  00BA               	movwf	___fladd@b
  5885  021F                     l2288:	
  5886  021F  0841               	movf	___fladd@a+3,w
  5887  0220  3980               	andlw	128
  5888  0221  00C2               	movwf	??___fladd
  5889  0222  0842               	movf	??___fladd,w
  5890  0223  00CB               	movwf	___fladd@aexp
  5891  0224                     l2290:	
  5892  0224  084B               	movf	___fladd@aexp,w
  5893  0225  064A               	xorwf	___fladd@signs,w
  5894  0226  1903               	skipnz
  5895  0227  2A29               	goto	u2691
  5896  0228  2A2A               	goto	u2690
  5897  0229                     u2691:	
  5898  0229  2A2B               	goto	l2294
  5899  022A                     u2690:	
  5900  022A                     l2292:	
  5901  022A  174A               	bsf	___fladd@signs,6
  5902  022B                     l2294:	
  5903  022B  0841               	movf	___fladd@a+3,w
  5904  022C  00C2               	movwf	??___fladd
  5905  022D  0742               	addwf	??___fladd,w
  5906  022E  00C3               	movwf	??___fladd+1
  5907  022F  0843               	movf	??___fladd+1,w
  5908  0230  00CB               	movwf	___fladd@aexp
  5909  0231                     l2296:	
  5910  0231  1FC0               	btfss	___fladd@a+2,7
  5911  0232  2A34               	goto	u2701
  5912  0233  2A35               	goto	u2700
  5913  0234                     u2701:	
  5914  0234  2A36               	goto	l2300
  5915  0235                     u2700:	
  5916  0235                     l2298:	
  5917  0235  144B               	bsf	___fladd@aexp,0
  5918  0236                     l2300:	
  5919  0236  084B               	movf	___fladd@aexp,w
  5920  0237  1903               	btfsc	3,2
  5921  0238  2A3A               	goto	u2711
  5922  0239  2A3B               	goto	u2710
  5923  023A                     u2711:	
  5924  023A  2A4B               	goto	l2310
  5925  023B                     u2710:	
  5926  023B                     l2302:	
  5927  023B  0A4B               	incf	___fladd@aexp,w
  5928  023C  1D03               	btfss	3,2
  5929  023D  2A3F               	goto	u2721
  5930  023E  2A40               	goto	u2720
  5931  023F                     u2721:	
  5932  023F  2A48               	goto	l2306
  5933  0240                     u2720:	
  5934  0240                     l2304:	
  5935  0240  3000               	movlw	0
  5936  0241  00C1               	movwf	___fladd@a+3
  5937  0242  3000               	movlw	0
  5938  0243  00C0               	movwf	___fladd@a+2
  5939  0244  3000               	movlw	0
  5940  0245  00BF               	movwf	___fladd@a+1
  5941  0246  3000               	movlw	0
  5942  0247  00BE               	movwf	___fladd@a
  5943  0248                     l2306:	
  5944  0248  17C0               	bsf	___fladd@a+2,7
  5945  0249                     l2308:	
  5946  0249  01C1               	clrf	___fladd@a+3
  5947  024A  2A53               	goto	l684
  5948  024B                     l2310:	
  5949  024B  3000               	movlw	0
  5950  024C  00C1               	movwf	___fladd@a+3
  5951  024D  3000               	movlw	0
  5952  024E  00C0               	movwf	___fladd@a+2
  5953  024F  3000               	movlw	0
  5954  0250  00BF               	movwf	___fladd@a+1
  5955  0251  3000               	movlw	0
  5956  0252  00BE               	movwf	___fladd@a
  5957  0253                     l684:	
  5958  0253  084C               	movf	___fladd@bexp,w
  5959  0254  024B               	subwf	___fladd@aexp,w
  5960  0255  1803               	skipnc
  5961  0256  2A58               	goto	u2731
  5962  0257  2A59               	goto	u2730
  5963  0258                     u2731:	
  5964  0258  2A9D               	goto	l2346
  5965  0259                     u2730:	
  5966  0259                     l2312:	
  5967  0259  1F4A               	btfss	___fladd@signs,6
  5968  025A  2A5C               	goto	u2741
  5969  025B  2A5D               	goto	u2740
  5970  025C                     u2741:	
  5971  025C  2A61               	goto	l2316
  5972  025D                     u2740:	
  5973  025D                     l2314:	
  5974  025D  3080               	movlw	128
  5975  025E  00C2               	movwf	??___fladd
  5976  025F  0842               	movf	??___fladd,w
  5977  0260  06CA               	xorwf	___fladd@signs,f
  5978  0261                     l2316:	
  5979  0261  084C               	movf	___fladd@bexp,w
  5980  0262  00C2               	movwf	??___fladd
  5981  0263  0842               	movf	??___fladd,w
  5982  0264  00CD               	movwf	___fladd@grs
  5983  0265                     l2318:	
  5984  0265  084B               	movf	___fladd@aexp,w
  5985  0266  00C2               	movwf	??___fladd
  5986  0267  0842               	movf	??___fladd,w
  5987  0268  00CC               	movwf	___fladd@bexp
  5988  0269                     l2320:	
  5989  0269  084D               	movf	___fladd@grs,w
  5990  026A  00C2               	movwf	??___fladd
  5991  026B  0842               	movf	??___fladd,w
  5992  026C  00CB               	movwf	___fladd@aexp
  5993  026D                     l2322:	
  5994  026D  083A               	movf	___fladd@b,w
  5995  026E  00C2               	movwf	??___fladd
  5996  026F  0842               	movf	??___fladd,w
  5997  0270  00CD               	movwf	___fladd@grs
  5998  0271                     l2324:	
  5999  0271  083E               	movf	___fladd@a,w
  6000  0272  00C2               	movwf	??___fladd
  6001  0273  0842               	movf	??___fladd,w
  6002  0274  00BA               	movwf	___fladd@b
  6003  0275                     l2326:	
  6004  0275  084D               	movf	___fladd@grs,w
  6005  0276  00C2               	movwf	??___fladd
  6006  0277  0842               	movf	??___fladd,w
  6007  0278  00BE               	movwf	___fladd@a
  6008  0279                     l2328:	
  6009  0279  083B               	movf	___fladd@b+1,w
  6010  027A  00C2               	movwf	??___fladd
  6011  027B  0842               	movf	??___fladd,w
  6012  027C  00CD               	movwf	___fladd@grs
  6013  027D                     l2330:	
  6014  027D  083F               	movf	___fladd@a+1,w
  6015  027E  00C2               	movwf	??___fladd
  6016  027F  0842               	movf	??___fladd,w
  6017  0280  00BB               	movwf	___fladd@b+1
  6018  0281                     l2332:	
  6019  0281  084D               	movf	___fladd@grs,w
  6020  0282  00C2               	movwf	??___fladd
  6021  0283  0842               	movf	??___fladd,w
  6022  0284  00BF               	movwf	___fladd@a+1
  6023  0285                     l2334:	
  6024  0285  083C               	movf	___fladd@b+2,w
  6025  0286  00C2               	movwf	??___fladd
  6026  0287  0842               	movf	??___fladd,w
  6027  0288  00CD               	movwf	___fladd@grs
  6028  0289                     l2336:	
  6029  0289  0840               	movf	___fladd@a+2,w
  6030  028A  00C2               	movwf	??___fladd
  6031  028B  0842               	movf	??___fladd,w
  6032  028C  00BC               	movwf	___fladd@b+2
  6033  028D                     l2338:	
  6034  028D  084D               	movf	___fladd@grs,w
  6035  028E  00C2               	movwf	??___fladd
  6036  028F  0842               	movf	??___fladd,w
  6037  0290  00C0               	movwf	___fladd@a+2
  6038  0291                     l2340:	
  6039  0291  083D               	movf	___fladd@b+3,w
  6040  0292  00C2               	movwf	??___fladd
  6041  0293  0842               	movf	??___fladd,w
  6042  0294  00CD               	movwf	___fladd@grs
  6043  0295                     l2342:	
  6044  0295  0841               	movf	___fladd@a+3,w
  6045  0296  00C2               	movwf	??___fladd
  6046  0297  0842               	movf	??___fladd,w
  6047  0298  00BD               	movwf	___fladd@b+3
  6048  0299                     l2344:	
  6049  0299  084D               	movf	___fladd@grs,w
  6050  029A  00C2               	movwf	??___fladd
  6051  029B  0842               	movf	??___fladd,w
  6052  029C  00C1               	movwf	___fladd@a+3
  6053  029D                     l2346:	
  6054  029D  01CD               	clrf	___fladd@grs
  6055  029E                     l2348:	
  6056  029E  084B               	movf	___fladd@aexp,w
  6057  029F  00C2               	movwf	??___fladd
  6058  02A0  01C3               	clrf	??___fladd+1
  6059  02A1  0843               	movf	??___fladd+1,w
  6060  02A2  00C5               	movwf	??___fladd+3
  6061  02A3  084C               	movf	___fladd@bexp,w
  6062  02A4  0242               	subwf	??___fladd,w
  6063  02A5  00C4               	movwf	??___fladd+2
  6064  02A6  1C03               	skipc
  6065  02A7  03C5               	decf	??___fladd+3,f
  6066  02A8  0845               	movf	??___fladd+3,w
  6067  02A9  3A80               	xorlw	128
  6068  02AA  00FF               	movwf	btemp+1
  6069  02AB  3080               	movlw	128
  6070  02AC  027F               	subwf	btemp+1,w
  6071  02AD  1D03               	skipz
  6072  02AE  2AB1               	goto	u2755
  6073  02AF  301A               	movlw	26
  6074  02B0  0244               	subwf	??___fladd+2,w
  6075  02B1                     u2755:	
  6076  02B1  1C03               	skipc
  6077  02B2  2AB4               	goto	u2751
  6078  02B3  2AB5               	goto	u2750
  6079  02B4                     u2751:	
  6080  02B4  2AF2               	goto	l2364
  6081  02B5                     u2750:	
  6082  02B5                     l2350:	
  6083  02B5  1283               	bcf	3,5	;RP0=0, select bank0
  6084  02B6  1303               	bcf	3,6	;RP1=0, select bank0
  6085  02B7  083D               	movf	___fladd@b+3,w
  6086  02B8  043C               	iorwf	___fladd@b+2,w
  6087  02B9  043B               	iorwf	___fladd@b+1,w
  6088  02BA  043A               	iorwf	___fladd@b,w
  6089  02BB  1D03               	skipz
  6090  02BC  2ABE               	goto	u2761
  6091  02BD  2AC0               	goto	u2760
  6092  02BE                     u2761:	
  6093  02BE  3001               	movlw	1
  6094  02BF  2AC1               	goto	u2770
  6095  02C0                     u2760:	
  6096  02C0  3000               	movlw	0
  6097  02C1                     u2770:	
  6098  02C1  00C2               	movwf	??___fladd
  6099  02C2  0842               	movf	??___fladd,w
  6100  02C3  00CD               	movwf	___fladd@grs
  6101  02C4  3000               	movlw	0
  6102  02C5  00BD               	movwf	___fladd@b+3
  6103  02C6  3000               	movlw	0
  6104  02C7  00BC               	movwf	___fladd@b+2
  6105  02C8  3000               	movlw	0
  6106  02C9  00BB               	movwf	___fladd@b+1
  6107  02CA  3000               	movlw	0
  6108  02CB  00BA               	movwf	___fladd@b
  6109  02CC  084B               	movf	___fladd@aexp,w
  6110  02CD  00C2               	movwf	??___fladd
  6111  02CE  0842               	movf	??___fladd,w
  6112  02CF  00CC               	movwf	___fladd@bexp
  6113  02D0  2AFA               	goto	l688
  6114  02D1                     l690:	
  6115  02D1  1C4D               	btfss	___fladd@grs,0
  6116  02D2  2AD4               	goto	u2781
  6117  02D3  2AD5               	goto	u2780
  6118  02D4                     u2781:	
  6119  02D4  2ADE               	goto	l2354
  6120  02D5                     u2780:	
  6121  02D5                     l2352:	
  6122  02D5  084D               	movf	___fladd@grs,w
  6123  02D6  00C2               	movwf	??___fladd
  6124  02D7  1003               	clrc
  6125  02D8  0C42               	rrf	??___fladd,w
  6126  02D9  3801               	iorlw	1
  6127  02DA  00C3               	movwf	??___fladd+1
  6128  02DB  0843               	movf	??___fladd+1,w
  6129  02DC  00CD               	movwf	___fladd@grs
  6130  02DD  2AE0               	goto	l2356
  6131  02DE                     l2354:	
  6132  02DE  1003               	clrc
  6133  02DF  0CCD               	rrf	___fladd@grs,f
  6134  02E0                     l2356:	
  6135  02E0  1C3A               	btfss	___fladd@b,0
  6136  02E1  2AE3               	goto	u2791
  6137  02E2  2AE4               	goto	u2790
  6138  02E3                     u2791:	
  6139  02E3  2AE5               	goto	l2360
  6140  02E4                     u2790:	
  6141  02E4                     l2358:	
  6142  02E4  17CD               	bsf	___fladd@grs,7
  6143  02E5                     l2360:	
  6144  02E5  3001               	movlw	1
  6145  02E6  00C2               	movwf	??___fladd
  6146  02E7                     u2805:	
  6147  02E7  0D3D               	rlf	___fladd@b+3,w
  6148  02E8  0CBD               	rrf	___fladd@b+3,f
  6149  02E9  0CBC               	rrf	___fladd@b+2,f
  6150  02EA  0CBB               	rrf	___fladd@b+1,f
  6151  02EB  0CBA               	rrf	___fladd@b,f
  6152  02EC  0BC2               	decfsz	??___fladd& (0+127),f
  6153  02ED  2AE7               	goto	u2805
  6154  02EE                     l2362:	
  6155  02EE  3001               	movlw	1
  6156  02EF  00C2               	movwf	??___fladd
  6157  02F0  0842               	movf	??___fladd,w
  6158  02F1  07CC               	addwf	___fladd@bexp,f
  6159  02F2                     l2364:	
  6160  02F2  1283               	bcf	3,5	;RP0=0, select bank0
  6161  02F3  1303               	bcf	3,6	;RP1=0, select bank0
  6162  02F4  084B               	movf	___fladd@aexp,w
  6163  02F5  024C               	subwf	___fladd@bexp,w
  6164  02F6  1C03               	skipc
  6165  02F7  2AF9               	goto	u2811
  6166  02F8  2AFA               	goto	u2810
  6167  02F9                     u2811:	
  6168  02F9  2AD1               	goto	l690
  6169  02FA                     u2810:	
  6170  02FA                     l688:	
  6171  02FA  1B4A               	btfsc	___fladd@signs,6
  6172  02FB  2AFD               	goto	u2821
  6173  02FC  2AFE               	goto	u2820
  6174  02FD                     u2821:	
  6175  02FD  2B49               	goto	l2390
  6176  02FE                     u2820:	
  6177  02FE                     l2366:	
  6178  02FE  084C               	movf	___fladd@bexp,w
  6179  02FF  1D03               	btfss	3,2
  6180  0300  2B02               	goto	u2831
  6181  0301  2B03               	goto	u2830
  6182  0302                     u2831:	
  6183  0302  2B0C               	goto	l2372
  6184  0303                     u2830:	
  6185  0303                     l2368:	
  6186  0303  3000               	movlw	0
  6187  0304  00BD               	movwf	?___fladd+3
  6188  0305  3000               	movlw	0
  6189  0306  00BC               	movwf	?___fladd+2
  6190  0307  3000               	movlw	0
  6191  0308  00BB               	movwf	?___fladd+1
  6192  0309  3000               	movlw	0
  6193  030A  00BA               	movwf	?___fladd
  6194  030B  2C77               	goto	l697
  6195  030C                     l2372:	
  6196  030C  083E               	movf	___fladd@a,w
  6197  030D  07BA               	addwf	___fladd@b,f
  6198  030E  083F               	movf	___fladd@a+1,w
  6199  030F  1103               	clrz
  6200  0310  1803               	skipnc
  6201  0311  3E01               	addlw	1
  6202  0312  1903               	skipnz
  6203  0313  2B15               	goto	u2841
  6204  0314  07BB               	addwf	___fladd@b+1,f
  6205  0315                     u2841:	
  6206  0315  0840               	movf	___fladd@a+2,w
  6207  0316  1103               	clrz
  6208  0317  1803               	skipnc
  6209  0318  3E01               	addlw	1
  6210  0319  1903               	skipnz
  6211  031A  2B1C               	goto	u2842
  6212  031B  07BC               	addwf	___fladd@b+2,f
  6213  031C                     u2842:	
  6214  031C  0841               	movf	___fladd@a+3,w
  6215  031D  1103               	clrz
  6216  031E  1803               	skipnc
  6217  031F  3E01               	addlw	1
  6218  0320  1903               	skipnz
  6219  0321  2B23               	goto	u2843
  6220  0322  07BD               	addwf	___fladd@b+3,f
  6221  0323                     u2843:	
  6222  0323                     l2374:	
  6223  0323  1C3D               	btfss	___fladd@b+3,0
  6224  0324  2B26               	goto	u2851
  6225  0325  2B27               	goto	u2850
  6226  0326                     u2851:	
  6227  0326  2BFD               	goto	l2424
  6228  0327                     u2850:	
  6229  0327                     l2376:	
  6230  0327  1C4D               	btfss	___fladd@grs,0
  6231  0328  2B2A               	goto	u2861
  6232  0329  2B2B               	goto	u2860
  6233  032A                     u2861:	
  6234  032A  2B34               	goto	l2380
  6235  032B                     u2860:	
  6236  032B                     l2378:	
  6237  032B  084D               	movf	___fladd@grs,w
  6238  032C  00C2               	movwf	??___fladd
  6239  032D  1003               	clrc
  6240  032E  0C42               	rrf	??___fladd,w
  6241  032F  3801               	iorlw	1
  6242  0330  00C3               	movwf	??___fladd+1
  6243  0331  0843               	movf	??___fladd+1,w
  6244  0332  00CD               	movwf	___fladd@grs
  6245  0333  2B36               	goto	l2382
  6246  0334                     l2380:	
  6247  0334  1003               	clrc
  6248  0335  0CCD               	rrf	___fladd@grs,f
  6249  0336                     l2382:	
  6250  0336  1C3A               	btfss	___fladd@b,0
  6251  0337  2B39               	goto	u2871
  6252  0338  2B3A               	goto	u2870
  6253  0339                     u2871:	
  6254  0339  2B3B               	goto	l2386
  6255  033A                     u2870:	
  6256  033A                     l2384:	
  6257  033A  17CD               	bsf	___fladd@grs,7
  6258  033B                     l2386:	
  6259  033B  3001               	movlw	1
  6260  033C  00C2               	movwf	??___fladd
  6261  033D                     u2885:	
  6262  033D  0D3D               	rlf	___fladd@b+3,w
  6263  033E  0CBD               	rrf	___fladd@b+3,f
  6264  033F  0CBC               	rrf	___fladd@b+2,f
  6265  0340  0CBB               	rrf	___fladd@b+1,f
  6266  0341  0CBA               	rrf	___fladd@b,f
  6267  0342  0BC2               	decfsz	??___fladd& (0+127),f
  6268  0343  2B3D               	goto	u2885
  6269  0344                     l2388:	
  6270  0344  3001               	movlw	1
  6271  0345  00C2               	movwf	??___fladd
  6272  0346  0842               	movf	??___fladd,w
  6273  0347  07CC               	addwf	___fladd@bexp,f
  6274  0348  2BFD               	goto	l2424
  6275  0349                     l2390:	
  6276  0349  083D               	movf	___fladd@b+3,w
  6277  034A  3A80               	xorlw	128
  6278  034B  00FF               	movwf	btemp+1
  6279  034C  0841               	movf	___fladd@a+3,w
  6280  034D  3A80               	xorlw	128
  6281  034E  027F               	subwf	btemp+1,w
  6282  034F  1D03               	skipz
  6283  0350  2B5B               	goto	u2893
  6284  0351  0840               	movf	___fladd@a+2,w
  6285  0352  023C               	subwf	___fladd@b+2,w
  6286  0353  1D03               	skipz
  6287  0354  2B5B               	goto	u2893
  6288  0355  083F               	movf	___fladd@a+1,w
  6289  0356  023B               	subwf	___fladd@b+1,w
  6290  0357  1D03               	skipz
  6291  0358  2B5B               	goto	u2893
  6292  0359  083E               	movf	___fladd@a,w
  6293  035A  023A               	subwf	___fladd@b,w
  6294  035B                     u2893:	
  6295  035B  1803               	skipnc
  6296  035C  2B5E               	goto	u2891
  6297  035D  2B5F               	goto	u2890
  6298  035E                     u2891:	
  6299  035E  2BB7               	goto	l2400
  6300  035F                     u2890:	
  6301  035F                     l2392:	
  6302  035F  30FF               	movlw	255
  6303  0360  00C2               	movwf	??___fladd
  6304  0361  30FF               	movlw	255
  6305  0362  00C3               	movwf	??___fladd+1
  6306  0363  30FF               	movlw	255
  6307  0364  00C4               	movwf	??___fladd+2
  6308  0365  30FF               	movlw	255
  6309  0366  00C5               	movwf	??___fladd+3
  6310  0367  083E               	movf	___fladd@a,w
  6311  0368  00C6               	movwf	??___fladd+4
  6312  0369  083F               	movf	___fladd@a+1,w
  6313  036A  00C7               	movwf	??___fladd+5
  6314  036B  0840               	movf	___fladd@a+2,w
  6315  036C  00C8               	movwf	??___fladd+6
  6316  036D  0841               	movf	___fladd@a+3,w
  6317  036E  00C9               	movwf	??___fladd+7
  6318  036F  083A               	movf	___fladd@b,w
  6319  0370  02C6               	subwf	??___fladd+4,f
  6320  0371  083B               	movf	___fladd@b+1,w
  6321  0372  1C03               	skipc
  6322  0373  0F3B               	incfsz	___fladd@b+1,w
  6323  0374  2B76               	goto	u2901
  6324  0375  2B77               	goto	u2902
  6325  0376                     u2901:	
  6326  0376  02C7               	subwf	??___fladd+5,f
  6327  0377                     u2902:	
  6328  0377  083C               	movf	___fladd@b+2,w
  6329  0378  1C03               	skipc
  6330  0379  0F3C               	incfsz	___fladd@b+2,w
  6331  037A  2B7C               	goto	u2903
  6332  037B  2B7D               	goto	u2904
  6333  037C                     u2903:	
  6334  037C  02C8               	subwf	??___fladd+6,f
  6335  037D                     u2904:	
  6336  037D  083D               	movf	___fladd@b+3,w
  6337  037E  1C03               	skipc
  6338  037F  0F3D               	incfsz	___fladd@b+3,w
  6339  0380  2B82               	goto	u2905
  6340  0381  2B83               	goto	u2906
  6341  0382                     u2905:	
  6342  0382  02C9               	subwf	??___fladd+7,f
  6343  0383                     u2906:	
  6344  0383  0846               	movf	??___fladd+4,w
  6345  0384  07C2               	addwf	??___fladd,f
  6346  0385  0847               	movf	??___fladd+5,w
  6347  0386  1803               	skipnc
  6348  0387  0F47               	incfsz	??___fladd+5,w
  6349  0388  2B8A               	goto	u2910
  6350  0389  2B8B               	goto	u2911
  6351  038A                     u2910:	
  6352  038A  07C3               	addwf	??___fladd+1,f
  6353  038B                     u2911:	
  6354  038B  0848               	movf	??___fladd+6,w
  6355  038C  1803               	skipnc
  6356  038D  0F48               	incfsz	??___fladd+6,w
  6357  038E  2B90               	goto	u2912
  6358  038F  2B91               	goto	u2913
  6359  0390                     u2912:	
  6360  0390  07C4               	addwf	??___fladd+2,f
  6361  0391                     u2913:	
  6362  0391  0849               	movf	??___fladd+7,w
  6363  0392  1803               	skipnc
  6364  0393  0A49               	incf	??___fladd+7,w
  6365  0394  07C5               	addwf	??___fladd+3,f
  6366  0395  0845               	movf	??___fladd+3,w
  6367  0396  00BD               	movwf	___fladd@b+3
  6368  0397  0844               	movf	??___fladd+2,w
  6369  0398  00BC               	movwf	___fladd@b+2
  6370  0399  0843               	movf	??___fladd+1,w
  6371  039A  00BB               	movwf	___fladd@b+1
  6372  039B  0842               	movf	??___fladd,w
  6373  039C  00BA               	movwf	___fladd@b
  6374  039D                     l2394:	
  6375  039D  3080               	movlw	128
  6376  039E  00C2               	movwf	??___fladd
  6377  039F  0842               	movf	??___fladd,w
  6378  03A0  06CA               	xorwf	___fladd@signs,f
  6379  03A1  09CD               	comf	___fladd@grs,f
  6380  03A2  0ACD               	incf	___fladd@grs,f
  6381  03A3                     l2396:	
  6382  03A3  084D               	movf	___fladd@grs,w
  6383  03A4  1D03               	btfss	3,2
  6384  03A5  2BA7               	goto	u2921
  6385  03A6  2BA8               	goto	u2920
  6386  03A7                     u2921:	
  6387  03A7  2BC5               	goto	l705
  6388  03A8                     u2920:	
  6389  03A8                     l2398:	
  6390  03A8  3001               	movlw	1
  6391  03A9  07BA               	addwf	___fladd@b,f
  6392  03AA  3000               	movlw	0
  6393  03AB  1803               	skipnc
  6394  03AC  3001               	movlw	1
  6395  03AD  07BB               	addwf	___fladd@b+1,f
  6396  03AE  3000               	movlw	0
  6397  03AF  1803               	skipnc
  6398  03B0  3001               	movlw	1
  6399  03B1  07BC               	addwf	___fladd@b+2,f
  6400  03B2  3000               	movlw	0
  6401  03B3  1803               	skipnc
  6402  03B4  3001               	movlw	1
  6403  03B5  07BD               	addwf	___fladd@b+3,f
  6404  03B6  2BC5               	goto	l705
  6405  03B7                     l2400:	
  6406  03B7  083E               	movf	___fladd@a,w
  6407  03B8  02BA               	subwf	___fladd@b,f
  6408  03B9  083F               	movf	___fladd@a+1,w
  6409  03BA  1C03               	skipc
  6410  03BB  0F3F               	incfsz	___fladd@a+1,w
  6411  03BC  02BB               	subwf	___fladd@b+1,f
  6412  03BD  0840               	movf	___fladd@a+2,w
  6413  03BE  1C03               	skipc
  6414  03BF  0F40               	incfsz	___fladd@a+2,w
  6415  03C0  02BC               	subwf	___fladd@b+2,f
  6416  03C1  0841               	movf	___fladd@a+3,w
  6417  03C2  1C03               	skipc
  6418  03C3  0F41               	incfsz	___fladd@a+3,w
  6419  03C4  02BD               	subwf	___fladd@b+3,f
  6420  03C5                     l705:	
  6421  03C5  083D               	movf	___fladd@b+3,w
  6422  03C6  043C               	iorwf	___fladd@b+2,w
  6423  03C7  043B               	iorwf	___fladd@b+1,w
  6424  03C8  043A               	iorwf	___fladd@b,w
  6425  03C9  1D03               	skipz
  6426  03CA  2BCC               	goto	u2931
  6427  03CB  2BCD               	goto	u2930
  6428  03CC                     u2931:	
  6429  03CC  2BF9               	goto	l2422
  6430  03CD                     u2930:	
  6431  03CD                     l2402:	
  6432  03CD  084D               	movf	___fladd@grs,w
  6433  03CE  1D03               	btfss	3,2
  6434  03CF  2BD1               	goto	u2941
  6435  03D0  2BD2               	goto	u2940
  6436  03D1                     u2941:	
  6437  03D1  2BF9               	goto	l2422
  6438  03D2                     u2940:	
  6439  03D2                     l2404:	
  6440  03D2  3000               	movlw	0
  6441  03D3  00BD               	movwf	?___fladd+3
  6442  03D4  3000               	movlw	0
  6443  03D5  00BC               	movwf	?___fladd+2
  6444  03D6  3000               	movlw	0
  6445  03D7  00BB               	movwf	?___fladd+1
  6446  03D8  3000               	movlw	0
  6447  03D9  00BA               	movwf	?___fladd
  6448  03DA  2C77               	goto	l697
  6449  03DB                     l2408:	
  6450  03DB  3001               	movlw	1
  6451  03DC  00C2               	movwf	??___fladd
  6452  03DD                     u2955:	
  6453  03DD  1003               	clrc
  6454  03DE  0DBA               	rlf	___fladd@b,f
  6455  03DF  0DBB               	rlf	___fladd@b+1,f
  6456  03E0  0DBC               	rlf	___fladd@b+2,f
  6457  03E1  0DBD               	rlf	___fladd@b+3,f
  6458  03E2  0BC2               	decfsz	??___fladd,f
  6459  03E3  2BDD               	goto	u2955
  6460  03E4                     l2410:	
  6461  03E4  1FCD               	btfss	___fladd@grs,7
  6462  03E5  2BE7               	goto	u2961
  6463  03E6  2BE8               	goto	u2960
  6464  03E7                     u2961:	
  6465  03E7  2BE9               	goto	l709
  6466  03E8                     u2960:	
  6467  03E8                     l2412:	
  6468  03E8  143A               	bsf	___fladd@b,0
  6469  03E9                     l709:	
  6470  03E9  1C4D               	btfss	___fladd@grs,0
  6471  03EA  2BEC               	goto	u2971
  6472  03EB  2BED               	goto	u2970
  6473  03EC                     u2971:	
  6474  03EC  2BF0               	goto	l2416
  6475  03ED                     u2970:	
  6476  03ED                     l2414:	
  6477  03ED  1403               	setc
  6478  03EE  0DCD               	rlf	___fladd@grs,f
  6479  03EF  2BF2               	goto	l2418
  6480  03F0                     l2416:	
  6481  03F0  1003               	clrc
  6482  03F1  0DCD               	rlf	___fladd@grs,f
  6483  03F2                     l2418:	
  6484  03F2  084C               	movf	___fladd@bexp,w
  6485  03F3  1903               	btfsc	3,2
  6486  03F4  2BF6               	goto	u2981
  6487  03F5  2BF7               	goto	u2980
  6488  03F6                     u2981:	
  6489  03F6  2BF9               	goto	l2422
  6490  03F7                     u2980:	
  6491  03F7                     l2420:	
  6492  03F7  3001               	movlw	1
  6493  03F8  02CC               	subwf	___fladd@bexp,f
  6494  03F9                     l2422:	
  6495  03F9  1FBC               	btfss	___fladd@b+2,7
  6496  03FA  2BFC               	goto	u2991
  6497  03FB  2BFD               	goto	u2990
  6498  03FC                     u2991:	
  6499  03FC  2BDB               	goto	l2408
  6500  03FD                     u2990:	
  6501  03FD                     l2424:	
  6502  03FD  01CB               	clrf	___fladd@aexp
  6503  03FE                     l2426:	
  6504  03FE  1FCD               	btfss	___fladd@grs,7
  6505  03FF  2C01               	goto	u3001
  6506  0400  2C02               	goto	u3000
  6507  0401                     u3001:	
  6508  0401  2C10               	goto	l2434
  6509  0402                     u3000:	
  6510  0402                     l2428:	
  6511  0402  084D               	movf	___fladd@grs,w
  6512  0403  397F               	andlw	127
  6513  0404  1903               	btfsc	3,2
  6514  0405  2C07               	goto	u3011
  6515  0406  2C08               	goto	u3010
  6516  0407                     u3011:	
  6517  0407  2C0B               	goto	l715
  6518  0408                     u3010:	
  6519  0408                     l2430:	
  6520  0408  01CB               	clrf	___fladd@aexp
  6521  0409  0ACB               	incf	___fladd@aexp,f
  6522  040A  2C10               	goto	l2434
  6523  040B                     l715:	
  6524  040B  1C3A               	btfss	___fladd@b,0
  6525  040C  2C0E               	goto	u3021
  6526  040D  2C0F               	goto	u3020
  6527  040E                     u3021:	
  6528  040E  2C10               	goto	l2434
  6529  040F                     u3020:	
  6530  040F  2C08               	goto	l2430
  6531  0410                     l2434:	
  6532  0410  084B               	movf	___fladd@aexp,w
  6533  0411  1903               	btfsc	3,2
  6534  0412  2C14               	goto	u3031
  6535  0413  2C15               	goto	u3030
  6536  0414                     u3031:	
  6537  0414  2C49               	goto	l718
  6538  0415                     u3030:	
  6539  0415                     l2436:	
  6540  0415  3001               	movlw	1
  6541  0416  07BA               	addwf	___fladd@b,f
  6542  0417  3000               	movlw	0
  6543  0418  1803               	skipnc
  6544  0419  3001               	movlw	1
  6545  041A  07BB               	addwf	___fladd@b+1,f
  6546  041B  3000               	movlw	0
  6547  041C  1803               	skipnc
  6548  041D  3001               	movlw	1
  6549  041E  07BC               	addwf	___fladd@b+2,f
  6550  041F  3000               	movlw	0
  6551  0420  1803               	skipnc
  6552  0421  3001               	movlw	1
  6553  0422  07BD               	addwf	___fladd@b+3,f
  6554  0423                     l2438:	
  6555  0423  1C3D               	btfss	___fladd@b+3,0
  6556  0424  2C26               	goto	u3041
  6557  0425  2C27               	goto	u3040
  6558  0426                     u3041:	
  6559  0426  2C49               	goto	l718
  6560  0427                     u3040:	
  6561  0427                     l2440:	
  6562  0427  083A               	movf	___fladd@b,w
  6563  0428  00C2               	movwf	??___fladd
  6564  0429  083B               	movf	___fladd@b+1,w
  6565  042A  00C3               	movwf	??___fladd+1
  6566  042B  083C               	movf	___fladd@b+2,w
  6567  042C  00C4               	movwf	??___fladd+2
  6568  042D  083D               	movf	___fladd@b+3,w
  6569  042E  00C5               	movwf	??___fladd+3
  6570  042F  3001               	movlw	1
  6571  0430  00C6               	movwf	??___fladd+4
  6572  0431                     u3055:	
  6573  0431  0D45               	rlf	??___fladd+3,w
  6574  0432  0CC5               	rrf	??___fladd+3,f
  6575  0433  0CC4               	rrf	??___fladd+2,f
  6576  0434  0CC3               	rrf	??___fladd+1,f
  6577  0435  0CC2               	rrf	??___fladd,f
  6578  0436                     u3050:	
  6579  0436  0BC6               	decfsz	??___fladd+4,f
  6580  0437  2C31               	goto	u3055
  6581  0438  0845               	movf	??___fladd+3,w
  6582  0439  00BD               	movwf	___fladd@b+3
  6583  043A  0844               	movf	??___fladd+2,w
  6584  043B  00BC               	movwf	___fladd@b+2
  6585  043C  0843               	movf	??___fladd+1,w
  6586  043D  00BB               	movwf	___fladd@b+1
  6587  043E  0842               	movf	??___fladd,w
  6588  043F  00BA               	movwf	___fladd@b
  6589  0440  0A4C               	incf	___fladd@bexp,w
  6590  0441  1903               	btfsc	3,2
  6591  0442  2C44               	goto	u3061
  6592  0443  2C45               	goto	u3060
  6593  0444                     u3061:	
  6594  0444  2C49               	goto	l718
  6595  0445                     u3060:	
  6596  0445                     l2442:	
  6597  0445  3001               	movlw	1
  6598  0446  00C2               	movwf	??___fladd
  6599  0447  0842               	movf	??___fladd,w
  6600  0448  07CC               	addwf	___fladd@bexp,f
  6601  0449                     l718:	
  6602  0449  0A4C               	incf	___fladd@bexp,w
  6603  044A  1903               	btfsc	3,2
  6604  044B  2C4D               	goto	u3071
  6605  044C  2C4E               	goto	u3070
  6606  044D                     u3071:	
  6607  044D  2C53               	goto	l2446
  6608  044E                     u3070:	
  6609  044E                     l2444:	
  6610  044E  084C               	movf	___fladd@bexp,w
  6611  044F  1D03               	btfss	3,2
  6612  0450  2C52               	goto	u3081
  6613  0451  2C53               	goto	u3080
  6614  0452                     u3081:	
  6615  0452  2C61               	goto	l2452
  6616  0453                     u3080:	
  6617  0453                     l2446:	
  6618  0453  3000               	movlw	0
  6619  0454  00BD               	movwf	___fladd@b+3
  6620  0455  3000               	movlw	0
  6621  0456  00BC               	movwf	___fladd@b+2
  6622  0457  3000               	movlw	0
  6623  0458  00BB               	movwf	___fladd@b+1
  6624  0459  3000               	movlw	0
  6625  045A  00BA               	movwf	___fladd@b
  6626  045B                     l2448:	
  6627  045B  084C               	movf	___fladd@bexp,w
  6628  045C  1D03               	btfss	3,2
  6629  045D  2C5F               	goto	u3091
  6630  045E  2C60               	goto	u3090
  6631  045F                     u3091:	
  6632  045F  2C61               	goto	l2452
  6633  0460                     u3090:	
  6634  0460                     l2450:	
  6635  0460  01CA               	clrf	___fladd@signs
  6636  0461                     l2452:	
  6637  0461  1C4C               	btfss	___fladd@bexp,0
  6638  0462  2C64               	goto	u3101
  6639  0463  2C65               	goto	u3100
  6640  0464                     u3101:	
  6641  0464  2C67               	goto	l2456
  6642  0465                     u3100:	
  6643  0465                     l2454:	
  6644  0465  17BC               	bsf	___fladd@b+2,7
  6645  0466  2C6B               	goto	l726
  6646  0467                     l2456:	
  6647  0467  307F               	movlw	127
  6648  0468  00C2               	movwf	??___fladd
  6649  0469  0842               	movf	??___fladd,w
  6650  046A  05BC               	andwf	___fladd@b+2,f
  6651  046B                     l726:	
  6652  046B  084C               	movf	___fladd@bexp,w
  6653  046C  00C2               	movwf	??___fladd
  6654  046D  1003               	clrc
  6655  046E  0C42               	rrf	??___fladd,w
  6656  046F  00C3               	movwf	??___fladd+1
  6657  0470  0843               	movf	??___fladd+1,w
  6658  0471  00BD               	movwf	___fladd@b+3
  6659  0472                     l2458:	
  6660  0472  1FCA               	btfss	___fladd@signs,7
  6661  0473  2C75               	goto	u3111
  6662  0474  2C76               	goto	u3110
  6663  0475                     u3111:	
  6664  0475  2C77               	goto	l727
  6665  0476                     u3110:	
  6666  0476                     l2460:	
  6667  0476  17BD               	bsf	___fladd@b+3,7
  6668  0477                     l727:	
  6669  0477                     l697:	
  6670  0477  0008               	return
  6671  0478                     __end_of___fladd:	
  6672                           
  6673                           	psect	text15
  6674  14D2                     __ptext15:	
  6675 ;; *************** function _I2C_Master_Send_NACK *****************
  6676 ;; Defined at:
  6677 ;;		line 52 in file "I2C_v1.1.c"
  6678 ;; Parameters:    Size  Location     Type
  6679 ;;		None
  6680 ;; Auto vars:     Size  Location     Type
  6681 ;;		None
  6682 ;; Return value:  Size  Location     Type
  6683 ;;                  1    wreg      void 
  6684 ;; Registers used:
  6685 ;;		status,2, status,0, pclath, cstack
  6686 ;; Tracked objects:
  6687 ;;		On entry : 0/0
  6688 ;;		On exit  : 0/0
  6689 ;;		Unchanged: 0/0
  6690 ;; Data sizes:     COMMON   BANK0   BANK1   BANK3   BANK2
  6691 ;;      Params:         0       0       0       0       0
  6692 ;;      Locals:         0       0       0       0       0
  6693 ;;      Temps:          0       0       0       0       0
  6694 ;;      Totals:         0       0       0       0       0
  6695 ;;Total ram usage:        0 bytes
  6696 ;; Hardware stack levels used:    1
  6697 ;; Hardware stack levels required when called:    1
  6698 ;; This function calls:
  6699 ;;		_I2C_Master_Check_Idle
  6700 ;; This function is called by:
  6701 ;;		_I2C_SHT25_Temperature_Read
  6702 ;;		_I2C_SHT25_Relative_Humidity_Read
  6703 ;; This function uses a non-reentrant model
  6704 ;;
  6705                           
  6706                           
  6707                           ;psect for function _I2C_Master_Send_NACK
  6708  14D2                     _I2C_Master_Send_NACK:	
  6709  14D2                     l2102:	
  6710                           ;incstack = 0
  6711                           ; Regs used in _I2C_Master_Send_NACK: [status,2+status,0+pclath+cstack]
  6712                           
  6713                           
  6714                           ;I2C_v1.1.c: 53:         I2C_Master_Check_Idle();
  6715  14D2  160A  118A  2569  160A  118A  	fcall	_I2C_Master_Check_Idle
  6716  14D7                     l2104:	
  6717                           
  6718                           ;I2C_v1.1.c: 54:         SSPCON2bits.ACKDT = 1;
  6719  14D7  1683               	bsf	3,5	;RP0=1, select bank1
  6720  14D8  1303               	bcf	3,6	;RP1=0, select bank1
  6721  14D9  1691               	bsf	17,5	;volatile
  6722  14DA                     l2106:	
  6723                           
  6724                           ;I2C_v1.1.c: 55:         SSPCON2bits.ACKEN = 1;
  6725  14DA  1611               	bsf	17,4	;volatile
  6726                           
  6727                           ;I2C_v1.1.c: 56:         I2C_Master_Check_Idle();
  6728  14DB  160A  118A  2569  160A  118A  	fcall	_I2C_Master_Check_Idle
  6729  14E0                     l46:	
  6730  14E0  0008               	return
  6731  14E1                     __end_of_I2C_Master_Send_NACK:	
  6732                           
  6733                           	psect	text16
  6734  14C3                     __ptext16:	
  6735 ;; *************** function _I2C_Master_Send_ACK *****************
  6736 ;; Defined at:
  6737 ;;		line 45 in file "I2C_v1.1.c"
  6738 ;; Parameters:    Size  Location     Type
  6739 ;;		None
  6740 ;; Auto vars:     Size  Location     Type
  6741 ;;		None
  6742 ;; Return value:  Size  Location     Type
  6743 ;;                  1    wreg      void 
  6744 ;; Registers used:
  6745 ;;		status,2, status,0, pclath, cstack
  6746 ;; Tracked objects:
  6747 ;;		On entry : 0/0
  6748 ;;		On exit  : 0/0
  6749 ;;		Unchanged: 0/0
  6750 ;; Data sizes:     COMMON   BANK0   BANK1   BANK3   BANK2
  6751 ;;      Params:         0       0       0       0       0
  6752 ;;      Locals:         0       0       0       0       0
  6753 ;;      Temps:          0       0       0       0       0
  6754 ;;      Totals:         0       0       0       0       0
  6755 ;;Total ram usage:        0 bytes
  6756 ;; Hardware stack levels used:    1
  6757 ;; Hardware stack levels required when called:    1
  6758 ;; This function calls:
  6759 ;;		_I2C_Master_Check_Idle
  6760 ;; This function is called by:
  6761 ;;		_I2C_SHT25_Temperature_Read
  6762 ;;		_I2C_SHT25_Relative_Humidity_Read
  6763 ;; This function uses a non-reentrant model
  6764 ;;
  6765                           
  6766                           
  6767                           ;psect for function _I2C_Master_Send_ACK
  6768  14C3                     _I2C_Master_Send_ACK:	
  6769  14C3                     l2096:	
  6770                           ;incstack = 0
  6771                           ; Regs used in _I2C_Master_Send_ACK: [status,2+status,0+pclath+cstack]
  6772                           
  6773                           
  6774                           ;I2C_v1.1.c: 46:         I2C_Master_Check_Idle();
  6775  14C3  160A  118A  2569  160A  118A  	fcall	_I2C_Master_Check_Idle
  6776  14C8                     l2098:	
  6777                           
  6778                           ;I2C_v1.1.c: 47:         SSPCON2bits.ACKDT = 0;
  6779  14C8  1683               	bsf	3,5	;RP0=1, select bank1
  6780  14C9  1303               	bcf	3,6	;RP1=0, select bank1
  6781  14CA  1291               	bcf	17,5	;volatile
  6782  14CB                     l2100:	
  6783                           
  6784                           ;I2C_v1.1.c: 48:         SSPCON2bits.ACKEN = 1;
  6785  14CB  1611               	bsf	17,4	;volatile
  6786                           
  6787                           ;I2C_v1.1.c: 49:         I2C_Master_Check_Idle();
  6788  14CC  160A  118A  2569  160A  118A  	fcall	_I2C_Master_Check_Idle
  6789  14D1                     l43:	
  6790  14D1  0008               	return
  6791  14D2                     __end_of_I2C_Master_Send_ACK:	
  6792                           
  6793                           	psect	text17
  6794  15A1                     __ptext17:	
  6795 ;; *************** function _I2C_Master_Read *****************
  6796 ;; Defined at:
  6797 ;;		line 66 in file "I2C_v1.1.c"
  6798 ;; Parameters:    Size  Location     Type
  6799 ;;		None
  6800 ;; Auto vars:     Size  Location     Type
  6801 ;;  dummy           1    0        unsigned char 
  6802 ;;  Recieved_Dat    1    2[COMMON] unsigned char 
  6803 ;; Return value:  Size  Location     Type
  6804 ;;                  1    wreg      unsigned char 
  6805 ;; Registers used:
  6806 ;;		wreg, status,2, status,0, pclath, cstack
  6807 ;; Tracked objects:
  6808 ;;		On entry : 0/0
  6809 ;;		On exit  : 0/0
  6810 ;;		Unchanged: 0/0
  6811 ;; Data sizes:     COMMON   BANK0   BANK1   BANK3   BANK2
  6812 ;;      Params:         0       0       0       0       0
  6813 ;;      Locals:         2       0       0       0       0
  6814 ;;      Temps:          1       0       0       0       0
  6815 ;;      Totals:         3       0       0       0       0
  6816 ;;Total ram usage:        3 bytes
  6817 ;; Hardware stack levels used:    1
  6818 ;; Hardware stack levels required when called:    1
  6819 ;; This function calls:
  6820 ;;		_I2C_Master_Check_Idle
  6821 ;; This function is called by:
  6822 ;;		_I2C_SHT25_Temperature_Read
  6823 ;;		_I2C_SHT25_Relative_Humidity_Read
  6824 ;; This function uses a non-reentrant model
  6825 ;;
  6826                           
  6827                           
  6828                           ;psect for function _I2C_Master_Read
  6829  15A1                     _I2C_Master_Read:	
  6830  15A1                     l2108:	
  6831                           ;incstack = 0
  6832                           ; Regs used in _I2C_Master_Read: [wreg+status,2+status,0+pclath+cstack]
  6833                           
  6834                           
  6835                           ;I2C_v1.1.c: 67:         unsigned char Recieved_Data;;I2C_v1.1.c: 69:             if(SSP
      +                          CONbits.SSPOV){
  6836  15A1  1283               	bcf	3,5	;RP0=0, select bank0
  6837  15A2  1303               	bcf	3,6	;RP1=0, select bank0
  6838  15A3  1F14               	btfss	20,6	;volatile
  6839  15A4  2DA6               	goto	u2291
  6840  15A5  2DA7               	goto	u2290
  6841  15A6                     u2291:	
  6842  15A6  2DA9               	goto	l2114
  6843  15A7                     u2290:	
  6844  15A7                     l2110:	
  6845  15A7  0813               	movf	19,w	;volatile
  6846  15A8                     l2112:	
  6847                           
  6848                           ;I2C_v1.1.c: 71:                 SSPCONbits.SSPOV = 0;
  6849  15A8  1314               	bcf	20,6	;volatile
  6850  15A9                     l2114:	
  6851                           
  6852                           ;I2C_v1.1.c: 73:         I2C_Master_Check_Idle();
  6853  15A9  160A  118A  2569  160A  118A  	fcall	_I2C_Master_Check_Idle
  6854  15AE                     l2116:	
  6855                           
  6856                           ;I2C_v1.1.c: 74:         SSPCON2bits.RCEN = 1;
  6857  15AE  1683               	bsf	3,5	;RP0=1, select bank1
  6858  15AF  1303               	bcf	3,6	;RP1=0, select bank1
  6859  15B0  1591               	bsf	17,3	;volatile
  6860  15B1                     l2118:	
  6861                           
  6862                           ;I2C_v1.1.c: 75:         I2C_Master_Check_Idle();
  6863  15B1  160A  118A  2569  160A  118A  	fcall	_I2C_Master_Check_Idle
  6864                           
  6865                           ;I2C_v1.1.c: 76:         Recieved_Data = SSPBUF;
  6866  15B6  1283               	bcf	3,5	;RP0=0, select bank0
  6867  15B7  1303               	bcf	3,6	;RP1=0, select bank0
  6868  15B8  0813               	movf	19,w	;volatile
  6869  15B9  00F0               	movwf	??_I2C_Master_Read
  6870  15BA  0870               	movf	??_I2C_Master_Read,w
  6871  15BB  00F2               	movwf	I2C_Master_Read@Recieved_Data
  6872                           
  6873                           ;I2C_v1.1.c: 77:         return Recieved_Data;
  6874  15BC  0872               	movf	I2C_Master_Read@Recieved_Data,w
  6875  15BD                     l53:	
  6876  15BD  0008               	return
  6877  15BE                     __end_of_I2C_Master_Read:	
  6878                           
  6879                           	psect	text18
  6880  16A6                     __ptext18:	
  6881 ;; *************** function _I2C_Master_Initialize *****************
  6882 ;; Defined at:
  6883 ;;		line 14 in file "I2C_v1.1.c"
  6884 ;; Parameters:    Size  Location     Type
  6885 ;;  I2C_BaudRate    4    0[BANK0 ] const unsigned long 
  6886 ;;  I2C_SMP_OnOf    1    4[BANK0 ] _Bool 
  6887 ;;  I2C_CKE_OnOf    1    5[BANK0 ] _Bool 
  6888 ;; Auto vars:     Size  Location     Type
  6889 ;;		None
  6890 ;; Return value:  Size  Location     Type
  6891 ;;                  1    wreg      void 
  6892 ;; Registers used:
  6893 ;;		wreg, status,2, status,0, pclath, cstack
  6894 ;; Tracked objects:
  6895 ;;		On entry : 0/0
  6896 ;;		On exit  : 0/0
  6897 ;;		Unchanged: 0/0
  6898 ;; Data sizes:     COMMON   BANK0   BANK1   BANK3   BANK2
  6899 ;;      Params:         0       6       0       0       0
  6900 ;;      Locals:         0       0       0       0       0
  6901 ;;      Temps:          0       4       0       0       0
  6902 ;;      Totals:         0      10       0       0       0
  6903 ;;Total ram usage:       10 bytes
  6904 ;; Hardware stack levels used:    1
  6905 ;; Hardware stack levels required when called:    1
  6906 ;; This function calls:
  6907 ;;		___lldiv
  6908 ;; This function is called by:
  6909 ;;		_main
  6910 ;; This function uses a non-reentrant model
  6911 ;;
  6912                           
  6913                           
  6914                           ;psect for function _I2C_Master_Initialize
  6915  16A6                     _I2C_Master_Initialize:	
  6916  16A6                     l2788:	
  6917                           ;incstack = 0
  6918                           ; Regs used in _I2C_Master_Initialize: [wreg+status,2+status,0+pclath+cstack]
  6919                           
  6920                           
  6921                           ;I2C_v1.1.c: 15:         SSPSTAT = (I2C_SMP_OnOff<<7)|(I2C_CKE_OnOff<<6);
  6922  16A6  1283               	bcf	3,5	;RP0=0, select bank0
  6923  16A7  1303               	bcf	3,6	;RP1=0, select bank0
  6924  16A8  0825               	movf	I2C_Master_Initialize@I2C_CKE_OnOff,w
  6925  16A9  00A6               	movwf	??_I2C_Master_Initialize
  6926  16AA  3006               	movlw	6
  6927  16AB                     u3925:	
  6928  16AB  1003               	clrc
  6929  16AC  0DA6               	rlf	??_I2C_Master_Initialize,f
  6930  16AD  3EFF               	addlw	-1
  6931  16AE  1D03               	skipz
  6932  16AF  2EAB               	goto	u3925
  6933  16B0  0824               	movf	I2C_Master_Initialize@I2C_SMP_OnOff,w
  6934  16B1  00A7               	movwf	??_I2C_Master_Initialize+1
  6935  16B2  3006               	movlw	6
  6936  16B3                     u3935:	
  6937  16B3  1003               	clrc
  6938  16B4  0DA7               	rlf	??_I2C_Master_Initialize+1,f
  6939  16B5  3EFF               	addlw	-1
  6940  16B6  1D03               	skipz
  6941  16B7  2EB3               	goto	u3935
  6942  16B8  1003               	clrc
  6943  16B9  0D27               	rlf	??_I2C_Master_Initialize+1,w
  6944  16BA  0426               	iorwf	??_I2C_Master_Initialize,w
  6945  16BB  1683               	bsf	3,5	;RP0=1, select bank1
  6946  16BC  1303               	bcf	3,6	;RP1=0, select bank1
  6947  16BD  0094               	movwf	20	;volatile
  6948  16BE                     l2790:	
  6949                           
  6950                           ;I2C_v1.1.c: 16:         SSPCON = 0b00101000;
  6951  16BE  3028               	movlw	40
  6952  16BF  1283               	bcf	3,5	;RP0=0, select bank0
  6953  16C0  1303               	bcf	3,6	;RP1=0, select bank0
  6954  16C1  0094               	movwf	20	;volatile
  6955  16C2                     l2792:	
  6956                           
  6957                           ;I2C_v1.1.c: 17:         SSPCON2 = 0x00;
  6958  16C2  1683               	bsf	3,5	;RP0=1, select bank1
  6959  16C3  1303               	bcf	3,6	;RP1=0, select bank1
  6960  16C4  0191               	clrf	17	;volatile
  6961  16C5                     l2794:	
  6962                           
  6963                           ;I2C_v1.1.c: 18:         SSPADD = (20000000UL/(4*I2C_BaudRate)) - 1;
  6964  16C5  1283               	bcf	3,5	;RP0=0, select bank0
  6965  16C6  1303               	bcf	3,6	;RP1=0, select bank0
  6966  16C7  0820               	movf	I2C_Master_Initialize@I2C_BaudRate,w
  6967  16C8  00A6               	movwf	??_I2C_Master_Initialize
  6968  16C9  0821               	movf	I2C_Master_Initialize@I2C_BaudRate+1,w
  6969  16CA  00A7               	movwf	??_I2C_Master_Initialize+1
  6970  16CB  0822               	movf	I2C_Master_Initialize@I2C_BaudRate+2,w
  6971  16CC  00A8               	movwf	??_I2C_Master_Initialize+2
  6972  16CD  0823               	movf	I2C_Master_Initialize@I2C_BaudRate+3,w
  6973  16CE  00A9               	movwf	??_I2C_Master_Initialize+3
  6974  16CF  3002               	movlw	2
  6975  16D0                     u3945:	
  6976  16D0  1003               	clrc
  6977  16D1  0DA6               	rlf	??_I2C_Master_Initialize,f
  6978  16D2  0DA7               	rlf	??_I2C_Master_Initialize+1,f
  6979  16D3  0DA8               	rlf	??_I2C_Master_Initialize+2,f
  6980  16D4  0DA9               	rlf	??_I2C_Master_Initialize+3,f
  6981  16D5                     u3940:	
  6982  16D5  3EFF               	addlw	-1
  6983  16D6  1D03               	skipz
  6984  16D7  2ED0               	goto	u3945
  6985  16D8  0829               	movf	??_I2C_Master_Initialize+3,w
  6986  16D9  00F3               	movwf	___lldiv@divisor+3
  6987  16DA  0828               	movf	??_I2C_Master_Initialize+2,w
  6988  16DB  00F2               	movwf	___lldiv@divisor+2
  6989  16DC  0827               	movf	??_I2C_Master_Initialize+1,w
  6990  16DD  00F1               	movwf	___lldiv@divisor+1
  6991  16DE  0826               	movf	??_I2C_Master_Initialize,w
  6992  16DF  00F0               	movwf	___lldiv@divisor
  6993  16E0  3001               	movlw	1
  6994  16E1  00F7               	movwf	___lldiv@dividend+3
  6995  16E2  3031               	movlw	49
  6996  16E3  00F6               	movwf	___lldiv@dividend+2
  6997  16E4  302D               	movlw	45
  6998  16E5  00F5               	movwf	___lldiv@dividend+1
  6999  16E6  3000               	movlw	0
  7000  16E7  00F4               	movwf	___lldiv@dividend
  7001  16E8  120A  158A  2004  160A  118A  	fcall	___lldiv
  7002  16ED  0870               	movf	?___lldiv,w
  7003  16EE  3EFF               	addlw	255
  7004  16EF  1683               	bsf	3,5	;RP0=1, select bank1
  7005  16F0  1303               	bcf	3,6	;RP1=0, select bank1
  7006  16F1  0093               	movwf	19	;volatile
  7007  16F2                     l2796:	
  7008                           
  7009                           ;I2C_v1.1.c: 19:         TRISCbits.TRISC3 = 1;
  7010  16F2  1587               	bsf	7,3	;volatile
  7011  16F3                     l2798:	
  7012                           
  7013                           ;I2C_v1.1.c: 20:         TRISCbits.TRISC4 = 1;
  7014  16F3  1607               	bsf	7,4	;volatile
  7015  16F4                     l25:	
  7016  16F4  0008               	return
  7017  16F5                     __end_of_I2C_Master_Initialize:	
  7018                           
  7019                           	psect	text19
  7020  0804                     __ptext19:	
  7021 ;; *************** function ___lldiv *****************
  7022 ;; Defined at:
  7023 ;;		line 5 in file "C:\Program Files (x86)\Microchip\xc8\v2.10\pic\sources\c90\common\__lldiv.c"
  7024 ;; Parameters:    Size  Location     Type
  7025 ;;  divisor         4    0[COMMON] unsigned long 
  7026 ;;  dividend        4    4[COMMON] unsigned long 
  7027 ;; Auto vars:     Size  Location     Type
  7028 ;;  quotient        4    9[COMMON] unsigned long 
  7029 ;;  counter         1   13[COMMON] unsigned char 
  7030 ;; Return value:  Size  Location     Type
  7031 ;;                  4    0[COMMON] unsigned long 
  7032 ;; Registers used:
  7033 ;;		wreg, status,2, status,0
  7034 ;; Tracked objects:
  7035 ;;		On entry : 0/0
  7036 ;;		On exit  : 0/0
  7037 ;;		Unchanged: 0/0
  7038 ;; Data sizes:     COMMON   BANK0   BANK1   BANK3   BANK2
  7039 ;;      Params:         8       0       0       0       0
  7040 ;;      Locals:         5       0       0       0       0
  7041 ;;      Temps:          1       0       0       0       0
  7042 ;;      Totals:        14       0       0       0       0
  7043 ;;Total ram usage:       14 bytes
  7044 ;; Hardware stack levels used:    1
  7045 ;; This function calls:
  7046 ;;		Nothing
  7047 ;; This function is called by:
  7048 ;;		_I2C_Master_Initialize
  7049 ;; This function uses a non-reentrant model
  7050 ;;
  7051                           
  7052                           
  7053                           ;psect for function ___lldiv
  7054  0804                     ___lldiv:	
  7055  0804                     l2160:	
  7056                           ;incstack = 0
  7057                           ; Regs used in ___lldiv: [wreg+status,2+status,0]
  7058                           
  7059  0804  3000               	movlw	0
  7060  0805  00FC               	movwf	___lldiv@quotient+3
  7061  0806  3000               	movlw	0
  7062  0807  00FB               	movwf	___lldiv@quotient+2
  7063  0808  3000               	movlw	0
  7064  0809  00FA               	movwf	___lldiv@quotient+1
  7065  080A  3000               	movlw	0
  7066  080B  00F9               	movwf	___lldiv@quotient
  7067  080C  0873               	movf	___lldiv@divisor+3,w
  7068  080D  0472               	iorwf	___lldiv@divisor+2,w
  7069  080E  0471               	iorwf	___lldiv@divisor+1,w
  7070  080F  0470               	iorwf	___lldiv@divisor,w
  7071  0810  1903               	skipnz
  7072  0811  2813               	goto	u2361
  7073  0812  2814               	goto	u2360
  7074  0813                     u2361:	
  7075  0813  2861               	goto	l2180
  7076  0814                     u2360:	
  7077  0814                     l2162:	
  7078  0814  01FD               	clrf	___lldiv@counter
  7079  0815  0AFD               	incf	___lldiv@counter,f
  7080  0816  2824               	goto	l2166
  7081  0817                     l2164:	
  7082  0817  3001               	movlw	1
  7083  0818  00F8               	movwf	??___lldiv
  7084  0819                     u2375:	
  7085  0819  1003               	clrc
  7086  081A  0DF0               	rlf	___lldiv@divisor,f
  7087  081B  0DF1               	rlf	___lldiv@divisor+1,f
  7088  081C  0DF2               	rlf	___lldiv@divisor+2,f
  7089  081D  0DF3               	rlf	___lldiv@divisor+3,f
  7090  081E  0BF8               	decfsz	??___lldiv,f
  7091  081F  2819               	goto	u2375
  7092  0820  3001               	movlw	1
  7093  0821  00F8               	movwf	??___lldiv
  7094  0822  0878               	movf	??___lldiv,w
  7095  0823  07FD               	addwf	___lldiv@counter,f
  7096  0824                     l2166:	
  7097  0824  1FF3               	btfss	___lldiv@divisor+3,7
  7098  0825  2827               	goto	u2381
  7099  0826  2828               	goto	u2380
  7100  0827                     u2381:	
  7101  0827  2817               	goto	l2164
  7102  0828                     u2380:	
  7103  0828                     l2168:	
  7104  0828  3001               	movlw	1
  7105  0829  00F8               	movwf	??___lldiv
  7106  082A                     u2395:	
  7107  082A  1003               	clrc
  7108  082B  0DF9               	rlf	___lldiv@quotient,f
  7109  082C  0DFA               	rlf	___lldiv@quotient+1,f
  7110  082D  0DFB               	rlf	___lldiv@quotient+2,f
  7111  082E  0DFC               	rlf	___lldiv@quotient+3,f
  7112  082F  0BF8               	decfsz	??___lldiv,f
  7113  0830  282A               	goto	u2395
  7114  0831                     l2170:	
  7115  0831  0873               	movf	___lldiv@divisor+3,w
  7116  0832  0277               	subwf	___lldiv@dividend+3,w
  7117  0833  1D03               	skipz
  7118  0834  283F               	goto	u2405
  7119  0835  0872               	movf	___lldiv@divisor+2,w
  7120  0836  0276               	subwf	___lldiv@dividend+2,w
  7121  0837  1D03               	skipz
  7122  0838  283F               	goto	u2405
  7123  0839  0871               	movf	___lldiv@divisor+1,w
  7124  083A  0275               	subwf	___lldiv@dividend+1,w
  7125  083B  1D03               	skipz
  7126  083C  283F               	goto	u2405
  7127  083D  0870               	movf	___lldiv@divisor,w
  7128  083E  0274               	subwf	___lldiv@dividend,w
  7129  083F                     u2405:	
  7130  083F  1C03               	skipc
  7131  0840  2842               	goto	u2401
  7132  0841  2843               	goto	u2400
  7133  0842                     u2401:	
  7134  0842  2852               	goto	l2176
  7135  0843                     u2400:	
  7136  0843                     l2172:	
  7137  0843  0870               	movf	___lldiv@divisor,w
  7138  0844  02F4               	subwf	___lldiv@dividend,f
  7139  0845  0871               	movf	___lldiv@divisor+1,w
  7140  0846  1C03               	skipc
  7141  0847  0F71               	incfsz	___lldiv@divisor+1,w
  7142  0848  02F5               	subwf	___lldiv@dividend+1,f
  7143  0849  0872               	movf	___lldiv@divisor+2,w
  7144  084A  1C03               	skipc
  7145  084B  0F72               	incfsz	___lldiv@divisor+2,w
  7146  084C  02F6               	subwf	___lldiv@dividend+2,f
  7147  084D  0873               	movf	___lldiv@divisor+3,w
  7148  084E  1C03               	skipc
  7149  084F  0F73               	incfsz	___lldiv@divisor+3,w
  7150  0850  02F7               	subwf	___lldiv@dividend+3,f
  7151  0851                     l2174:	
  7152  0851  1479               	bsf	___lldiv@quotient,0
  7153  0852                     l2176:	
  7154  0852  3001               	movlw	1
  7155  0853                     u2415:	
  7156  0853  1003               	clrc
  7157  0854  0CF3               	rrf	___lldiv@divisor+3,f
  7158  0855  0CF2               	rrf	___lldiv@divisor+2,f
  7159  0856  0CF1               	rrf	___lldiv@divisor+1,f
  7160  0857  0CF0               	rrf	___lldiv@divisor,f
  7161  0858  3EFF               	addlw	-1
  7162  0859  1D03               	skipz
  7163  085A  2853               	goto	u2415
  7164  085B                     l2178:	
  7165  085B  3001               	movlw	1
  7166  085C  02FD               	subwf	___lldiv@counter,f
  7167  085D  1D03               	btfss	3,2
  7168  085E  2860               	goto	u2421
  7169  085F  2861               	goto	u2420
  7170  0860                     u2421:	
  7171  0860  2828               	goto	l2168
  7172  0861                     u2420:	
  7173  0861                     l2180:	
  7174  0861  087C               	movf	___lldiv@quotient+3,w
  7175  0862  00F3               	movwf	?___lldiv+3
  7176  0863  087B               	movf	___lldiv@quotient+2,w
  7177  0864  00F2               	movwf	?___lldiv+2
  7178  0865  087A               	movf	___lldiv@quotient+1,w
  7179  0866  00F1               	movwf	?___lldiv+1
  7180  0867  0879               	movf	___lldiv@quotient,w
  7181  0868  00F0               	movwf	?___lldiv
  7182  0869                     l427:	
  7183  0869  0008               	return
  7184  086A                     __end_of___lldiv:	
  7185                           
  7186                           	psect	text20
  7187  16F5                     __ptext20:	
  7188 ;; *************** function _I2C_LCD_write_string *****************
  7189 ;; Defined at:
  7190 ;;		line 41 in file "I2C_LCD_v2.0.c"
  7191 ;; Parameters:    Size  Location     Type
  7192 ;;  LCD_Obj         2    2[BANK0 ] struct I2C_LCD
  7193 ;;  str             2    4[BANK0 ] PTR unsigned char 
  7194 ;;		 -> RH_str(20), T_str(20), STR_2(20), STR_1(17), 
  7195 ;; Auto vars:     Size  Location     Type
  7196 ;;  i               1    7[BANK0 ] unsigned char 
  7197 ;; Return value:  Size  Location     Type
  7198 ;;                  1    wreg      void 
  7199 ;; Registers used:
  7200 ;;		wreg, fsr0l, fsr0h, status,2, status,0, btemp+1, pclath, cstack
  7201 ;; Tracked objects:
  7202 ;;		On entry : 0/0
  7203 ;;		On exit  : 0/0
  7204 ;;		Unchanged: 0/0
  7205 ;; Data sizes:     COMMON   BANK0   BANK1   BANK3   BANK2
  7206 ;;      Params:         0       4       0       0       0
  7207 ;;      Locals:         0       1       0       0       0
  7208 ;;      Temps:          0       1       0       0       0
  7209 ;;      Totals:         0       6       0       0       0
  7210 ;;Total ram usage:        6 bytes
  7211 ;; Hardware stack levels used:    1
  7212 ;; Hardware stack levels required when called:    5
  7213 ;; This function calls:
  7214 ;;		_I2C_LCD_write_char
  7215 ;;		_LCD_send_commad
  7216 ;; This function is called by:
  7217 ;;		_main
  7218 ;; This function uses a non-reentrant model
  7219 ;;
  7220                           
  7221                           
  7222                           ;psect for function _I2C_LCD_write_string
  7223  16F5                     _I2C_LCD_write_string:	
  7224  16F5                     l2842:	
  7225                           ;incstack = 0
  7226                           ; Regs used in _I2C_LCD_write_string: [wreg-fsr0h+status,2+status,0+btemp+1+pclath+cstac
      +                          k]
  7227                           
  7228                           
  7229                           ;I2C_LCD_v2.0.c: 42:         uint8_t i;;I2C_LCD_v2.0.c: 43:         for(i=0;str[i]!='\0'
      +                          ;i++){
  7230  16F5  1283               	bcf	3,5	;RP0=0, select bank0
  7231  16F6  1303               	bcf	3,6	;RP1=0, select bank0
  7232  16F7  01A7               	clrf	I2C_LCD_write_string@i
  7233  16F8  2F37               	goto	l2852
  7234  16F9                     l2844:	
  7235                           
  7236                           ;I2C_LCD_v2.0.c: 44:             if(str[i]=='\n') p_LCD_send_commad(LCD_Obj, (0xC0 - 1))
      +                          ;
  7237  16F9  0827               	movf	I2C_LCD_write_string@i,w
  7238  16FA  0724               	addwf	I2C_LCD_write_string@str,w
  7239  16FB  0084               	movwf	4
  7240  16FC  0825               	movf	I2C_LCD_write_string@str+1,w
  7241  16FD  1803               	skipnc
  7242  16FE  0A25               	incf	I2C_LCD_write_string@str+1,w
  7243  16FF  00FF               	movwf	btemp+1
  7244  1700  160A  118A  2000  160A  118A  	fcall	stringtab
  7245  1705  3A0A               	xorlw	10
  7246  1706  1D03               	skipz
  7247  1707  2F09               	goto	u3951
  7248  1708  2F0A               	goto	u3950
  7249  1709                     u3951:	
  7250  1709  2F17               	goto	l2848
  7251  170A                     u3950:	
  7252  170A                     l2846:	
  7253  170A  0823               	movf	I2C_LCD_write_string@LCD_Obj+1,w
  7254  170B  00FC               	movwf	LCD_send_commad@LCD_Obj+1
  7255  170C  0822               	movf	I2C_LCD_write_string@LCD_Obj,w
  7256  170D  00FB               	movwf	LCD_send_commad@LCD_Obj
  7257  170E  30BF               	movlw	191
  7258  170F  00A6               	movwf	??_I2C_LCD_write_string
  7259  1710  0826               	movf	??_I2C_LCD_write_string,w
  7260  1711  00FD               	movwf	LCD_send_commad@cmd
  7261  1712  160A  118A  2521  160A  118A  	fcall	_LCD_send_commad
  7262  1717                     l2848:	
  7263                           
  7264                           ;I2C_LCD_v2.0.c: 45:             I2C_LCD_write_char(LCD_Obj, str[i]);
  7265  1717  1283               	bcf	3,5	;RP0=0, select bank0
  7266  1718  1303               	bcf	3,6	;RP1=0, select bank0
  7267  1719  0823               	movf	I2C_LCD_write_string@LCD_Obj+1,w
  7268  171A  00FC               	movwf	I2C_LCD_write_char@LCD_Obj+1
  7269  171B  0822               	movf	I2C_LCD_write_string@LCD_Obj,w
  7270  171C  00FB               	movwf	I2C_LCD_write_char@LCD_Obj
  7271  171D  0827               	movf	I2C_LCD_write_string@i,w
  7272  171E  0724               	addwf	I2C_LCD_write_string@str,w
  7273  171F  0084               	movwf	4
  7274  1720  0825               	movf	I2C_LCD_write_string@str+1,w
  7275  1721  1803               	skipnc
  7276  1722  0A25               	incf	I2C_LCD_write_string@str+1,w
  7277  1723  00FF               	movwf	btemp+1
  7278  1724  160A  118A  2000  160A  118A  	fcall	stringtab
  7279  1729  00A6               	movwf	??_I2C_LCD_write_string
  7280  172A  0826               	movf	??_I2C_LCD_write_string,w
  7281  172B  00FD               	movwf	I2C_LCD_write_char@chr
  7282  172C  160A  118A  2538  160A  118A  	fcall	_I2C_LCD_write_char
  7283  1731                     l2850:	
  7284                           
  7285                           ;I2C_LCD_v2.0.c: 46:         }
  7286  1731  3001               	movlw	1
  7287  1732  1283               	bcf	3,5	;RP0=0, select bank0
  7288  1733  1303               	bcf	3,6	;RP1=0, select bank0
  7289  1734  00A6               	movwf	??_I2C_LCD_write_string
  7290  1735  0826               	movf	??_I2C_LCD_write_string,w
  7291  1736  07A7               	addwf	I2C_LCD_write_string@i,f
  7292  1737                     l2852:	
  7293  1737  0827               	movf	I2C_LCD_write_string@i,w
  7294  1738  0724               	addwf	I2C_LCD_write_string@str,w
  7295  1739  0084               	movwf	4
  7296  173A  0825               	movf	I2C_LCD_write_string@str+1,w
  7297  173B  1803               	skipnc
  7298  173C  0A25               	incf	I2C_LCD_write_string@str+1,w
  7299  173D  00FF               	movwf	btemp+1
  7300  173E  160A  118A  2000  160A  118A  	fcall	stringtab
  7301  1743  3A00               	xorlw	0
  7302  1744  1D03               	skipz
  7303  1745  2F47               	goto	u3961
  7304  1746  2F48               	goto	u3960
  7305  1747                     u3961:	
  7306  1747  2EF9               	goto	l2844
  7307  1748                     u3960:	
  7308  1748                     l210:	
  7309  1748  0008               	return
  7310  1749                     __end_of_I2C_LCD_write_string:	
  7311                           
  7312                           	psect	text21
  7313  1538                     __ptext21:	
  7314 ;; *************** function _I2C_LCD_write_char *****************
  7315 ;; Defined at:
  7316 ;;		line 36 in file "I2C_LCD_v2.0.c"
  7317 ;; Parameters:    Size  Location     Type
  7318 ;;  LCD_Obj         2   11[COMMON] struct I2C_LCD
  7319 ;;  chr             1   13[COMMON] unsigned char 
  7320 ;; Auto vars:     Size  Location     Type
  7321 ;;		None
  7322 ;; Return value:  Size  Location     Type
  7323 ;;                  1    wreg      void 
  7324 ;; Registers used:
  7325 ;;		wreg, status,2, status,0, pclath, cstack
  7326 ;; Tracked objects:
  7327 ;;		On entry : 0/0
  7328 ;;		On exit  : 0/0
  7329 ;;		Unchanged: 0/0
  7330 ;; Data sizes:     COMMON   BANK0   BANK1   BANK3   BANK2
  7331 ;;      Params:         3       0       0       0       0
  7332 ;;      Locals:         0       0       0       0       0
  7333 ;;      Temps:          0       2       0       0       0
  7334 ;;      Totals:         3       2       0       0       0
  7335 ;;Total ram usage:        5 bytes
  7336 ;; Hardware stack levels used:    1
  7337 ;; Hardware stack levels required when called:    4
  7338 ;; This function calls:
  7339 ;;		_LCD_data_sender
  7340 ;; This function is called by:
  7341 ;;		_I2C_LCD_write_string
  7342 ;; This function uses a non-reentrant model
  7343 ;;
  7344                           
  7345                           
  7346                           ;psect for function _I2C_LCD_write_char
  7347  1538                     _I2C_LCD_write_char:	
  7348  1538                     l2122:	
  7349                           ;incstack = 0
  7350                           ; Regs used in _I2C_LCD_write_char: [wreg+status,2+status,0+pclath+cstack]
  7351                           
  7352                           
  7353                           ;I2C_LCD_v2.0.c: 37:         Lcd_RS_State = 0x01;
  7354  1538  1683               	bsf	3,5	;RP0=1, select bank1
  7355  1539  1303               	bcf	3,6	;RP1=0, select bank1
  7356  153A  01A2               	clrf	_Lcd_RS_State^(0+128)
  7357  153B  0AA2               	incf	_Lcd_RS_State^(0+128),f
  7358  153C                     l2124:	
  7359                           
  7360                           ;I2C_LCD_v2.0.c: 38:         p_LCD_data_sender(LCD_Obj, chr, p_I2C_IO_Expander_Writer);
  7361  153C  087C               	movf	I2C_LCD_write_char@LCD_Obj+1,w
  7362  153D  00F5               	movwf	LCD_data_sender@LCD_Obj+1
  7363  153E  087B               	movf	I2C_LCD_write_char@LCD_Obj,w
  7364  153F  00F4               	movwf	LCD_data_sender@LCD_Obj
  7365  1540  087D               	movf	I2C_LCD_write_char@chr,w
  7366  1541  1283               	bcf	3,5	;RP0=0, select bank0
  7367  1542  1303               	bcf	3,6	;RP1=0, select bank0
  7368  1543  00A0               	movwf	??_I2C_LCD_write_char
  7369  1544  0820               	movf	??_I2C_LCD_write_char,w
  7370  1545  00F6               	movwf	LCD_data_sender@data
  7371  1546  3001               	movlw	(low (fp__I2C_IO_Expander_Writer-fpbase))& (0+255)
  7372  1547  00A1               	movwf	??_I2C_LCD_write_char+1
  7373  1548  0821               	movf	??_I2C_LCD_write_char+1,w
  7374  1549  00F7               	movwf	LCD_data_sender@callback_function
  7375  154A  160A  118A  279F  160A  118A  	fcall	_LCD_data_sender
  7376  154F                     l203:	
  7377  154F  0008               	return
  7378  1550                     __end_of_I2C_LCD_write_char:	
  7379                           
  7380                           	psect	text22
  7381  1749                     __ptext22:	
  7382 ;; *************** function _I2C_LCD_set_cursor *****************
  7383 ;; Defined at:
  7384 ;;		line 86 in file "I2C_LCD_v2.0.c"
  7385 ;; Parameters:    Size  Location     Type
  7386 ;;  LCD_Obj         2    2[BANK0 ] struct I2C_LCD
  7387 ;;  row             1    4[BANK0 ] unsigned char 
  7388 ;;  colomn          1    5[BANK0 ] unsigned char 
  7389 ;; Auto vars:     Size  Location     Type
  7390 ;;		None
  7391 ;; Return value:  Size  Location     Type
  7392 ;;                  1    wreg      void 
  7393 ;; Registers used:
  7394 ;;		wreg, fsr0l, fsr0h, status,2, status,0, pclath, cstack
  7395 ;; Tracked objects:
  7396 ;;		On entry : 0/0
  7397 ;;		On exit  : 0/0
  7398 ;;		Unchanged: 0/0
  7399 ;; Data sizes:     COMMON   BANK0   BANK1   BANK3   BANK2
  7400 ;;      Params:         0       4       0       0       0
  7401 ;;      Locals:         0       0       0       0       0
  7402 ;;      Temps:          0       2       0       0       0
  7403 ;;      Totals:         0       6       0       0       0
  7404 ;;Total ram usage:        6 bytes
  7405 ;; Hardware stack levels used:    1
  7406 ;; Hardware stack levels required when called:    5
  7407 ;; This function calls:
  7408 ;;		_LCD_send_commad
  7409 ;; This function is called by:
  7410 ;;		_main
  7411 ;; This function uses a non-reentrant model
  7412 ;;
  7413                           
  7414                           
  7415                           ;psect for function _I2C_LCD_set_cursor
  7416  1749                     _I2C_LCD_set_cursor:	
  7417  1749                     l2824:	
  7418                           ;incstack = 0
  7419                           ; Regs used in _I2C_LCD_set_cursor: [wreg-fsr0h+status,2+status,0+pclath+cstack]
  7420                           
  7421                           
  7422                           ;I2C_LCD_v2.0.c: 87:         switch(row){
  7423  1749  2F86               	goto	l2836
  7424  174A                     l2826:	
  7425                           
  7426                           ;I2C_LCD_v2.0.c: 89:                 p_LCD_send_commad(LCD_Obj, 0x80 + colomn-1); break;
  7427  174A  0823               	movf	I2C_LCD_set_cursor@LCD_Obj+1,w
  7428  174B  00FC               	movwf	LCD_send_commad@LCD_Obj+1
  7429  174C  0822               	movf	I2C_LCD_set_cursor@LCD_Obj,w
  7430  174D  00FB               	movwf	LCD_send_commad@LCD_Obj
  7431  174E  0825               	movf	I2C_LCD_set_cursor@colomn,w
  7432  174F  3E7F               	addlw	127
  7433  1750  00A6               	movwf	??_I2C_LCD_set_cursor
  7434  1751  0826               	movf	??_I2C_LCD_set_cursor,w
  7435  1752  00FD               	movwf	LCD_send_commad@cmd
  7436  1753  160A  118A  2521  160A  118A  	fcall	_LCD_send_commad
  7437  1758  2F9E               	goto	l237
  7438  1759                     l2828:	
  7439                           
  7440                           ;I2C_LCD_v2.0.c: 91:                 p_LCD_send_commad(LCD_Obj, 0xC0 + colomn-1); break;
  7441  1759  0823               	movf	I2C_LCD_set_cursor@LCD_Obj+1,w
  7442  175A  00FC               	movwf	LCD_send_commad@LCD_Obj+1
  7443  175B  0822               	movf	I2C_LCD_set_cursor@LCD_Obj,w
  7444  175C  00FB               	movwf	LCD_send_commad@LCD_Obj
  7445  175D  0825               	movf	I2C_LCD_set_cursor@colomn,w
  7446  175E  3EBF               	addlw	191
  7447  175F  00A6               	movwf	??_I2C_LCD_set_cursor
  7448  1760  0826               	movf	??_I2C_LCD_set_cursor,w
  7449  1761  00FD               	movwf	LCD_send_commad@cmd
  7450  1762  160A  118A  2521  160A  118A  	fcall	_LCD_send_commad
  7451  1767  2F9E               	goto	l237
  7452  1768                     l2830:	
  7453                           
  7454                           ;I2C_LCD_v2.0.c: 93:                 p_LCD_send_commad(LCD_Obj, 0x94 + colomn-1); break;
  7455  1768  0823               	movf	I2C_LCD_set_cursor@LCD_Obj+1,w
  7456  1769  00FC               	movwf	LCD_send_commad@LCD_Obj+1
  7457  176A  0822               	movf	I2C_LCD_set_cursor@LCD_Obj,w
  7458  176B  00FB               	movwf	LCD_send_commad@LCD_Obj
  7459  176C  0825               	movf	I2C_LCD_set_cursor@colomn,w
  7460  176D  3E93               	addlw	147
  7461  176E  00A6               	movwf	??_I2C_LCD_set_cursor
  7462  176F  0826               	movf	??_I2C_LCD_set_cursor,w
  7463  1770  00FD               	movwf	LCD_send_commad@cmd
  7464  1771  160A  118A  2521  160A  118A  	fcall	_LCD_send_commad
  7465  1776  2F9E               	goto	l237
  7466  1777                     l2832:	
  7467                           
  7468                           ;I2C_LCD_v2.0.c: 95:                 p_LCD_send_commad(LCD_Obj, 0xD4 + colomn-1); break;
  7469  1777  0823               	movf	I2C_LCD_set_cursor@LCD_Obj+1,w
  7470  1778  00FC               	movwf	LCD_send_commad@LCD_Obj+1
  7471  1779  0822               	movf	I2C_LCD_set_cursor@LCD_Obj,w
  7472  177A  00FB               	movwf	LCD_send_commad@LCD_Obj
  7473  177B  0825               	movf	I2C_LCD_set_cursor@colomn,w
  7474  177C  3ED3               	addlw	211
  7475  177D  00A6               	movwf	??_I2C_LCD_set_cursor
  7476  177E  0826               	movf	??_I2C_LCD_set_cursor,w
  7477  177F  00FD               	movwf	LCD_send_commad@cmd
  7478  1780  160A  118A  2521  160A  118A  	fcall	_LCD_send_commad
  7479  1785  2F9E               	goto	l237
  7480  1786                     l2836:	
  7481  1786  1283               	bcf	3,5	;RP0=0, select bank0
  7482  1787  1303               	bcf	3,6	;RP1=0, select bank0
  7483  1788  0824               	movf	I2C_LCD_set_cursor@row,w
  7484  1789  00A6               	movwf	??_I2C_LCD_set_cursor
  7485  178A  01A7               	clrf	??_I2C_LCD_set_cursor+1
  7486                           
  7487                           ; Switch on 2 bytes has been partitioned into a top level switch of size 1, and 1 sub-sw
      +                          itches
  7488                           ; Switch size 1, requested type "simple"
  7489                           ; Number of cases is 1, Range of values is 0 to 0
  7490                           ; switch strategies available:
  7491                           ; Name         Instructions Cycles
  7492                           ; simple_byte            4     3 (average)
  7493                           ; direct_byte           11     8 (fixed)
  7494                           ; jumptable            260     6 (fixed)
  7495                           ;	Chosen strategy is simple_byte
  7496  178B  0827               	movf	??_I2C_LCD_set_cursor+1,w
  7497  178C  3A00               	xorlw	0	; case 0
  7498  178D  1903               	skipnz
  7499  178E  2F90               	goto	l3116
  7500  178F  2F9E               	goto	l237
  7501  1790                     l3116:	
  7502                           
  7503                           ; Switch size 1, requested type "simple"
  7504                           ; Number of cases is 4, Range of values is 1 to 4
  7505                           ; switch strategies available:
  7506                           ; Name         Instructions Cycles
  7507                           ; simple_byte           13     7 (average)
  7508                           ; direct_byte           23    11 (fixed)
  7509                           ; jumptable            263     9 (fixed)
  7510                           ;	Chosen strategy is simple_byte
  7511  1790  0826               	movf	??_I2C_LCD_set_cursor,w
  7512  1791  3A01               	xorlw	1	; case 1
  7513  1792  1903               	skipnz
  7514  1793  2F4A               	goto	l2826
  7515  1794  3A03               	xorlw	3	; case 2
  7516  1795  1903               	skipnz
  7517  1796  2F59               	goto	l2828
  7518  1797  3A01               	xorlw	1	; case 3
  7519  1798  1903               	skipnz
  7520  1799  2F68               	goto	l2830
  7521  179A  3A07               	xorlw	7	; case 4
  7522  179B  1903               	skipnz
  7523  179C  2F77               	goto	l2832
  7524  179D  2F9E               	goto	l237
  7525  179E                     l237:	
  7526  179E  0008               	return
  7527  179F                     __end_of_I2C_LCD_set_cursor:	
  7528                           
  7529                           	psect	text23
  7530  086A                     __ptext23:	
  7531 ;; *************** function _I2C_LCD_init *****************
  7532 ;; Defined at:
  7533 ;;		line 74 in file "I2C_LCD_v2.0.c"
  7534 ;; Parameters:    Size  Location     Type
  7535 ;;  LCD_Obj_Add     1    wreg     PTR struct I2C_LCD
  7536 ;;		 -> LCD1(2), 
  7537 ;;  I2C_LCD_Addr    1    9[BANK0 ] unsigned char 
  7538 ;;  N               1   10[BANK0 ] unsigned char 
  7539 ;;  F               1   11[BANK0 ] unsigned char 
  7540 ;; Auto vars:     Size  Location     Type
  7541 ;;  LCD_Obj_Add     1   14[BANK0 ] PTR struct I2C_LCD
  7542 ;;		 -> LCD1(2), 
  7543 ;; Return value:  Size  Location     Type
  7544 ;;                  1    wreg      void 
  7545 ;; Registers used:
  7546 ;;		wreg, fsr0l, fsr0h, status,2, status,0, pclath, cstack
  7547 ;; Tracked objects:
  7548 ;;		On entry : 0/0
  7549 ;;		On exit  : 0/0
  7550 ;;		Unchanged: 0/0
  7551 ;; Data sizes:     COMMON   BANK0   BANK1   BANK3   BANK2
  7552 ;;      Params:         0       3       0       0       0
  7553 ;;      Locals:         0       1       0       0       0
  7554 ;;      Temps:          0       2       0       0       0
  7555 ;;      Totals:         0       6       0       0       0
  7556 ;;Total ram usage:        6 bytes
  7557 ;; Hardware stack levels used:    1
  7558 ;; Hardware stack levels required when called:    6
  7559 ;; This function calls:
  7560 ;;		_I2C_LCD_display_on_off_control
  7561 ;;		_I2C_LCD_entry_mode
  7562 ;;		_LCD_send_commad
  7563 ;; This function is called by:
  7564 ;;		_main
  7565 ;; This function uses a non-reentrant model
  7566 ;;
  7567                           
  7568                           
  7569                           ;psect for function _I2C_LCD_init
  7570  086A                     _I2C_LCD_init:	
  7571                           
  7572                           ;incstack = 0
  7573                           ; Regs used in _I2C_LCD_init: [wreg-fsr0h+status,2+status,0+pclath+cstack]
  7574                           ;I2C_LCD_init@LCD_Obj_Add stored from wreg
  7575  086A  1283               	bcf	3,5	;RP0=0, select bank0
  7576  086B  1303               	bcf	3,6	;RP1=0, select bank0
  7577  086C  00AE               	movwf	I2C_LCD_init@LCD_Obj_Add
  7578  086D                     l2806:	
  7579                           
  7580                           ;I2C_LCD_v2.0.c: 75:         LCD_Obj_Add->Address = I2C_LCD_Address;
  7581  086D  0829               	movf	I2C_LCD_init@I2C_LCD_Address,w
  7582  086E  00AC               	movwf	??_I2C_LCD_init
  7583  086F  082E               	movf	I2C_LCD_init@LCD_Obj_Add,w
  7584  0870  0084               	movwf	4
  7585  0871  082C               	movf	??_I2C_LCD_init,w
  7586  0872  1383               	bcf	3,7	;select IRP bank0
  7587  0873  0080               	movwf	0
  7588                           
  7589                           ;I2C_LCD_v2.0.c: 76:         LCD_Obj_Add->BackLight_State = 0x08;
  7590  0874  3008               	movlw	8
  7591  0875  00AC               	movwf	??_I2C_LCD_init
  7592  0876  0A2E               	incf	I2C_LCD_init@LCD_Obj_Add,w
  7593  0877  0084               	movwf	4
  7594  0878  082C               	movf	??_I2C_LCD_init,w
  7595  0879  0080               	movwf	0
  7596  087A                     l2808:	
  7597                           
  7598                           ;I2C_LCD_v2.0.c: 78:         p_LCD_send_commad(*LCD_Obj_Add, 0x32);
  7599  087A  082E               	movf	I2C_LCD_init@LCD_Obj_Add,w
  7600  087B  0084               	movwf	4
  7601  087C  0800               	movf	0,w
  7602  087D  00FB               	movwf	LCD_send_commad@LCD_Obj
  7603  087E  0A84               	incf	4,f
  7604  087F  0800               	movf	0,w
  7605  0880  00FC               	movwf	LCD_send_commad@LCD_Obj+1
  7606  0881  3032               	movlw	50
  7607  0882  00AC               	movwf	??_I2C_LCD_init
  7608  0883  082C               	movf	??_I2C_LCD_init,w
  7609  0884  00FD               	movwf	LCD_send_commad@cmd
  7610  0885  160A  118A  2521  120A  158A  	fcall	_LCD_send_commad
  7611  088A                     l2810:	
  7612                           
  7613                           ;I2C_LCD_v2.0.c: 79:         _delay((unsigned long)((1550)*(20000000UL/4000000.0)));
  7614  088A  300B               	movlw	11
  7615  088B  1283               	bcf	3,5	;RP0=0, select bank0
  7616  088C  1303               	bcf	3,6	;RP1=0, select bank0
  7617  088D  00AD               	movwf	??_I2C_LCD_init+1
  7618  088E  300E               	movlw	14
  7619  088F  00AC               	movwf	??_I2C_LCD_init
  7620  0890                     u4257:	
  7621  0890  0BAC               	decfsz	??_I2C_LCD_init,f
  7622  0891  2890               	goto	u4257
  7623  0892  0BAD               	decfsz	??_I2C_LCD_init+1,f
  7624  0893  2890               	goto	u4257
  7625  0894  0000               	nop
  7626  0895                     l2812:	
  7627                           
  7628                           ;I2C_LCD_v2.0.c: 80:         p_LCD_send_commad(*LCD_Obj_Add, 0x20 | 0x00 | N | F);
  7629  0895  1283               	bcf	3,5	;RP0=0, select bank0
  7630  0896  1303               	bcf	3,6	;RP1=0, select bank0
  7631  0897  082E               	movf	I2C_LCD_init@LCD_Obj_Add,w
  7632  0898  0084               	movwf	4
  7633  0899  1383               	bcf	3,7	;select IRP bank0
  7634  089A  0800               	movf	0,w
  7635  089B  00FB               	movwf	LCD_send_commad@LCD_Obj
  7636  089C  0A84               	incf	4,f
  7637  089D  0800               	movf	0,w
  7638  089E  00FC               	movwf	LCD_send_commad@LCD_Obj+1
  7639  089F  082A               	movf	I2C_LCD_init@N,w
  7640  08A0  042B               	iorwf	I2C_LCD_init@F,w
  7641  08A1  3820               	iorlw	32
  7642  08A2  00AC               	movwf	??_I2C_LCD_init
  7643  08A3  082C               	movf	??_I2C_LCD_init,w
  7644  08A4  00FD               	movwf	LCD_send_commad@cmd
  7645  08A5  160A  118A  2521  120A  158A  	fcall	_LCD_send_commad
  7646  08AA                     l2814:	
  7647                           
  7648                           ;I2C_LCD_v2.0.c: 81:         I2C_LCD_display_on_off_control(*LCD_Obj_Add, 0x04, 0x00, 0x
      +                          00);
  7649  08AA  1283               	bcf	3,5	;RP0=0, select bank0
  7650  08AB  1303               	bcf	3,6	;RP1=0, select bank0
  7651  08AC  082E               	movf	I2C_LCD_init@LCD_Obj_Add,w
  7652  08AD  0084               	movwf	4
  7653  08AE  1383               	bcf	3,7	;select IRP bank0
  7654  08AF  0800               	movf	0,w
  7655  08B0  00A2               	movwf	I2C_LCD_display_on_off_control@LCD_Obj
  7656  08B1  0A84               	incf	4,f
  7657  08B2  0800               	movf	0,w
  7658  08B3  00A3               	movwf	I2C_LCD_display_on_off_control@LCD_Obj+1
  7659  08B4  3004               	movlw	4
  7660  08B5  00AC               	movwf	??_I2C_LCD_init
  7661  08B6  082C               	movf	??_I2C_LCD_init,w
  7662  08B7  00A4               	movwf	I2C_LCD_display_on_off_control@D
  7663  08B8  01A5               	clrf	I2C_LCD_display_on_off_control@C
  7664  08B9  01A6               	clrf	I2C_LCD_display_on_off_control@B
  7665  08BA  160A  118A  25BE  120A  158A  	fcall	_I2C_LCD_display_on_off_control
  7666  08BF                     l2816:	
  7667                           
  7668                           ;I2C_LCD_v2.0.c: 82:         I2C_LCD_entry_mode(*LCD_Obj_Add, 0x02, 0x00);
  7669  08BF  1283               	bcf	3,5	;RP0=0, select bank0
  7670  08C0  1303               	bcf	3,6	;RP1=0, select bank0
  7671  08C1  082E               	movf	I2C_LCD_init@LCD_Obj_Add,w
  7672  08C2  0084               	movwf	4
  7673  08C3  1383               	bcf	3,7	;select IRP bank0
  7674  08C4  0800               	movf	0,w
  7675  08C5  00A2               	movwf	I2C_LCD_entry_mode@LCD_Obj
  7676  08C6  0A84               	incf	4,f
  7677  08C7  0800               	movf	0,w
  7678  08C8  00A3               	movwf	I2C_LCD_entry_mode@LCD_Obj+1
  7679  08C9  3002               	movlw	2
  7680  08CA  00AC               	movwf	??_I2C_LCD_init
  7681  08CB  082C               	movf	??_I2C_LCD_init,w
  7682  08CC  00A4               	movwf	I2C_LCD_entry_mode@I_or_D
  7683  08CD  01A5               	clrf	I2C_LCD_entry_mode@S
  7684  08CE  160A  118A  2584  120A  158A  	fcall	_I2C_LCD_entry_mode
  7685  08D3                     l2818:	
  7686                           
  7687                           ;I2C_LCD_v2.0.c: 83:         p_LCD_send_commad(*LCD_Obj_Add, 0x80);
  7688  08D3  1283               	bcf	3,5	;RP0=0, select bank0
  7689  08D4  1303               	bcf	3,6	;RP1=0, select bank0
  7690  08D5  082E               	movf	I2C_LCD_init@LCD_Obj_Add,w
  7691  08D6  0084               	movwf	4
  7692  08D7  1383               	bcf	3,7	;select IRP bank0
  7693  08D8  0800               	movf	0,w
  7694  08D9  00FB               	movwf	LCD_send_commad@LCD_Obj
  7695  08DA  0A84               	incf	4,f
  7696  08DB  0800               	movf	0,w
  7697  08DC  00FC               	movwf	LCD_send_commad@LCD_Obj+1
  7698  08DD  3080               	movlw	128
  7699  08DE  00AC               	movwf	??_I2C_LCD_init
  7700  08DF  082C               	movf	??_I2C_LCD_init,w
  7701  08E0  00FD               	movwf	LCD_send_commad@cmd
  7702  08E1  160A  118A  2521  120A  158A  	fcall	_LCD_send_commad
  7703  08E6                     l228:	
  7704  08E6  0008               	return
  7705  08E7                     __end_of_I2C_LCD_init:	
  7706                           
  7707                           	psect	text24
  7708  1584                     __ptext24:	
  7709 ;; *************** function _I2C_LCD_entry_mode *****************
  7710 ;; Defined at:
  7711 ;;		line 59 in file "I2C_LCD_v2.0.c"
  7712 ;; Parameters:    Size  Location     Type
  7713 ;;  LCD_Obj         2    2[BANK0 ] struct I2C_LCD
  7714 ;;  I_or_D          1    4[BANK0 ] unsigned char 
  7715 ;;  S               1    5[BANK0 ] unsigned char 
  7716 ;; Auto vars:     Size  Location     Type
  7717 ;;		None
  7718 ;; Return value:  Size  Location     Type
  7719 ;;                  1    wreg      void 
  7720 ;; Registers used:
  7721 ;;		wreg, status,2, status,0, pclath, cstack
  7722 ;; Tracked objects:
  7723 ;;		On entry : 0/0
  7724 ;;		On exit  : 0/0
  7725 ;;		Unchanged: 0/0
  7726 ;; Data sizes:     COMMON   BANK0   BANK1   BANK3   BANK2
  7727 ;;      Params:         0       4       0       0       0
  7728 ;;      Locals:         0       0       0       0       0
  7729 ;;      Temps:          0       2       0       0       0
  7730 ;;      Totals:         0       6       0       0       0
  7731 ;;Total ram usage:        6 bytes
  7732 ;; Hardware stack levels used:    1
  7733 ;; Hardware stack levels required when called:    5
  7734 ;; This function calls:
  7735 ;;		_LCD_send_commad
  7736 ;; This function is called by:
  7737 ;;		_I2C_LCD_init
  7738 ;; This function uses a non-reentrant model
  7739 ;;
  7740                           
  7741                           
  7742                           ;psect for function _I2C_LCD_entry_mode
  7743  1584                     _I2C_LCD_entry_mode:	
  7744  1584                     l2126:	
  7745                           ;incstack = 0
  7746                           ; Regs used in _I2C_LCD_entry_mode: [wreg+status,2+status,0+pclath+cstack]
  7747                           
  7748                           
  7749                           ;I2C_LCD_v2.0.c: 60:         p_LCD_send_commad(LCD_Obj, 0x04 | I_or_D | S);
  7750  1584  1283               	bcf	3,5	;RP0=0, select bank0
  7751  1585  1303               	bcf	3,6	;RP1=0, select bank0
  7752  1586  0823               	movf	I2C_LCD_entry_mode@LCD_Obj+1,w
  7753  1587  00FC               	movwf	LCD_send_commad@LCD_Obj+1
  7754  1588  0822               	movf	I2C_LCD_entry_mode@LCD_Obj,w
  7755  1589  00FB               	movwf	LCD_send_commad@LCD_Obj
  7756  158A  0824               	movf	I2C_LCD_entry_mode@I_or_D,w
  7757  158B  0425               	iorwf	I2C_LCD_entry_mode@S,w
  7758  158C  3804               	iorlw	4
  7759  158D  00A6               	movwf	??_I2C_LCD_entry_mode
  7760  158E  0826               	movf	??_I2C_LCD_entry_mode,w
  7761  158F  00FD               	movwf	LCD_send_commad@cmd
  7762  1590  160A  118A  2521  160A  118A  	fcall	_LCD_send_commad
  7763  1595                     l2128:	
  7764                           
  7765                           ;I2C_LCD_v2.0.c: 61:         _delay((unsigned long)((1550)*(20000000UL/4000000.0)));
  7766  1595  300B               	movlw	11
  7767  1596  1283               	bcf	3,5	;RP0=0, select bank0
  7768  1597  1303               	bcf	3,6	;RP1=0, select bank0
  7769  1598  00A7               	movwf	??_I2C_LCD_entry_mode+1
  7770  1599  300E               	movlw	14
  7771  159A  00A6               	movwf	??_I2C_LCD_entry_mode
  7772  159B                     u4267:	
  7773  159B  0BA6               	decfsz	??_I2C_LCD_entry_mode,f
  7774  159C  2D9B               	goto	u4267
  7775  159D  0BA7               	decfsz	??_I2C_LCD_entry_mode+1,f
  7776  159E  2D9B               	goto	u4267
  7777  159F  0000               	nop
  7778  15A0                     l219:	
  7779  15A0  0008               	return
  7780  15A1                     __end_of_I2C_LCD_entry_mode:	
  7781                           
  7782                           	psect	text25
  7783  15BE                     __ptext25:	
  7784 ;; *************** function _I2C_LCD_display_on_off_control *****************
  7785 ;; Defined at:
  7786 ;;		line 64 in file "I2C_LCD_v2.0.c"
  7787 ;; Parameters:    Size  Location     Type
  7788 ;;  LCD_Obj         2    2[BANK0 ] struct I2C_LCD
  7789 ;;  D               1    4[BANK0 ] unsigned char 
  7790 ;;  C               1    5[BANK0 ] unsigned char 
  7791 ;;  B               1    6[BANK0 ] unsigned char 
  7792 ;; Auto vars:     Size  Location     Type
  7793 ;;		None
  7794 ;; Return value:  Size  Location     Type
  7795 ;;                  1    wreg      void 
  7796 ;; Registers used:
  7797 ;;		wreg, status,2, status,0, pclath, cstack
  7798 ;; Tracked objects:
  7799 ;;		On entry : 0/0
  7800 ;;		On exit  : 0/0
  7801 ;;		Unchanged: 0/0
  7802 ;; Data sizes:     COMMON   BANK0   BANK1   BANK3   BANK2
  7803 ;;      Params:         0       5       0       0       0
  7804 ;;      Locals:         0       0       0       0       0
  7805 ;;      Temps:          0       2       0       0       0
  7806 ;;      Totals:         0       7       0       0       0
  7807 ;;Total ram usage:        7 bytes
  7808 ;; Hardware stack levels used:    1
  7809 ;; Hardware stack levels required when called:    5
  7810 ;; This function calls:
  7811 ;;		_LCD_send_commad
  7812 ;; This function is called by:
  7813 ;;		_I2C_LCD_init
  7814 ;; This function uses a non-reentrant model
  7815 ;;
  7816                           
  7817                           
  7818                           ;psect for function _I2C_LCD_display_on_off_control
  7819  15BE                     _I2C_LCD_display_on_off_control:	
  7820  15BE                     l2130:	
  7821                           ;incstack = 0
  7822                           ; Regs used in _I2C_LCD_display_on_off_control: [wreg+status,2+status,0+pclath+cstack]
  7823                           
  7824                           
  7825                           ;I2C_LCD_v2.0.c: 65:         p_LCD_send_commad(LCD_Obj, 0x08 | D | C | B);
  7826  15BE  1283               	bcf	3,5	;RP0=0, select bank0
  7827  15BF  1303               	bcf	3,6	;RP1=0, select bank0
  7828  15C0  0823               	movf	I2C_LCD_display_on_off_control@LCD_Obj+1,w
  7829  15C1  00FC               	movwf	LCD_send_commad@LCD_Obj+1
  7830  15C2  0822               	movf	I2C_LCD_display_on_off_control@LCD_Obj,w
  7831  15C3  00FB               	movwf	LCD_send_commad@LCD_Obj
  7832  15C4  0824               	movf	I2C_LCD_display_on_off_control@D,w
  7833  15C5  0425               	iorwf	I2C_LCD_display_on_off_control@C,w
  7834  15C6  0426               	iorwf	I2C_LCD_display_on_off_control@B,w
  7835  15C7  3808               	iorlw	8
  7836  15C8  00A7               	movwf	??_I2C_LCD_display_on_off_control
  7837  15C9  0827               	movf	??_I2C_LCD_display_on_off_control,w
  7838  15CA  00FD               	movwf	LCD_send_commad@cmd
  7839  15CB  160A  118A  2521  160A  118A  	fcall	_LCD_send_commad
  7840  15D0                     l2132:	
  7841                           
  7842                           ;I2C_LCD_v2.0.c: 66:         _delay((unsigned long)((1550)*(20000000UL/4000000.0)));
  7843  15D0  300B               	movlw	11
  7844  15D1  1283               	bcf	3,5	;RP0=0, select bank0
  7845  15D2  1303               	bcf	3,6	;RP1=0, select bank0
  7846  15D3  00A8               	movwf	??_I2C_LCD_display_on_off_control+1
  7847  15D4  300E               	movlw	14
  7848  15D5  00A7               	movwf	??_I2C_LCD_display_on_off_control
  7849  15D6                     u4277:	
  7850  15D6  0BA7               	decfsz	??_I2C_LCD_display_on_off_control,f
  7851  15D7  2DD6               	goto	u4277
  7852  15D8  0BA8               	decfsz	??_I2C_LCD_display_on_off_control+1,f
  7853  15D9  2DD6               	goto	u4277
  7854  15DA  0000               	nop
  7855  15DB                     l222:	
  7856  15DB  0008               	return
  7857  15DC                     __end_of_I2C_LCD_display_on_off_control:	
  7858                           
  7859                           	psect	text26
  7860  1550                     __ptext26:	
  7861 ;; *************** function _I2C_LCD_clear *****************
  7862 ;; Defined at:
  7863 ;;		line 49 in file "I2C_LCD_v2.0.c"
  7864 ;; Parameters:    Size  Location     Type
  7865 ;;  LCD_Obj         2    2[BANK0 ] struct I2C_LCD
  7866 ;; Auto vars:     Size  Location     Type
  7867 ;;		None
  7868 ;; Return value:  Size  Location     Type
  7869 ;;                  1    wreg      void 
  7870 ;; Registers used:
  7871 ;;		wreg, status,2, status,0, pclath, cstack
  7872 ;; Tracked objects:
  7873 ;;		On entry : 0/0
  7874 ;;		On exit  : 0/0
  7875 ;;		Unchanged: 0/0
  7876 ;; Data sizes:     COMMON   BANK0   BANK1   BANK3   BANK2
  7877 ;;      Params:         0       2       0       0       0
  7878 ;;      Locals:         0       0       0       0       0
  7879 ;;      Temps:          0       2       0       0       0
  7880 ;;      Totals:         0       4       0       0       0
  7881 ;;Total ram usage:        4 bytes
  7882 ;; Hardware stack levels used:    1
  7883 ;; Hardware stack levels required when called:    5
  7884 ;; This function calls:
  7885 ;;		_LCD_send_commad
  7886 ;; This function is called by:
  7887 ;;		_main
  7888 ;; This function uses a non-reentrant model
  7889 ;;
  7890                           
  7891                           
  7892                           ;psect for function _I2C_LCD_clear
  7893  1550                     _I2C_LCD_clear:	
  7894  1550                     l2820:	
  7895                           ;incstack = 0
  7896                           ; Regs used in _I2C_LCD_clear: [wreg+status,2+status,0+pclath+cstack]
  7897                           
  7898                           
  7899                           ;I2C_LCD_v2.0.c: 50:         p_LCD_send_commad(LCD_Obj, 0x01);
  7900  1550  1283               	bcf	3,5	;RP0=0, select bank0
  7901  1551  1303               	bcf	3,6	;RP1=0, select bank0
  7902  1552  0823               	movf	I2C_LCD_clear@LCD_Obj+1,w
  7903  1553  00FC               	movwf	LCD_send_commad@LCD_Obj+1
  7904  1554  0822               	movf	I2C_LCD_clear@LCD_Obj,w
  7905  1555  00FB               	movwf	LCD_send_commad@LCD_Obj
  7906  1556  01FD               	clrf	LCD_send_commad@cmd
  7907  1557  0AFD               	incf	LCD_send_commad@cmd,f
  7908  1558  160A  118A  2521  160A  118A  	fcall	_LCD_send_commad
  7909  155D                     l2822:	
  7910                           
  7911                           ;I2C_LCD_v2.0.c: 51:         _delay((unsigned long)((1550)*(20000000UL/4000000.0)));
  7912  155D  300B               	movlw	11
  7913  155E  1283               	bcf	3,5	;RP0=0, select bank0
  7914  155F  1303               	bcf	3,6	;RP1=0, select bank0
  7915  1560  00A5               	movwf	??_I2C_LCD_clear+1
  7916  1561  300E               	movlw	14
  7917  1562  00A4               	movwf	??_I2C_LCD_clear
  7918  1563                     u4287:	
  7919  1563  0BA4               	decfsz	??_I2C_LCD_clear,f
  7920  1564  2D63               	goto	u4287
  7921  1565  0BA5               	decfsz	??_I2C_LCD_clear+1,f
  7922  1566  2D63               	goto	u4287
  7923  1567  0000               	nop
  7924  1568                     l213:	
  7925  1568  0008               	return
  7926  1569                     __end_of_I2C_LCD_clear:	
  7927                           
  7928                           	psect	text27
  7929  1521                     __ptext27:	
  7930 ;; *************** function _LCD_send_commad *****************
  7931 ;; Defined at:
  7932 ;;		line 30 in file "I2C_LCD_v2.0.c"
  7933 ;; Parameters:    Size  Location     Type
  7934 ;;  LCD_Obj         2   11[COMMON] struct I2C_LCD
  7935 ;;  cmd             1   13[COMMON] unsigned char 
  7936 ;; Auto vars:     Size  Location     Type
  7937 ;;		None
  7938 ;; Return value:  Size  Location     Type
  7939 ;;                  1    wreg      void 
  7940 ;; Registers used:
  7941 ;;		wreg, status,2, status,0, pclath, cstack
  7942 ;; Tracked objects:
  7943 ;;		On entry : 0/0
  7944 ;;		On exit  : 0/0
  7945 ;;		Unchanged: 0/0
  7946 ;; Data sizes:     COMMON   BANK0   BANK1   BANK3   BANK2
  7947 ;;      Params:         3       0       0       0       0
  7948 ;;      Locals:         0       0       0       0       0
  7949 ;;      Temps:          0       2       0       0       0
  7950 ;;      Totals:         3       2       0       0       0
  7951 ;;Total ram usage:        5 bytes
  7952 ;; Hardware stack levels used:    1
  7953 ;; Hardware stack levels required when called:    4
  7954 ;; This function calls:
  7955 ;;		_LCD_data_sender
  7956 ;; This function is called by:
  7957 ;;		_I2C_LCD_write_string
  7958 ;;		_I2C_LCD_clear
  7959 ;;		_I2C_LCD_entry_mode
  7960 ;;		_I2C_LCD_display_on_off_control
  7961 ;;		_I2C_LCD_init
  7962 ;;		_I2C_LCD_set_cursor
  7963 ;;		_I2C_LCD_return_home
  7964 ;;		_I2C_LCD_cursor_or_display_shift
  7965 ;; This function uses a non-reentrant model
  7966 ;;
  7967                           
  7968                           
  7969                           ;psect for function _LCD_send_commad
  7970  1521                     _LCD_send_commad:	
  7971  1521                     l2078:	
  7972                           ;incstack = 0
  7973                           ; Regs used in _LCD_send_commad: [wreg+status,2+status,0+pclath+cstack]
  7974                           
  7975                           
  7976                           ;I2C_LCD_v2.0.c: 31:         Lcd_RS_State = 0x00;
  7977  1521  1683               	bsf	3,5	;RP0=1, select bank1
  7978  1522  1303               	bcf	3,6	;RP1=0, select bank1
  7979  1523  01A2               	clrf	_Lcd_RS_State^(0+128)
  7980  1524                     l2080:	
  7981                           
  7982                           ;I2C_LCD_v2.0.c: 32:         p_LCD_data_sender(LCD_Obj, cmd, p_I2C_IO_Expander_Writer);
  7983  1524  087C               	movf	LCD_send_commad@LCD_Obj+1,w
  7984  1525  00F5               	movwf	LCD_data_sender@LCD_Obj+1
  7985  1526  087B               	movf	LCD_send_commad@LCD_Obj,w
  7986  1527  00F4               	movwf	LCD_data_sender@LCD_Obj
  7987  1528  087D               	movf	LCD_send_commad@cmd,w
  7988  1529  1283               	bcf	3,5	;RP0=0, select bank0
  7989  152A  1303               	bcf	3,6	;RP1=0, select bank0
  7990  152B  00A0               	movwf	??_LCD_send_commad
  7991  152C  0820               	movf	??_LCD_send_commad,w
  7992  152D  00F6               	movwf	LCD_data_sender@data
  7993  152E  3001               	movlw	(low (fp__I2C_IO_Expander_Writer-fpbase))& (0+255)
  7994  152F  00A1               	movwf	??_LCD_send_commad+1
  7995  1530  0821               	movf	??_LCD_send_commad+1,w
  7996  1531  00F7               	movwf	LCD_data_sender@callback_function
  7997  1532  160A  118A  279F  160A  118A  	fcall	_LCD_data_sender
  7998  1537                     l200:	
  7999  1537  0008               	return
  8000  1538                     __end_of_LCD_send_commad:	
  8001                           
  8002                           	psect	text28
  8003  179F                     __ptext28:	
  8004 ;; *************** function _LCD_data_sender *****************
  8005 ;; Defined at:
  8006 ;;		line 23 in file "I2C_LCD_v2.0.c"
  8007 ;; Parameters:    Size  Location     Type
  8008 ;;  LCD_Obj         2    4[COMMON] struct I2C_LCD
  8009 ;;  data            1    6[COMMON] unsigned char 
  8010 ;;  callback_fun    1    7[COMMON] PTR FTN(unsigned char ,u
  8011 ;;		 -> I2C_IO_Expander_Writer(1), 
  8012 ;; Auto vars:     Size  Location     Type
  8013 ;;		None
  8014 ;; Return value:  Size  Location     Type
  8015 ;;                  1    wreg      void 
  8016 ;; Registers used:
  8017 ;;		wreg, status,2, status,0, pclath, cstack
  8018 ;; Tracked objects:
  8019 ;;		On entry : 0/0
  8020 ;;		On exit  : 0/0
  8021 ;;		Unchanged: 0/0
  8022 ;; Data sizes:     COMMON   BANK0   BANK1   BANK3   BANK2
  8023 ;;      Params:         4       0       0       0       0
  8024 ;;      Locals:         0       0       0       0       0
  8025 ;;      Temps:          3       0       0       0       0
  8026 ;;      Totals:         7       0       0       0       0
  8027 ;;Total ram usage:        7 bytes
  8028 ;; Hardware stack levels used:    1
  8029 ;; Hardware stack levels required when called:    3
  8030 ;; This function calls:
  8031 ;;		_I2C_IO_Expander_Writer
  8032 ;; This function is called by:
  8033 ;;		_LCD_send_commad
  8034 ;;		_I2C_LCD_write_char
  8035 ;; This function uses a non-reentrant model
  8036 ;;
  8037                           
  8038                           
  8039                           ;psect for function _LCD_data_sender
  8040  179F                     _LCD_data_sender:	
  8041  179F                     l2076:	
  8042                           ;incstack = 0
  8043                           ; Regs used in _LCD_data_sender: [wreg+status,2+status,0+pclath+cstack]
  8044                           
  8045                           
  8046                           ;I2C_LCD_v2.0.c: 24:         callback_function(LCD_Obj.Address, (data&0xF0) | Lcd_RS_Sta
      +                          te | Lcd_RW_State | 0x04 | LCD_Obj.BackLight_State);
  8047  179F  0874               	movf	LCD_data_sender@LCD_Obj,w
  8048  17A0  00F8               	movwf	??_LCD_data_sender
  8049  17A1  0878               	movf	??_LCD_data_sender,w
  8050  17A2  00F2               	movwf	I2C_IO_Expander_Writer@I2C_Address
  8051  17A3  0876               	movf	LCD_data_sender@data,w
  8052  17A4  39F0               	andlw	240
  8053  17A5  0475               	iorwf	LCD_data_sender@LCD_Obj+1,w
  8054  17A6  1683               	bsf	3,5	;RP0=1, select bank1
  8055  17A7  1303               	bcf	3,6	;RP1=0, select bank1
  8056  17A8  0422               	iorwf	_Lcd_RS_State^(0+128),w
  8057  17A9  3804               	iorlw	4
  8058  17AA  00F9               	movwf	??_LCD_data_sender+1
  8059  17AB  0879               	movf	??_LCD_data_sender+1,w
  8060  17AC  00F3               	movwf	I2C_IO_Expander_Writer@I2C_Data
  8061  17AD  0877               	movf	LCD_data_sender@callback_function,w
  8062  17AE  120A  118A  2003  160A  118A  	fcall	fptable
  8063                           
  8064                           ;I2C_LCD_v2.0.c: 25:         callback_function(LCD_Obj.Address, (data&0xF0) | Lcd_RS_Sta
      +                          te | Lcd_RW_State | 0x00 | LCD_Obj.BackLight_State);
  8065  17B3  0874               	movf	LCD_data_sender@LCD_Obj,w
  8066  17B4  00F8               	movwf	??_LCD_data_sender
  8067  17B5  0878               	movf	??_LCD_data_sender,w
  8068  17B6  00F2               	movwf	I2C_IO_Expander_Writer@I2C_Address
  8069  17B7  0876               	movf	LCD_data_sender@data,w
  8070  17B8  39F0               	andlw	240
  8071  17B9  0475               	iorwf	LCD_data_sender@LCD_Obj+1,w
  8072  17BA  1683               	bsf	3,5	;RP0=1, select bank1
  8073  17BB  1303               	bcf	3,6	;RP1=0, select bank1
  8074  17BC  0422               	iorwf	_Lcd_RS_State^(0+128),w
  8075  17BD  00F9               	movwf	??_LCD_data_sender+1
  8076  17BE  0879               	movf	??_LCD_data_sender+1,w
  8077  17BF  00F3               	movwf	I2C_IO_Expander_Writer@I2C_Data
  8078  17C0  0877               	movf	LCD_data_sender@callback_function,w
  8079  17C1  120A  118A  2003  160A  118A  	fcall	fptable
  8080                           
  8081                           ;I2C_LCD_v2.0.c: 26:         callback_function(LCD_Obj.Address, ((data<<4)&0xF0) | Lcd_R
      +                          S_State | Lcd_RW_State |0x04 | LCD_Obj.BackLight_State);
  8082  17C6  0874               	movf	LCD_data_sender@LCD_Obj,w
  8083  17C7  00F8               	movwf	??_LCD_data_sender
  8084  17C8  0878               	movf	??_LCD_data_sender,w
  8085  17C9  00F2               	movwf	I2C_IO_Expander_Writer@I2C_Address
  8086  17CA  0876               	movf	LCD_data_sender@data,w
  8087  17CB  00F9               	movwf	??_LCD_data_sender+1
  8088  17CC  3003               	movlw	3
  8089  17CD                     u2245:	
  8090  17CD  1003               	clrc
  8091  17CE  0DF9               	rlf	??_LCD_data_sender+1,f
  8092  17CF  3EFF               	addlw	-1
  8093  17D0  1D03               	skipz
  8094  17D1  2FCD               	goto	u2245
  8095  17D2  1003               	clrc
  8096  17D3  0D79               	rlf	??_LCD_data_sender+1,w
  8097  17D4  39F0               	andlw	240
  8098  17D5  0475               	iorwf	LCD_data_sender@LCD_Obj+1,w
  8099  17D6  1683               	bsf	3,5	;RP0=1, select bank1
  8100  17D7  1303               	bcf	3,6	;RP1=0, select bank1
  8101  17D8  0422               	iorwf	_Lcd_RS_State^(0+128),w
  8102  17D9  3804               	iorlw	4
  8103  17DA  00FA               	movwf	??_LCD_data_sender+2
  8104  17DB  087A               	movf	??_LCD_data_sender+2,w
  8105  17DC  00F3               	movwf	I2C_IO_Expander_Writer@I2C_Data
  8106  17DD  0877               	movf	LCD_data_sender@callback_function,w
  8107  17DE  120A  118A  2003  160A  118A  	fcall	fptable
  8108                           
  8109                           ;I2C_LCD_v2.0.c: 27:         callback_function(LCD_Obj.Address, ((data<<4)&0xF0) | Lcd_R
      +                          S_State | Lcd_RW_State |0x00 | LCD_Obj.BackLight_State);
  8110  17E3  0874               	movf	LCD_data_sender@LCD_Obj,w
  8111  17E4  00F8               	movwf	??_LCD_data_sender
  8112  17E5  0878               	movf	??_LCD_data_sender,w
  8113  17E6  00F2               	movwf	I2C_IO_Expander_Writer@I2C_Address
  8114  17E7  0876               	movf	LCD_data_sender@data,w
  8115  17E8  00F9               	movwf	??_LCD_data_sender+1
  8116  17E9  3003               	movlw	3
  8117  17EA                     u2255:	
  8118  17EA  1003               	clrc
  8119  17EB  0DF9               	rlf	??_LCD_data_sender+1,f
  8120  17EC  3EFF               	addlw	-1
  8121  17ED  1D03               	skipz
  8122  17EE  2FEA               	goto	u2255
  8123  17EF  1003               	clrc
  8124  17F0  0D79               	rlf	??_LCD_data_sender+1,w
  8125  17F1  39F0               	andlw	240
  8126  17F2  0475               	iorwf	LCD_data_sender@LCD_Obj+1,w
  8127  17F3  1683               	bsf	3,5	;RP0=1, select bank1
  8128  17F4  1303               	bcf	3,6	;RP1=0, select bank1
  8129  17F5  0422               	iorwf	_Lcd_RS_State^(0+128),w
  8130  17F6  00FA               	movwf	??_LCD_data_sender+2
  8131  17F7  087A               	movf	??_LCD_data_sender+2,w
  8132  17F8  00F3               	movwf	I2C_IO_Expander_Writer@I2C_Data
  8133  17F9  0877               	movf	LCD_data_sender@callback_function,w
  8134  17FA  120A  118A  2003  160A  118A  	fcall	fptable
  8135  17FF                     l197:	
  8136  17FF  0008               	return
  8137  1800                     __end_of_LCD_data_sender:	
  8138                           
  8139                           	psect	text29
  8140  150A                     __ptext29:	
  8141 ;; *************** function _I2C_IO_Expander_Writer *****************
  8142 ;; Defined at:
  8143 ;;		line 14 in file "PCF8574_IO_Expander_v1.0.c"
  8144 ;; Parameters:    Size  Location     Type
  8145 ;;  I2C_Address     1    2[COMMON] unsigned char 
  8146 ;;  I2C_Data        1    3[COMMON] unsigned char 
  8147 ;; Auto vars:     Size  Location     Type
  8148 ;;		None
  8149 ;; Return value:  Size  Location     Type
  8150 ;;                  1    wreg      void 
  8151 ;; Registers used:
  8152 ;;		wreg, status,2, status,0, pclath, cstack
  8153 ;; Tracked objects:
  8154 ;;		On entry : 0/0
  8155 ;;		On exit  : 0/0
  8156 ;;		Unchanged: 0/0
  8157 ;; Data sizes:     COMMON   BANK0   BANK1   BANK3   BANK2
  8158 ;;      Params:         2       0       0       0       0
  8159 ;;      Locals:         0       0       0       0       0
  8160 ;;      Temps:          0       0       0       0       0
  8161 ;;      Totals:         2       0       0       0       0
  8162 ;;Total ram usage:        2 bytes
  8163 ;; Hardware stack levels used:    1
  8164 ;; Hardware stack levels required when called:    2
  8165 ;; This function calls:
  8166 ;;		_I2C_Master_Start
  8167 ;;		_I2C_Master_Stop
  8168 ;;		_I2C_Master_Write
  8169 ;; This function is called by:
  8170 ;;		_LCD_send_commad
  8171 ;;		_I2C_LCD_write_char
  8172 ;;		_LCD_data_sender
  8173 ;; This function uses a non-reentrant model
  8174 ;;
  8175                           
  8176                           
  8177                           ;psect for function _I2C_IO_Expander_Writer
  8178  150A                     _I2C_IO_Expander_Writer:	
  8179  150A                     l2070:	
  8180                           ;incstack = 0
  8181                           ; Regs used in _I2C_IO_Expander_Writer: [wreg+status,2+status,0+pclath+cstack]
  8182                           
  8183                           
  8184                           ;PCF8574_IO_Expander_v1.0.c: 15:         I2C_Master_Start();
  8185  150A  160A  118A  24A7  160A  118A  	fcall	_I2C_Master_Start
  8186  150F                     l2072:	
  8187                           
  8188                           ;PCF8574_IO_Expander_v1.0.c: 16:         I2C_Master_Write(I2C_Address);
  8189  150F  0872               	movf	I2C_IO_Expander_Writer@I2C_Address,w
  8190  1510  160A  118A  24F3  160A  118A  	fcall	_I2C_Master_Write
  8191  1515                     l2074:	
  8192                           
  8193                           ;PCF8574_IO_Expander_v1.0.c: 17:         I2C_Master_Write(I2C_Data);
  8194  1515  0873               	movf	I2C_IO_Expander_Writer@I2C_Data,w
  8195  1516  160A  118A  24F3  160A  118A  	fcall	_I2C_Master_Write
  8196                           
  8197                           ;PCF8574_IO_Expander_v1.0.c: 18:         I2C_Master_Stop();
  8198  151B  160A  118A  24B5  160A  118A  	fcall	_I2C_Master_Stop
  8199  1520                     l256:	
  8200  1520  0008               	return
  8201  1521                     __end_of_I2C_IO_Expander_Writer:	
  8202                           
  8203                           	psect	text30
  8204  14F3                     __ptext30:	
  8205 ;; *************** function _I2C_Master_Write *****************
  8206 ;; Defined at:
  8207 ;;		line 59 in file "I2C_v1.1.c"
  8208 ;; Parameters:    Size  Location     Type
  8209 ;;  Master_Tx_Da    1    wreg     unsigned char 
  8210 ;; Auto vars:     Size  Location     Type
  8211 ;;  Master_Tx_Da    1    1[COMMON] unsigned char 
  8212 ;; Return value:  Size  Location     Type
  8213 ;;                  1    wreg      unsigned char 
  8214 ;; Registers used:
  8215 ;;		wreg, status,2, status,0, pclath, cstack
  8216 ;; Tracked objects:
  8217 ;;		On entry : 0/0
  8218 ;;		On exit  : 0/0
  8219 ;;		Unchanged: 0/0
  8220 ;; Data sizes:     COMMON   BANK0   BANK1   BANK3   BANK2
  8221 ;;      Params:         0       0       0       0       0
  8222 ;;      Locals:         1       0       0       0       0
  8223 ;;      Temps:          1       0       0       0       0
  8224 ;;      Totals:         2       0       0       0       0
  8225 ;;Total ram usage:        2 bytes
  8226 ;; Hardware stack levels used:    1
  8227 ;; Hardware stack levels required when called:    1
  8228 ;; This function calls:
  8229 ;;		_I2C_Master_Check_Idle
  8230 ;; This function is called by:
  8231 ;;		_I2C_SHT25_Temperature_Read
  8232 ;;		_I2C_SHT25_Relative_Humidity_Read
  8233 ;;		_I2C_IO_Expander_Writer
  8234 ;;		_I2C_SHT25_Soft_Reset
  8235 ;; This function uses a non-reentrant model
  8236 ;;
  8237                           
  8238                           
  8239                           ;psect for function _I2C_Master_Write
  8240  14F3                     _I2C_Master_Write:	
  8241                           
  8242                           ;incstack = 0
  8243                           ; Regs used in _I2C_Master_Write: [wreg+status,2+status,0+pclath+cstack]
  8244                           ;I2C_Master_Write@Master_Tx_Data stored from wreg
  8245  14F3  00F1               	movwf	I2C_Master_Write@Master_Tx_Data
  8246  14F4                     l2060:	
  8247                           
  8248                           ;I2C_v1.1.c: 60:         I2C_Master_Check_Idle();
  8249  14F4  160A  118A  2569  160A  118A  	fcall	_I2C_Master_Check_Idle
  8250  14F9                     l2062:	
  8251                           
  8252                           ;I2C_v1.1.c: 61:         SSPBUF = Master_Tx_Data;
  8253  14F9  0871               	movf	I2C_Master_Write@Master_Tx_Data,w
  8254  14FA  1283               	bcf	3,5	;RP0=0, select bank0
  8255  14FB  1303               	bcf	3,6	;RP1=0, select bank0
  8256  14FC  0093               	movwf	19	;volatile
  8257  14FD                     l2064:	
  8258                           
  8259                           ;I2C_v1.1.c: 62:         I2C_Master_Check_Idle();
  8260  14FD  160A  118A  2569  160A  118A  	fcall	_I2C_Master_Check_Idle
  8261  1502                     l2066:	
  8262                           
  8263                           ;I2C_v1.1.c: 63:         return SSPCON2bits.ACKSTAT;
  8264  1502  1683               	bsf	3,5	;RP0=1, select bank1
  8265  1503  1303               	bcf	3,6	;RP1=0, select bank1
  8266  1504  0E11               	swapf	17,w	;volatile
  8267  1505  00F0               	movwf	??_I2C_Master_Write
  8268  1506  0CF0               	rrf	??_I2C_Master_Write,f
  8269  1507  0C70               	rrf	??_I2C_Master_Write,w
  8270  1508  3901               	andlw	1
  8271  1509                     l49:	
  8272  1509  0008               	return
  8273  150A                     __end_of_I2C_Master_Write:	
  8274                           
  8275                           	psect	text31
  8276  14B5                     __ptext31:	
  8277 ;; *************** function _I2C_Master_Stop *****************
  8278 ;; Defined at:
  8279 ;;		line 39 in file "I2C_v1.1.c"
  8280 ;; Parameters:    Size  Location     Type
  8281 ;;		None
  8282 ;; Auto vars:     Size  Location     Type
  8283 ;;		None
  8284 ;; Return value:  Size  Location     Type
  8285 ;;                  1    wreg      void 
  8286 ;; Registers used:
  8287 ;;		status,2, status,0, pclath, cstack
  8288 ;; Tracked objects:
  8289 ;;		On entry : 0/0
  8290 ;;		On exit  : 0/0
  8291 ;;		Unchanged: 0/0
  8292 ;; Data sizes:     COMMON   BANK0   BANK1   BANK3   BANK2
  8293 ;;      Params:         0       0       0       0       0
  8294 ;;      Locals:         0       0       0       0       0
  8295 ;;      Temps:          0       0       0       0       0
  8296 ;;      Totals:         0       0       0       0       0
  8297 ;;Total ram usage:        0 bytes
  8298 ;; Hardware stack levels used:    1
  8299 ;; Hardware stack levels required when called:    1
  8300 ;; This function calls:
  8301 ;;		_I2C_Master_Check_Idle
  8302 ;; This function is called by:
  8303 ;;		_I2C_SHT25_Temperature_Read
  8304 ;;		_I2C_SHT25_Relative_Humidity_Read
  8305 ;;		_I2C_IO_Expander_Writer
  8306 ;;		_I2C_SHT25_Soft_Reset
  8307 ;; This function uses a non-reentrant model
  8308 ;;
  8309                           
  8310                           
  8311                           ;psect for function _I2C_Master_Stop
  8312  14B5                     _I2C_Master_Stop:	
  8313  14B5                     l2056:	
  8314                           ;incstack = 0
  8315                           ; Regs used in _I2C_Master_Stop: [status,2+status,0+pclath+cstack]
  8316                           
  8317                           
  8318                           ;I2C_v1.1.c: 40:         I2C_Master_Check_Idle();
  8319  14B5  160A  118A  2569  160A  118A  	fcall	_I2C_Master_Check_Idle
  8320  14BA                     l2058:	
  8321                           
  8322                           ;I2C_v1.1.c: 41:         SSPCON2bits.PEN = 1;
  8323  14BA  1683               	bsf	3,5	;RP0=1, select bank1
  8324  14BB  1303               	bcf	3,6	;RP1=0, select bank1
  8325  14BC  1511               	bsf	17,2	;volatile
  8326                           
  8327                           ;I2C_v1.1.c: 42:         I2C_Master_Check_Idle();
  8328  14BD  160A  118A  2569  160A  118A  	fcall	_I2C_Master_Check_Idle
  8329  14C2                     l40:	
  8330  14C2  0008               	return
  8331  14C3                     __end_of_I2C_Master_Stop:	
  8332                           
  8333                           	psect	text32
  8334  14A7                     __ptext32:	
  8335 ;; *************** function _I2C_Master_Start *****************
  8336 ;; Defined at:
  8337 ;;		line 27 in file "I2C_v1.1.c"
  8338 ;; Parameters:    Size  Location     Type
  8339 ;;		None
  8340 ;; Auto vars:     Size  Location     Type
  8341 ;;		None
  8342 ;; Return value:  Size  Location     Type
  8343 ;;                  1    wreg      void 
  8344 ;; Registers used:
  8345 ;;		status,2, status,0, pclath, cstack
  8346 ;; Tracked objects:
  8347 ;;		On entry : 0/0
  8348 ;;		On exit  : 0/0
  8349 ;;		Unchanged: 0/0
  8350 ;; Data sizes:     COMMON   BANK0   BANK1   BANK3   BANK2
  8351 ;;      Params:         0       0       0       0       0
  8352 ;;      Locals:         0       0       0       0       0
  8353 ;;      Temps:          0       0       0       0       0
  8354 ;;      Totals:         0       0       0       0       0
  8355 ;;Total ram usage:        0 bytes
  8356 ;; Hardware stack levels used:    1
  8357 ;; Hardware stack levels required when called:    1
  8358 ;; This function calls:
  8359 ;;		_I2C_Master_Check_Idle
  8360 ;; This function is called by:
  8361 ;;		_I2C_SHT25_Temperature_Read
  8362 ;;		_I2C_SHT25_Relative_Humidity_Read
  8363 ;;		_I2C_IO_Expander_Writer
  8364 ;;		_I2C_SHT25_Soft_Reset
  8365 ;; This function uses a non-reentrant model
  8366 ;;
  8367                           
  8368                           
  8369                           ;psect for function _I2C_Master_Start
  8370  14A7                     _I2C_Master_Start:	
  8371  14A7                     l2052:	
  8372                           ;incstack = 0
  8373                           ; Regs used in _I2C_Master_Start: [status,2+status,0+pclath+cstack]
  8374                           
  8375                           
  8376                           ;I2C_v1.1.c: 28:         I2C_Master_Check_Idle();
  8377  14A7  160A  118A  2569  160A  118A  	fcall	_I2C_Master_Check_Idle
  8378  14AC                     l2054:	
  8379                           
  8380                           ;I2C_v1.1.c: 29:         SSPCON2bits.SEN = 1;
  8381  14AC  1683               	bsf	3,5	;RP0=1, select bank1
  8382  14AD  1303               	bcf	3,6	;RP1=0, select bank1
  8383  14AE  1411               	bsf	17,0	;volatile
  8384                           
  8385                           ;I2C_v1.1.c: 30:         I2C_Master_Check_Idle();
  8386  14AF  160A  118A  2569  160A  118A  	fcall	_I2C_Master_Check_Idle
  8387  14B4                     l34:	
  8388  14B4  0008               	return
  8389  14B5                     __end_of_I2C_Master_Start:	
  8390                           
  8391                           	psect	text33
  8392  1569                     __ptext33:	
  8393 ;; *************** function _I2C_Master_Check_Idle *****************
  8394 ;; Defined at:
  8395 ;;		line 23 in file "I2C_v1.1.c"
  8396 ;; Parameters:    Size  Location     Type
  8397 ;;		None
  8398 ;; Auto vars:     Size  Location     Type
  8399 ;;		None
  8400 ;; Return value:  Size  Location     Type
  8401 ;;                  1    wreg      void 
  8402 ;; Registers used:
  8403 ;;		None
  8404 ;; Tracked objects:
  8405 ;;		On entry : 0/0
  8406 ;;		On exit  : 0/0
  8407 ;;		Unchanged: 0/0
  8408 ;; Data sizes:     COMMON   BANK0   BANK1   BANK3   BANK2
  8409 ;;      Params:         0       0       0       0       0
  8410 ;;      Locals:         0       0       0       0       0
  8411 ;;      Temps:          0       0       0       0       0
  8412 ;;      Totals:         0       0       0       0       0
  8413 ;;Total ram usage:        0 bytes
  8414 ;; Hardware stack levels used:    1
  8415 ;; This function calls:
  8416 ;;		Nothing
  8417 ;; This function is called by:
  8418 ;;		_I2C_Master_Start
  8419 ;;		_I2C_Master_Stop
  8420 ;;		_I2C_Master_Send_ACK
  8421 ;;		_I2C_Master_Send_NACK
  8422 ;;		_I2C_Master_Write
  8423 ;;		_I2C_Master_Read
  8424 ;;		_I2C_Master_RepeatedStart
  8425 ;; This function uses a non-reentrant model
  8426 ;;
  8427                           
  8428                           
  8429                           ;psect for function _I2C_Master_Check_Idle
  8430  1569                     _I2C_Master_Check_Idle:	
  8431  1569                     l2040:	
  8432                           ;incstack = 0
  8433                           ; Regs used in _I2C_Master_Check_Idle: []
  8434                           
  8435  1569                     l28:	
  8436                           ;I2C_v1.1.c: 24:         while((SSPSTATbits.R_nW)||(SSPCON2bits.SEN)||(SSPCON2bits.RSEN)
      +                          ||(SSPCON2bits.PEN)||(SSPCON2bits.RCEN)||(SSPCON2bits.ACKEN));
  8437                           
  8438  1569  1683               	bsf	3,5	;RP0=1, select bank1
  8439  156A  1303               	bcf	3,6	;RP1=0, select bank1
  8440  156B  1914               	btfsc	20,2	;volatile
  8441  156C  2D6E               	goto	u2181
  8442  156D  2D6F               	goto	u2180
  8443  156E                     u2181:	
  8444  156E  2D69               	goto	l28
  8445  156F                     u2180:	
  8446  156F                     l2042:	
  8447  156F  1811               	btfsc	17,0	;volatile
  8448  1570  2D72               	goto	u2191
  8449  1571  2D73               	goto	u2190
  8450  1572                     u2191:	
  8451  1572  2D69               	goto	l28
  8452  1573                     u2190:	
  8453  1573                     l2044:	
  8454  1573  1891               	btfsc	17,1	;volatile
  8455  1574  2D76               	goto	u2201
  8456  1575  2D77               	goto	u2200
  8457  1576                     u2201:	
  8458  1576  2D69               	goto	l28
  8459  1577                     u2200:	
  8460  1577                     l2046:	
  8461  1577  1911               	btfsc	17,2	;volatile
  8462  1578  2D7A               	goto	u2211
  8463  1579  2D7B               	goto	u2210
  8464  157A                     u2211:	
  8465  157A  2D69               	goto	l28
  8466  157B                     u2210:	
  8467  157B                     l2048:	
  8468  157B  1991               	btfsc	17,3	;volatile
  8469  157C  2D7E               	goto	u2221
  8470  157D  2D7F               	goto	u2220
  8471  157E                     u2221:	
  8472  157E  2D69               	goto	l28
  8473  157F                     u2220:	
  8474  157F                     l2050:	
  8475  157F  1A11               	btfsc	17,4	;volatile
  8476  1580  2D82               	goto	u2231
  8477  1581  2D83               	goto	u2230
  8478  1582                     u2231:	
  8479  1582  2D69               	goto	l28
  8480  1583                     u2230:	
  8481  1583                     l31:	
  8482  1583  0008               	return
  8483  1584                     __end_of_I2C_Master_Check_Idle:	
  8484  0008                     
  8485                           	psect	functab
  8486  0003                     __pfunctab:	
  8487  0003                     __fptable:	
  8488  0003                     fptable:	
  8489  0003  00FF               	movwf	(btemp+1)& (0+127)
  8490  0004  3000               	movlw	high fptable
  8491  0005  008A               	movwf	10
  8492  0006  087F               	movf	(btemp+1)& (0+127),w
  8493  0007  0782               	addwf	2,f
  8494  0008                     fpbase:	
  8495  0008  2808               	goto	fpbase	; Call via a null pointer and you will get stuck here.
  8496  0009                     fp__I2C_IO_Expander_Writer:	
  8497  0009  160A  118A  2D0A   	ljmp	_I2C_IO_Expander_Writer
  8498  000C                     fp__LCD_data_sender:	
  8499  000C                     entry__LCD_data_sender:	
  8500  000C  160A  118A  2F9F   	ljmp	_LCD_data_sender
  8501  000F                     fp__LCD_send_commad:	
  8502  000F                     entry__LCD_send_commad:	
  8503  000F  160A  118A  2D21   	ljmp	_LCD_send_commad
  8504  0012                     __end_of__fptable:	
  8505  007E                     btemp	set	126	;btemp
  8506  007E                     wtemp0	set	126


Data Sizes:
    Strings     55
    Constant    11
    Data        4
    BSS         45
    Persistent  0
    Stack       0

Auto Spaces:
    Space          Size  Autos    Used
    COMMON           14     14      14
    BANK0            80     80      80
    BANK1            80     19      68
    BANK3            96      0       0
    BANK2            96      0       0

Pointer List with Targets:

    p_LCD_data_sender$2	PTR FTN(unsigned char ,unsigned char ,)void  size(1) Largest target is 1
		 -> I2C_IO_Expander_Writer(), 

    sprintf@cp	PTR const unsigned char  size(1) Largest target is 1
		 -> sprintf@c(BANK0[1]), 

    sprintf@f	PTR const unsigned char  size(1) Largest target is 9
		 -> STR_4(CODE[9]), STR_3(CODE[9]), 

    sprintf@sp	PTR unsigned char  size(1) Largest target is 20
		 -> RH_str(BANK1[20]), T_str(BANK1[20]), 

    sprintf@ap	PTR void [1] size(1) Largest target is 2
		 -> ?_sprintf(BANK0[2]), 

    I2C_LCD_init@LCD_Obj_Add	PTR struct I2C_LCD size(1) Largest target is 2
		 -> LCD1(BANK1[2]), 

    I2C_LCD_write_string@str	PTR unsigned char  size(2) Largest target is 20
		 -> RH_str(BANK1[20]), T_str(BANK1[20]), STR_2(CODE[20]), STR_1(CODE[17]), 

    LCD_data_sender@callback_function	PTR FTN(unsigned char ,unsigned char ,)void  size(1) Largest target is 1
		 -> I2C_IO_Expander_Writer(), 

    p_LCD_send_commad	PTR FTN(struct I2C_LCD,unsigned char ,)void  size(1) Largest target is 1
		 -> LCD_send_commad(), 

    p_LCD_data_sender	PTR FTN(struct I2C_LCD,unsigned char ,PTR FTN(unsigned char ,unsigned char ,)void ,)void  size(1) Largest target is 1
		 -> LCD_data_sender(), 

    p_I2C_IO_Expander_Writer	PTR FTN(unsigned char ,unsigned char ,)void  size(1) Largest target is 1
		 -> I2C_IO_Expander_Writer(), 


Critical Paths under _main in COMMON

    _sprintf->___lwmod
    ___lwmod->___lwdiv
    _I2C_SHT25_Temperature_Read->___xxtofl
    _I2C_SHT25_Relative_Humidity_Read->___xxtofl
    ___fltol->___xxtofl
    ___flmul->___xxtofl
    ___fldiv->___xxtofl
    ___fladd->___xxtofl
    _I2C_Master_Initialize->___lldiv
    _I2C_LCD_write_string->_I2C_LCD_write_char
    _I2C_LCD_write_string->_LCD_send_commad
    _I2C_LCD_write_char->_LCD_data_sender
    _I2C_LCD_set_cursor->_LCD_send_commad
    _I2C_LCD_init->_LCD_send_commad
    _I2C_LCD_entry_mode->_LCD_send_commad
    _I2C_LCD_display_on_off_control->_LCD_send_commad
    _I2C_LCD_clear->_LCD_send_commad
    _LCD_send_commad->_LCD_data_sender
    _LCD_data_sender->_I2C_IO_Expander_Writer
    _I2C_IO_Expander_Writer->_I2C_Master_Write

Critical Paths under _main in BANK0

    _main->_I2C_SHT25_Relative_Humidity_Read
    _main->_I2C_SHT25_Temperature_Read
    _I2C_SHT25_Temperature_Read->___fltol
    _I2C_SHT25_Relative_Humidity_Read->___fltol
    ___fltol->___fldiv
    ___fldiv->___fladd
    ___fladd->___flmul
    _I2C_LCD_write_string->_I2C_LCD_write_char
    _I2C_LCD_write_string->_LCD_send_commad
    _I2C_LCD_set_cursor->_LCD_send_commad
    _I2C_LCD_init->_I2C_LCD_display_on_off_control
    _I2C_LCD_entry_mode->_LCD_send_commad
    _I2C_LCD_display_on_off_control->_LCD_send_commad
    _I2C_LCD_clear->_LCD_send_commad

Critical Paths under _main in BANK1

    _main->_I2C_SHT25_Temperature_Read
    _I2C_SHT25_Temperature_Read->___fltol
    _I2C_SHT25_Relative_Humidity_Read->___fltol

Critical Paths under _main in BANK3

    None.

Critical Paths under _main in BANK2

    None.

Call Graph Tables:

 ---------------------------------------------------------------------------------
 (Depth) Function   	        Calls       Base Space   Used Autos Params    Refs
 ---------------------------------------------------------------------------------
 (0) _main                                                 3     3      0   38544
                                             16 BANK1      3     3      0
                      _I2C_LCD_clear
                       _I2C_LCD_init
                 _I2C_LCD_set_cursor
               _I2C_LCD_write_string
              _I2C_Master_Initialize
   _I2C_SHT25_Relative_Humidity_Read
         _I2C_SHT25_Temperature_Read
             _Initial_Configurations
                            _sprintf
 ---------------------------------------------------------------------------------
 (1) _sprintf                                             24    19      5    2135
                                              0 BANK0     20    15      5
                            ___lwdiv
                            ___lwmod
                             ___wmul
                            _isdigit
 ---------------------------------------------------------------------------------
 (2) _isdigit                                              2     2      0      68
                                              0 COMMON     2     2      0
 ---------------------------------------------------------------------------------
 (2) ___wmul                                               6     2      4     244
                                              0 COMMON     6     2      4
 ---------------------------------------------------------------------------------
 (2) ___lwmod                                              6     2      4     311
                                              8 COMMON     6     2      4
                            ___lwdiv (ARG)
 ---------------------------------------------------------------------------------
 (2) ___lwdiv                                              8     4      4     314
                                              0 COMMON     8     4      4
 ---------------------------------------------------------------------------------
 (1) _Initial_Configurations                               0     0      0       0
 ---------------------------------------------------------------------------------
 (1) _I2C_SHT25_Temperature_Read                          13    11      2    8162
                                             78 BANK0      2     0      2
                                              5 BANK1     11    11      0
                    _I2C_Master_Read
                _I2C_Master_Send_ACK
               _I2C_Master_Send_NACK
                   _I2C_Master_Start
                    _I2C_Master_Stop
                   _I2C_Master_Write
                            ___fladd
                            ___fldiv
                            ___flmul
                            ___fltol
                           ___xxtofl
 ---------------------------------------------------------------------------------
 (1) _I2C_SHT25_Relative_Humidity_Read                    12    10      2    8162
                                             78 BANK0      2     0      2
                                              5 BANK1     10    10      0
                    _I2C_Master_Read
                _I2C_Master_Send_ACK
               _I2C_Master_Send_NACK
                   _I2C_Master_Start
                    _I2C_Master_Stop
                   _I2C_Master_Write
                            ___fladd
                            ___fldiv
                            ___flmul
                            ___fltol
                           ___xxtofl
 ---------------------------------------------------------------------------------
 (2) ___xxtofl                                            14    10      4     626
                                              0 COMMON    14    10      4
 ---------------------------------------------------------------------------------
 (2) ___fltol                                             11     7      4     381
                                             72 BANK0      6     2      4
                                              0 BANK1      5     5      0
                            ___fladd (ARG)
                            ___fldiv (ARG)
                            ___flmul (ARG)
                           ___xxtofl (ARG)
 ---------------------------------------------------------------------------------
 (2) ___flmul                                             26    18      8    2873
                                              0 BANK0     26    18      8
                          __Umul8_16
                           ___xxtofl (ARG)
 ---------------------------------------------------------------------------------
 (3) __Umul8_16                                            9     7      2     799
                                              0 COMMON     9     7      2
 ---------------------------------------------------------------------------------
 (2) ___fldiv                                             26    18      8    1425
                                             46 BANK0     26    18      8
                            ___fladd (ARG)
                            ___flmul (ARG)
                           ___xxtofl (ARG)
 ---------------------------------------------------------------------------------
 (2) ___fladd                                             20    12      8    2718
                                             26 BANK0     20    12      8
                            ___flmul (ARG)
                           ___xxtofl (ARG)
 ---------------------------------------------------------------------------------
 (2) _I2C_Master_Send_NACK                                 0     0      0       0
              _I2C_Master_Check_Idle
 ---------------------------------------------------------------------------------
 (2) _I2C_Master_Send_ACK                                  0     0      0       0
              _I2C_Master_Check_Idle
 ---------------------------------------------------------------------------------
 (2) _I2C_Master_Read                                      3     3      0      24
                                              0 COMMON     3     3      0
              _I2C_Master_Check_Idle
 ---------------------------------------------------------------------------------
 (1) _I2C_Master_Initialize                               10     4      6     608
                                              0 BANK0     10     4      6
                            ___lldiv
 ---------------------------------------------------------------------------------
 (2) ___lldiv                                             14     6      8     314
                                              0 COMMON    14     6      8
 ---------------------------------------------------------------------------------
 (1) _I2C_LCD_write_string                                 6     2      4    4572
                                              2 BANK0      6     2      4
                 _I2C_LCD_write_char
                    _LCD_send_commad
 ---------------------------------------------------------------------------------
 (2) _I2C_LCD_write_char                                   5     2      3    1280
                                             11 COMMON     3     0      3
                                              0 BANK0      2     2      0
                    _LCD_data_sender
 ---------------------------------------------------------------------------------
 (1) _I2C_LCD_set_cursor                                   6     2      4    3616
                                              2 BANK0      6     2      4
                    _LCD_send_commad
 ---------------------------------------------------------------------------------
 (1) _I2C_LCD_init                                         6     3      3    8685
                                              9 BANK0      6     3      3
     _I2C_LCD_display_on_off_control
                 _I2C_LCD_entry_mode
                    _LCD_send_commad
 ---------------------------------------------------------------------------------
 (2) _I2C_LCD_entry_mode                                   6     2      4    2800
                                              2 BANK0      6     2      4
                    _LCD_send_commad
 ---------------------------------------------------------------------------------
 (2) _I2C_LCD_display_on_off_control                       7     2      5    2898
                                              2 BANK0      7     2      5
                    _LCD_send_commad
 ---------------------------------------------------------------------------------
 (1) _I2C_LCD_clear                                        4     2      2    2604
                                              2 BANK0      4     2      2
                    _LCD_send_commad
 ---------------------------------------------------------------------------------
 (2) _LCD_send_commad                                      5     2      3    2506
                                             11 COMMON     3     0      3
                                              0 BANK0      2     2      0
                    _LCD_data_sender
 ---------------------------------------------------------------------------------
 (3) _LCD_data_sender                                      7     3      4    1084
                                              4 COMMON     7     3      4
             _I2C_IO_Expander_Writer *
 ---------------------------------------------------------------------------------
 (4) _I2C_IO_Expander_Writer                               2     0      2     410
                                              2 COMMON     2     0      2
                   _I2C_Master_Start
                    _I2C_Master_Stop
                   _I2C_Master_Write
 ---------------------------------------------------------------------------------
 (2) _I2C_Master_Write                                     2     2      0      22
                                              0 COMMON     2     2      0
              _I2C_Master_Check_Idle
 ---------------------------------------------------------------------------------
 (2) _I2C_Master_Stop                                      0     0      0       0
              _I2C_Master_Check_Idle
 ---------------------------------------------------------------------------------
 (2) _I2C_Master_Start                                     0     0      0       0
              _I2C_Master_Check_Idle
 ---------------------------------------------------------------------------------
 (3) _I2C_Master_Check_Idle                                0     0      0       0
 ---------------------------------------------------------------------------------
 Estimated maximum stack depth 4
 ---------------------------------------------------------------------------------

 Call Graph Graphs:

 _main (ROOT)
   _I2C_LCD_clear
     _LCD_send_commad
       _LCD_data_sender
         _I2C_IO_Expander_Writer *
           _I2C_Master_Start
             _I2C_Master_Check_Idle
           _I2C_Master_Stop
             _I2C_Master_Check_Idle
           _I2C_Master_Write
             _I2C_Master_Check_Idle
   _I2C_LCD_init
     _I2C_LCD_display_on_off_control
       _LCD_send_commad
         _LCD_data_sender
           _I2C_IO_Expander_Writer *
             _I2C_Master_Start
               _I2C_Master_Check_Idle
             _I2C_Master_Stop
               _I2C_Master_Check_Idle
             _I2C_Master_Write
               _I2C_Master_Check_Idle
     _I2C_LCD_entry_mode
       _LCD_send_commad
         _LCD_data_sender
           _I2C_IO_Expander_Writer *
             _I2C_Master_Start
               _I2C_Master_Check_Idle
             _I2C_Master_Stop
               _I2C_Master_Check_Idle
             _I2C_Master_Write
               _I2C_Master_Check_Idle
     _LCD_send_commad
       _LCD_data_sender
         _I2C_IO_Expander_Writer *
           _I2C_Master_Start
             _I2C_Master_Check_Idle
           _I2C_Master_Stop
             _I2C_Master_Check_Idle
           _I2C_Master_Write
             _I2C_Master_Check_Idle
   _I2C_LCD_set_cursor
     _LCD_send_commad
       _LCD_data_sender
         _I2C_IO_Expander_Writer *
           _I2C_Master_Start
             _I2C_Master_Check_Idle
           _I2C_Master_Stop
             _I2C_Master_Check_Idle
           _I2C_Master_Write
             _I2C_Master_Check_Idle
   _I2C_LCD_write_string
     _I2C_LCD_write_char
       _LCD_data_sender
         _I2C_IO_Expander_Writer *
           _I2C_Master_Start
             _I2C_Master_Check_Idle
           _I2C_Master_Stop
             _I2C_Master_Check_Idle
           _I2C_Master_Write
             _I2C_Master_Check_Idle
     _LCD_send_commad
       _LCD_data_sender
         _I2C_IO_Expander_Writer *
           _I2C_Master_Start
             _I2C_Master_Check_Idle
           _I2C_Master_Stop
             _I2C_Master_Check_Idle
           _I2C_Master_Write
             _I2C_Master_Check_Idle
   _I2C_Master_Initialize
     ___lldiv
   _I2C_SHT25_Relative_Humidity_Read
     _I2C_Master_Read
       _I2C_Master_Check_Idle
     _I2C_Master_Send_ACK
       _I2C_Master_Check_Idle
     _I2C_Master_Send_NACK
       _I2C_Master_Check_Idle
     _I2C_Master_Start
       _I2C_Master_Check_Idle
     _I2C_Master_Stop
       _I2C_Master_Check_Idle
     _I2C_Master_Write
       _I2C_Master_Check_Idle
     ___fladd
       ___flmul (ARG)
         __Umul8_16
         ___xxtofl (ARG)
       ___xxtofl (ARG)
     ___fldiv
       ___fladd (ARG)
         ___flmul (ARG)
           __Umul8_16
           ___xxtofl (ARG)
         ___xxtofl (ARG)
       ___flmul (ARG)
         __Umul8_16
         ___xxtofl (ARG)
       ___xxtofl (ARG)
     ___flmul
       __Umul8_16
       ___xxtofl (ARG)
     ___fltol
       ___fladd (ARG)
         ___flmul (ARG)
           __Umul8_16
           ___xxtofl (ARG)
         ___xxtofl (ARG)
       ___fldiv (ARG)
         ___fladd (ARG)
           ___flmul (ARG)
             __Umul8_16
             ___xxtofl (ARG)
           ___xxtofl (ARG)
         ___flmul (ARG)
           __Umul8_16
           ___xxtofl (ARG)
         ___xxtofl (ARG)
       ___flmul (ARG)
         __Umul8_16
         ___xxtofl (ARG)
       ___xxtofl (ARG)
     ___xxtofl
   _I2C_SHT25_Temperature_Read
     _I2C_Master_Read
       _I2C_Master_Check_Idle
     _I2C_Master_Send_ACK
       _I2C_Master_Check_Idle
     _I2C_Master_Send_NACK
       _I2C_Master_Check_Idle
     _I2C_Master_Start
       _I2C_Master_Check_Idle
     _I2C_Master_Stop
       _I2C_Master_Check_Idle
     _I2C_Master_Write
       _I2C_Master_Check_Idle
     ___fladd
       ___flmul (ARG)
         __Umul8_16
         ___xxtofl (ARG)
       ___xxtofl (ARG)
     ___fldiv
       ___fladd (ARG)
         ___flmul (ARG)
           __Umul8_16
           ___xxtofl (ARG)
         ___xxtofl (ARG)
       ___flmul (ARG)
         __Umul8_16
         ___xxtofl (ARG)
       ___xxtofl (ARG)
     ___flmul
       __Umul8_16
       ___xxtofl (ARG)
     ___fltol
       ___fladd (ARG)
         ___flmul (ARG)
           __Umul8_16
           ___xxtofl (ARG)
         ___xxtofl (ARG)
       ___fldiv (ARG)
         ___fladd (ARG)
           ___flmul (ARG)
             __Umul8_16
             ___xxtofl (ARG)
           ___xxtofl (ARG)
         ___flmul (ARG)
           __Umul8_16
           ___xxtofl (ARG)
         ___xxtofl (ARG)
       ___flmul (ARG)
         __Umul8_16
         ___xxtofl (ARG)
       ___xxtofl (ARG)
     ___xxtofl
   _Initial_Configurations
   _sprintf
     ___lwdiv
     ___lwmod
       ___lwdiv (ARG)
     ___wmul
     _isdigit

 Address spaces:
Name               Size   Autos  Total    Cost      Usage
BANK3               60      0       0       9        0.0%
BITBANK3            60      0       0       8        0.0%
SFR3                 0      0       0       4        0.0%
BITSFR3              0      0       0       4        0.0%
BANK2               60      0       0      11        0.0%
BITBANK2            60      0       0      10        0.0%
SFR2                 0      0       0       5        0.0%
BITSFR2              0      0       0       5        0.0%
BANK1               50     13      44       7       85.0%
BITBANK1            50      0       0       6        0.0%
SFR1                 0      0       0       2        0.0%
BITSFR1              0      0       0       2        0.0%
BANK0               50     50      50       5      100.0%
BITBANK0            50      0       0       4        0.0%
SFR0                 0      0       0       1        0.0%
BITSFR0              0      0       0       1        0.0%
COMMON               E      E       E       1      100.0%
BITCOMMON            E      0       0       0        0.0%
CODE                 0      0       0       0        0.0%
DATA                 0      0      A2      12        0.0%
ABS                  0      0      A2       3        0.0%
NULL                 0      0       0       0        0.0%
STACK                0      0       0       2        0.0%
EEDATA             100      0       0       0        0.0%


Microchip Technology PIC Macro Assembler V2.10 build 88905656 
Symbol Table                                                                                   Thu Apr 08 23:40:51 2021

                                                 _T 00A1                                        ___fldiv@aexp 0067  
                                      ___fldiv@bexp 0066                                                   pc 0002  
                                      ___fldiv@sign 005F                              ?_I2C_Master_Check_Idle 0070  
                                       __CFG_CP$OFF 0000                                         _SSPSTATbits 0094  
                                                l31 1583                                                  l40 14C2  
                                                l25 16F4                                                  l34 14B4  
                                                l43 14D1                                                  l28 1569  
                                                l53 15BD                                                  l46 14E0  
                                                l49 1509                                                  l89 14A6  
                                                _RH 00A0                      __end_of_Initial_Configurations 14A7  
                                                fsr 0004                                 ___wmul@multiplicand 0072  
                      __size_of_I2C_Master_Send_ACK 000F                                 __Umul8_16@word_mpld 0076  
                                               l200 1537                                                 l210 1748  
                                               l203 154F                                                 l213 1568  
                                               l222 15DB                                                 l219 15A0  
                                               l171 0B6B                                                 l228 08E6  
                                               l237 179E                                                 l159 0C9D  
                                               l256 1520                                                 l427 0869  
                                               l197 17FF                                                 l391 15E8  
                                               l376 0F59                                                 l705 03C5  
                                               l393 1600                                                 l715 040B  
                                               l387 0FFF                                                 l740 006F  
                                               l820 0A3C                                                 l709 03E9  
                                               l726 046B                                                 l718 0449  
                                               l742 01EF                                                 l727 0477  
                                               l831 0A06                                                 l663 16A5  
                                               l584 096D                                                 l832 0A12  
                                               l824 09EA                                                 l577 0982  
                                               l673 1661                                                 l690 02D1  
                                               l762 01D3                                                 l842 1615  
                                               l818 09A5                                                 l587 0982  
                                               l684 0253                                                 l764 01E3  
                                               l756 0161                                                 l844 1627  
                                               l780 07D8                                                 l838 14F2  
                                               l688 02FA                                                 l792 07CC  
                                               l697 0477                                                 l786 0744  
                       __size_of_I2C_LCD_set_cursor 0056                                        __CFG_CPD$OFF 0000  
                          ??_I2C_IO_Expander_Writer 0074                                                 fsr0 0004  
                                               indf 0000                                        __CFG_FOSC$HS 0000  
                                      ___flmul@aexp 0032                                        ___flmul@bexp 0033  
                                      ___flmul@sign 002D                                        ___flmul@temp 0038  
                                      ___flmul@prod 0034                       __size_of_I2C_Master_Send_NACK 000F  
                                      __CFG_LVP$OFF 0000                                        _I2C_LCD_init 086A  
                                      ___fltol@exp1 006D                                                l2100 14CB  
                                              l2110 15A7                                                l2102 14D2  
                                              l2040 1569                                                l2112 15A8  
                                              l2104 14D7                                                l2200 0935  
                                              l3000 0F91                                                l2050 157F  
                                              l2042 156F                                                l2130 15BE  
                                              l2122 1538                                                l2114 15A9  
                                              l2106 14DA                                                l3010 0FD5  
                                              l3002 0F97                                                l2044 1573  
                                              l2052 14A7                                                l2060 14F4  
                                              l2132 15D0                                                l2124 153C  
                                              l2116 15AE                                                l2108 15A1  
                                              l2300 0236                                                l2220 1662  
                                              l2140 14EF                                                l3012 0FDC  
                                              l3004 0F9E                                                l2046 1577  
                                              l2054 14AC                                                l2062 14F9  
                                              l2070 150A                                                l2126 1584  
                                              l2118 15B1                                                l2302 023B  
                                              l2310 024B                                                l2214 095A  
                                              l2206 093D                                                l2230 1678  
                                              l2222 1664                                                l2150 15E2  
                                              l2142 14F1                                                l2134 14E2  
                                              l3014 0FE0                                                l3006 0FA2  
                                              l3030 0C9E                                                l2048 157B  
                                              l2056 14B5                                                l2064 14FD  
                                              l2072 150F                                                l2080 1524  
                                              l2128 1595                                                l2160 0804  
                                              l2400 03B7                                                l2320 0269  
                                              l2312 0259                                                l2304 0240  
                                              l2216 0972                                                l2208 0953  
                                              l2240 169B                                                l2232 167C  
                                              l2224 166A                                                l2152 15EF  
                                              l2136 14E3                                                l3008 0FA7  
                                              l3016 0FE9                                                l3040 0D1C  
                                              l3032 0CB5                                                l2058 14BA  
                                              l2066 1502                                                l2074 1515  
                                              l2170 0831                                                l2162 0814  
                                              l2410 03E4                                                l2402 03CD  
                                              l2330 027D                                                l2322 026D  
                                              l2314 025D                                                l2306 0248  
                                              l2090 161E                                                l2082 1602  
                                              l2218 0977                                                l2234 168D  
                                              l2226 166D                                                l2242 16A1  
                                              l2250 1631                                                l2154 15F6  
                                              l2146 15DC                                                l2138 14E9  
                                              l3018 0FFB                                                l3114 0EF1  
                                              l3050 0D79                                                l3042 0D31  
                                              l3034 0CCC                                                l2076 179F  
                                              l3116 1790                                                l2172 0843  
                                              l2164 0817                                                l2180 0861  
                                              l2420 03F7                                                l2412 03E8  
                                              l2404 03D2                                                l2340 0291  
                                              l2332 0281                                                l2324 0271  
                                              l2316 0261                                                l2308 0249  
                                              l2500 0067                                                l2092 1623  
                                              l2084 1604                                                l2236 1693  
                                              l2228 1674                                                l2260 1650  
                                              l2252 1638                                                l2156 15FC  
                                              l2148 15DE                                                l3052 0D96  
                                              l3044 0D46                                                l3036 0CF8  
                                              l2078 1521                                                l2174 0851  
                                              l2166 0824                                                l2430 0408  
                                              l2414 03ED                                                l2422 03F9  
                                              l2350 02B5                                                l2342 0295  
                                              l2334 0285                                                l2326 0275  
                                              l2318 0265                                                l2270 01F7  
                                              l2502 0077                                                l2510 0090  
                                              l2086 160B                                                l2190 0901  
                                              l2238 1694                                                l2262 1657  
                                              l2254 163C                                                l2246 1628  
                                              l3054 0DB7                                                l3046 0D53  
                                              l3038 0D0D                                                l2176 0852  
                                              l2168 0828                                                l2096 14C3  
                                              l2440 0427                                                l2416 03F0  
                                              l2408 03DB                                                l2424 03FD  
                                              l2360 02E5                                                l2352 02D5  
                                              l2344 0299                                                l2336 0289  
                                              l2328 0279                                                l2280 020C  
                                              l2272 01FD                                                l2520 00B8  
                                              l2512 0095                                                l2504 0083  
                                              l2088 160F                                                l2192 0926  
                                              l2184 08E7                                                l2256 1640  
                                              l2248 162E                                                l2264 165D  
                                              l3056 0DCC                                                l3048 0D60  
                                              l2178 085B                                                l2098 14C8  
                                              l2450 0460                                                l2442 0445  
                                              l2434 0410                                                l2426 03FE  
                                              l2418 03F2                                                l2362 02EE  
                                              l2354 02DE                                                l2338 028D  
                                              l2346 029D                                                l2290 0224  
                                              l2282 0214                                                l2274 0201  
                                              l2530 00E1                                                l2522 00C0  
                                              l2506 0087                                                l2610 0489  
                                              l2194 0927                                                l2186 08F8  
                                              l2258 164A                                                l3058 0DE7  
                                              l2460 0476                                                l2452 0461  
                                              l2444 044E                                                l2436 0415  
                                              l2428 0402                                                l2380 0334  
                                              l2372 030C                                                l2356 02E0  
                                              l2364 02F2                                                l2348 029E  
                                              l2292 022A                                                l2284 0215  
                                              l2276 0202                                                l2268 01F0  
                                              l2540 0102                                                l2532 00E5  
                                              l2524 00C8                                                l2516 009E  
                                              l2700 0724                                                l2620 049E  
                                              l2612 048A                                                l2604 0478  
                                              l2196 092F                                                l2454 0465  
                                              l2446 0453                                                l2438 0423  
                                              l2382 0336                                                l2374 0323  
                                              l2366 02FE                                                l2390 0349  
                                              l2358 02E4                                                l2294 022B  
                                              l2278 0207                                                l2286 0217  
                                              l2550 0124                                                l2542 0110  
                                              l2534 00E6                                                l2526 00CA  
                                              l2518 00B0                                                l2470 0025  
                                              l2462 0013                                                l2702 0728  
                                              l2630 04B6                                                l2622 04A6  
                                              l2614 048F                                                l2606 047F  
                                              l2198 0931                                                l2456 0467  
                                              l2448 045B                                                l2392 035F  
                                              l2384 033A                                                l2376 0327  
                                              l2368 0303                                                l2296 0231  
                                              l2288 021F                                                l2552 012D  
                                              l2560 0141                                                l2528 00CF  
                                              l2536 00EF                                                l2544 0114  
                                              l2472 002A                                                l2480 003A  
                                              l2464 001A                                                l2720 0779  
                                              l2712 0749                                                l2704 0729  
                                              l2640 04D2                                                l2632 04BB  
                                              l2624 04AB                                                l2616 0494  
                                              l2608 0485                                                l2800 149D  
                                              l2810 088A                                                l2458 0472  
                                              l2394 039D                                                l2386 033B  
                                              l2378 032B                                                l2298 0235  
                                              l2562 0145                                                l2554 0131  
                                              l2546 011A                                                l2538 0101  
                                              l2490 0052                                                l2482 0042  
                                              l2474 002F                                                l2466 0020  
                                              l2730 07B0                                                l2714 074E  
                                              l2722 077F                                                l2706 072D  
                                              l2650 04F5                                                l2642 04D7  
                                              l2634 04C0                                                l2626 04B1  
                                              l2618 049C                                                l2802 149F  
                                              l2820 1550                                                l2812 0895  
                                              l2396 03A3                                                l2388 0344  
                                              l2580 0196                                                l2572 0166  
                                              l2564 0146                                                l2556 0132  
                                              l2548 0122                                                l2492 0057  
                                              l2484 0047                                                l2476 0037  
                                              l2468 0024                                                l2740 07D0  
                                              l2732 07B2                                                l2724 078C  
                                              l2716 075C                                                l2708 0741  
                                              l2660 0583                                                l2652 0502  
                                              l2644 04DC                                                l2636 04C8  
                                              l2628 04B5                                                l2900 0AA1  
                                              l2804 14A3                                                l2822 155D  
                                              l2814 08AA                                                l2806 086D  
                                              l2830 1768                                                l2398 03A8  
                                              l2590 01CA                                                l2574 016B  
                                              l2582 019C                                                l2566 014A  
                                              l2558 013B                                                l2494 005C  
                                              l2486 004D                                                l2478 0038  
                                              l2734 07C0                                                l2726 0797  
                                              l2718 0760                                                l2670 05E5  
                                              l2662 059F                                                l2654 051F  
                                              l2638 04CA                                                l2750 099D  
                                              l2902 0B05                                                l2910 0E1C  
                                              l2816 08BF                                                l2808 087A  
                                              l2832 1777                                                l2824 1749  
                                              l2592 01D2                                                l2584 01A9  
                                              l2576 0179                                                l2568 015E  
                                              l2496 0064                                                l2488 0051  
                                              l2736 07C4                                                l2728 07A6  
                                              l2680 0675                                                l2672 0602  
                                              l2664 05A8                                                l2656 053B  
                                              l2648 04E5                                                l2760 09C8  
                                              l2752 09AD                                                l2744 0984  
                                              l2920 0E3F                                                l2912 0E23  
                                              l2818 08D3                                                l2826 174A  
                                              l2850 1731                                                l2842 16F5  
                                              l2594 01D9                                                l2586 01B7  
                                              l2578 017D                                                l2498 0065  
                                              l2738 07C5                                                l2690 0707  
                                              l2682 06A2                                                l2674 061B  
                                              l2666 05B8                                                l2658 0567  
                                              l2770 09FC                                                l2762 09CF  
                                              l2746 0989                                                l2930 0E85  
                                              l2922 0E54                                                l2914 0E28  
                                              l2906 0E11                                                l2828 1759  
                                              l2836 1786                                                l2844 16F9  
                                              l2852 1737                                                l2596 01DD  
                                              l2588 01C6                                                l2692 0710  
                                              l2684 06C8                                                l2676 0638  
                                              l2668 05D5                                                l2780 0A2F  
                                              l2772 0A00                                                l2764 09D3  
                                              l2756 09B6                                                l2748 098D  
                                              l2860 0B87                                                l2940 0EA9  
                                              l2932 0E8C                                                l2924 0E67  
                                              l2916 0E2B                                                l2908 0E16  
                                              l2846 170A                                                l2790 16BE  
                                              l2598 01DF                                                l2694 0714  
                                              l2686 06F0                                                l2678 0665  
                                              l2782 0A33                                                l2774 0A0A  
                                              l2766 09E1                                                l2758 09BB  
                                              l2870 0BB7                                                l2862 0B8C  
                                              l2854 0B6C                                                l2950 0ED0  
                                              l2942 0EB2                                                l2934 0E8F  
                                              l2926 0E6B                                                l2918 0E3B  
                                              l2848 1717                                                l2792 16C2  
                                              l2696 0715                                                l2688 06F9  
                                              l2784 0A34                                                l2776 0A14  
                                              l2768 09F1                                                l2880 0A3D  
                                              l2872 0BBC                                                l2864 0B9A  
                                              l2856 0B71                                                l2960 0EFF  
                                              l2952 0ED4                                                l2944 0EB6  
                                              l2936 0E96                                                l2928 0E7C  
                                              l2794 16C5                                                l2698 071E  
                                              l2778 0A2A                                                l2890 0A68  
                                              l2882 0A42                                                l2874 0BD3  
                                              l2866 0B9F                                                l2858 0B7C  
                                              l2970 0F18                                                l2962 0F07  
                                              l2954 0ED8                                                l2946 0EBA  
                                              l2938 0E9A                                                l2796 16F2  
                                              l2788 16A6                                                l2892 0A6D  
                                              l2884 0A4D                                                l2876 0C37  
                                              l2868 0BAA                                                l2980 0F3D  
                                              l2972 0F1A                                                l2964 0F0B  
                                              l2948 0EC9                                                l2798 16F3  
                                              l2894 0A78                                                l2886 0A58  
                                              l2990 0F70                                                l2982 0F47  
                                              l2966 0F0F                                                l2958 0EDD  
                                              l2896 0A85                                                l2888 0A5D  
                                              l2992 0F74                                                l2984 0F4D  
                                              l2976 0F21                                                l2968 0F13  
                                              l2898 0A8A                                                l2994 0F7A  
                                              l2986 0F53                                                l2996 0F81  
                                              l2988 0F64                                                l2998 0F85  
                                              STR_1 102F                                                STR_2 101B  
                                              STR_3 1049                                                STR_4 1040  
                                              _LCD1 00CB                                                u2200 1577  
                                              u3000 0402                                                u2201 1576  
                                              u3001 0401                                                u2210 157B  
                                              u3010 0408                                                u2211 157A  
                                              u3011 0407                                                u2220 157F  
                                              u3100 0465                                                u3020 040F  
                                              u2300 14E9                                                u2221 157E  
                                              u3101 0464                                                u3021 040E  
                                              u2301 14E8                                                u2230 1583  
                                              u3110 0476                                                u3030 0415  
                                              u2310 14EF                                                u2231 1582  
                                              u3111 0475                                                u3031 0414  
                                              u2311 14EE                                                u2400 0843  
                                              u3040 0427                                                u3200 00CF  
                                              u3120 0024                                                u4000 0A4D  
                                              u2320 15E2                                                u2401 0842  
                                              u3041 0426                                                u3201 00CE  
                                              u3121 0023                                                u4001 0A4C  
                                              u2321 15E1                                                u3050 0436  
                                              u3130 002A                                                u4010 0A58  
                                              u3131 0029                                                u4011 0A57  
                                              u2180 156F                                                u2420 0861  
                                              u3060 0445                                                u3140 002F  
                                              u2260 160F                                                u4020 0A78  
                                              u4100 0F20                                                u2181 156E  
                                              u2245 17CD                                                u2421 0860  
                                              u2405 083F                                                u3061 0444  
                                              u3141 002E                                                u2261 160E  
                                              u4021 0A77                                                u4101 0F1F  
                                              u2190 1573                                                u3070 044E  
                                              u3310 0145                                                u3230 00E5  
                                              u3150 0051                                                u2510 0972  
                                              u2430 08F8                                                u2350 15FC  
                                              u4110 0F3C                                                u4030 0E1C  
                                              u2191 1572                                                u2255 17EA  
                                              u2415 0853                                                u3071 044D  
                                              u3055 0431                                                u3311 0144  
                                              u3231 00E4                                                u3215 00D1  
                                              u3151 0050                                                u2511 0971  
                                              u2431 08F7                                                u2351 15FB  
                                              u2335 15E9                                                u4111 0F3B  
                                              u4031 0E1B                                                u2360 0814  
                                              u3080 0453                                                u3400 01DD  
                                              u3320 014A                                                u3160 0057  
                                              u2280 1623                                                u2520 0977  
                                              u2440 091D                                                u2600 162E  
                                              u4200 0FFB                                                u4120 0F47  
                                              u4040 0E3B                                                u2361 0813  
                                              u3081 0452                                                u3401 01DC  
                                              u3321 0149                                                u3305 0134  
                                              u3225 00DA                                                u3161 0056  
                                              u2281 1622                                                u2521 0976  
                                              u2505 095E                                                u2601 162D  
                                              u2345 15F0                                                u4201 0FFA  
                                              u4121 0F46                                                u4041 0E3A  
                                              u2290 15A7                                                u3090 0460  
                                              u3330 015E                                                u3250 0101  
                                              u3170 005C                                                u3410 0489  
                                              u2450 0935                                                u2530 166A  
                                              u4130 0F4D                                                u4050 0E7B  
                                              u2291 15A6                                                u3091 045F  
                                              u3331 015D                                                u3251 0100  
                                              u3171 005B                                                u2275 1616  
                                              u3411 0488                                                u2451 0934  
                                              u2531 1669                                                u4131 0F4C  
                                              u4115 0F38                                                u4051 0E7A  
                                              u2380 0828                                                u2700 0235  
                                              u3340 0165                                                u3260 011A  
                                              u3180 0077                                                u3420 048F  
                                              u2460 093C                                                u2620 1640  
                                              u4140 0F53                                                u4060 0E85  
                                              u2381 0827                                                u2701 0234  
                                              u3341 0164                                                u3261 0119  
                                              u3245 00E8                                                u3181 0076  
                                              u3501 0549                                                u3421 048E  
                                              u2461 093B                                                u2445 0918  
                                              u2621 163F                                                u4141 0F52  
                                              u4061 0E84                                                u2710 023B  
                                              u3350 016B                                                u3270 0122  
                                              u3190 0095                                                u3502 0550  
                                              u3430 0494                                                u2550 167C  
                                              u2630 164A                                                u4150 0F64  
                                              u4070 0EA8                                                u2375 0819  
                                              u2711 023A                                                u3351 016A  
                                              u3271 0121                                                u3255 00FD  
                                              u3191 0094                                                u3511 0575  
                                              u3503 0557                                                u3431 0493  
                                              u2551 167B                                                u2631 1649  
                                              u2615 1632                                                u4151 0F63  
                                              u4071 0EA7                                                u2720 0240  
                                              u3360 017D                                                u3600 06AE  
                                              u3512 057C                                                u3440 04B5  
                                              u2480 0952                                                u4160 0F7A  
                                              u4080 0EC8                                                u2721 023F  
                                              u3361 017C                                                u3521 0591  
                                              u3513 0583                                                u3441 04B4  
                                              u2481 0951                                                u2545 166E  
                                              u4161 0F79                                                u4081 0EC7  
                                              u4217 0D15                                                u2810 02FA  
                                              u2730 0259                                                u3370 018C  
                                              u3290 0131                                                u3522 0598  
                                              u3450 04BB                                                u2490 0959  
                                              u2570 168D                                                u2650 165D  
                                              u4170 0F91                                                u4090 0F0F  
                                              u2395 082A                                                u2811 02F9  
                                              u2731 0258                                                u3291 0130  
                                              u3611 06BA                                                u3523 059F  
                                              u3451 04BA                                                u2491 0958  
                                              u2475 093E                                                u2571 168C  
                                              u2651 165C                                                u2635 1646  
                                              u4171 0F90                                                u4155 0F60  
                                              u4091 0F0E                                                u4227 0E04  
                                              u2820 02FE                                                u2740 025D  
                                              u2660 0201                                                u3380 01A9  
                                              u3700 0741                                                u3620 06D6  
                                              u3612 06C1                                                u3460 04C0  
                                              u4180 0F97                                                u2901 0376  
                                              u2821 02FD                                                u2805 02E7  
                                              u2741 025C                                                u2661 0200  
                                              u3381 01A8                                                u3285 0126  
                                              u3701 0740                                                u3613 06C8  
                                              u3605 06A9                                                u3541 05C7  
                                              u3461 04BF                                                u4237 0B94  
                                              u2565 167D                                                u2645 1651  
                                              u4181 0F96                                                u2910 038A  
                                              u2902 0377                                                u2830 0303  
                                              u2750 02B5                                                u2670 0207  
                                              u3390 01C6                                                u3710 0748  
                                              u3542 05CE                                                u3470 04D7  
                                              u2590 16A1                                                u4190 0FE9  
                                              u2911 038B                                                u2903 037C  
                                              u2831 0302                                                u2751 02B4  
                                              u2671 0206                                                u3391 01C5  
                                              u3375 0187                                                u3711 0747  
                                              u3631 06E2                                                u3551 05F4  
                                              u3543 05D5                                                u3535 05A1  
                                              u3471 04D6                                                u4247 0A63  
                                              u2591 16A0                                                u2575 1689  
                                              u4191 0FE8                                                u2920 03A8  
                                              u2912 0390                                                u2904 037D  
                                              u2760 02C0                                                u2680 020C  
                                              u3720 074E                                                u3632 06E9  
                                              u3552 05FB                                                u3480 04DC  
                                              u3800 09AD                                                u4257 0890  
                                              u2921 03A7                                                u2913 0391  
                                              u2905 0382                                                u2841 0315  
                                              u2761 02BE                                                u2681 020B  
                                              u3385 01A5                                                u3721 074D  
                                              u3633 06F0                                                u3625 06D1  
                                              u3553 0602                                                u3481 04DB  
                                              u3801 09AC                                                u2585 1695  
                                              u2930 03CD                                                u2906 0383  
                                              u2850 0327                                                u2842 031C  
                                              u2770 02C1                                                u2690 022A  
                                              u3730 0760                                                u4267 159B  
                                              u2931 03CC                                                u2851 0326  
                                              u2843 0323                                                u2755 02B1  
                                              u2691 0229                                                u3395 01C2  
                                              u3731 075F                                                u3571 062A  
                                              u3491 052D                                                u2940 03D2  
                                              u2860 032B                                                u2780 02D5  
                                              u3740 076F                                                u3660 0714  
                                              u3572 0631                                                u3492 0534  
                                              u3900 0A2F                                                u3820 09CE  
                                              u4277 15D6                                                u2941 03D1  
                                              u2861 032A                                                u2781 02D4  
                                              u3661 0713                                                u3645 06F2  
                                              u3581 0657                                                u3573 0638  
                                              u3565 0604                                                u3493 053B  
                                              u3901 0A2E                                                u3821 09CD  
                                              u2870 033A                                                u2790 02E4  
                                              u3750 078C                                                u3582 065E  
                                              u3910 0A33                                                u4287 1563  
                                              u2871 0339                                                u2791 02E3  
                                              u3751 078B                                                u3655 0709  
                                              u3591 0684                                                u3583 0665  
                                              u3911 0A32                                                u3815 09C0  
                                              u2960 03E8                                                u3760 07A6  
                                              u3680 0728                                                u3592 068B  
                                              u3840 09F0                                                u2961 03E7  
                                              u3761 07A5                                                u3745 076A  
                                              u3681 0727                                                u3593 0692  
                                              u3841 09EF                                                u2970 03ED  
                                              u2890 035F                                                u3770 07C4  
                                              u3690 072D                                                u2971 03EC  
                                              u2955 03DD                                                u2891 035E  
                                              u3771 07C3                                                u3755 0788  
                                              u3691 072C                                                u3675 0717  
                                              u3835 09E2                                                u3940 16D5  
                                              u2980 03F7                                                u3860 0A00  
                                              u3780 0989                                                u3925 16AB  
                                              u2981 03F6                                                u2893 035B  
                                              u2885 033D                                                u3765 07A2  
                                              u3861 09FF                                                u3781 0988  
                                              u3950 170A                                                u2990 03FD  
                                              u3870 0A06                                                u3790 098D  
                                              u3951 1709                                                u3935 16B3  
                                              u2991 03FC                                                u3871 0A05  
                                              u3855 09F5                                                u3791 098C  
                                              u3960 1748                                                u3880 0A0A  
                                              u3961 1747                                                u3945 16D0  
                                              u3881 0A09                                                u3890 0A1F  
                                              u3970 0B7C                                                u3971 0B7B  
                                              u3980 0B87                                                u3981 0B86  
                                              u3990 0BAA                                                u3895 0A1A  
                                              u3991 0BA9                                        __CFG_WRT$OFF 0000  
                                              _main 0C9E                                                btemp 007E  
                                     __CFG_BOREN$ON 0000                                                start 0000  
                              __end_of_Lcd_RW_State 101B                                     ___fldiv@new_exp 0060  
                                     _I2C_LCD_clear 1550                                    ?_I2C_Master_Read 0070  
                                  ?_I2C_Master_Stop 0070                              ??_I2C_LCD_write_string 0026  
                                     ___fltol@sign1 006C                                     __end_of___fladd 0478  
                                             ?_main 0070                                     __end_of___fldiv 01F0  
                                     __CFG_WDTE$OFF 0000                                     __end_of___flmul 07D9  
                                   __end_of___fltol 0983                                     __end_of___lldiv 086A  
                      I2C_Master_Read@Recieved_Data 0072                                     __end_of___lwdiv 16A6  
                                   __end_of___lwmod 1662                                               _PORTB 0006  
                                             _TRISB 0086                                               _T_str 00B7  
                       __size_of_I2C_LCD_write_char 0018                                     __end_of_dpowers 101A  
                                   __end_of_isdigit 14F3                                               fpbase 0008  
                 I2C_IO_Expander_Writer@I2C_Address 0072                                               pclath 000A  
                            ?_I2C_Master_Initialize 0020                                               status 0003  
                                 ??_LCD_data_sender 0078                                               wtemp0 007E  
                                   __end_of_sprintf 1000                           I2C_LCD_entry_mode@LCD_Obj 0022  
                                   __initialization 07D9                                        __end_of_main 0E0E  
                                    ?_I2C_LCD_clear 0022                                              ??_main 00DD  
             I2C_LCD_display_on_off_control@LCD_Obj 0022                         ?_I2C_SHT25_Temperature_Read 006E  
                    I2C_Master_Write@Master_Tx_Data 0071                     __size_of_I2C_IO_Expander_Writer 0017  
                                 ?_I2C_Master_Start 0070                                   ?_I2C_Master_Write 0070  
                                ??_I2C_Master_Start 0070                                  ??_I2C_Master_Write 0070  
                       I2C_LCD_init@I2C_LCD_Address 0029                                              _SSPADD 0093  
                                            _SSPCON 0014                                              _SSPBUF 0013  
                                  __end_of__fptable 0012                                    __end_of___xxtofl 0A3D  
                  ??_I2C_LCD_display_on_off_control 0027                     ?_I2C_LCD_display_on_off_control 0022  
                                            _RH_str 00A3                                      __CFG_PWRTE$OFF 0000  
                            LCD_data_sender@LCD_Obj 0074                  I2C_Master_Initialize@I2C_CKE_OnOff 0025  
                                         ??___fladd 0042                                              ___wmul 15DC  
                                         ??___fldiv 0056                                           ??___flmul 0028  
                                         ??___fltol 00CD                                           ??___lldiv 0078  
                                         ??___lwdiv 0074                                           ??___lwmod 007C  
                                            fptable 0003                                              fptotal 0008  
                                         ??_isdigit 0070                                  __size_of__Umul8_16 0027  
                          __size_of_LCD_send_commad 0017                                  fp__LCD_send_commad 000F  
                                         ??_sprintf 0025                                        ___xxtofl@arg 007A  
                                      ___xxtofl@exp 0079                                        ___xxtofl@val 0070  
                           __end_of__initialization 07FC                                 _I2C_Master_Send_ACK 14C3  
                             entry__LCD_send_commad 000F                                          ___fltol@f1 0068  
                            _I2C_IO_Expander_Writer 150A                             ??_I2C_Master_Check_Idle 0070  
                                   ??_I2C_LCD_clear 0024                                      __pcstackCOMMON 0070  
                                      __pidataBANK1 0800                                ?_I2C_Master_Send_ACK 0070  
                I2C_Master_Initialize@I2C_SMP_OnOff 0024                          __end_of_I2C_LCD_entry_mode 15A1  
                                      _Lcd_RS_State 00A2                                        _Lcd_RW_State 101A  
                                      sprintf@width 0030                                          __pbssBANK1 00A0  
                                 __end_of__Umul8_16 1628                                          __pmaintext 0C9E  
                      __end_of_I2C_Master_Send_NACK 14E1                                             ?___wmul 0070  
                   I2C_LCD_display_on_off_control@B 0026                     I2C_LCD_display_on_off_control@C 0025  
                   I2C_LCD_display_on_off_control@D 0024                          __end_of_I2C_LCD_set_cursor 179F  
                             ??_I2C_Master_Send_ACK 0070                   I2C_Master_Initialize@I2C_BaudRate 0020  
                                         ?___xxtofl 0070                                     _LCD_data_sender 179F  
                             I2C_LCD_set_cursor@row 0024                             ??_I2C_Master_Initialize 0026  
                                           _SSPCON2 0091                                             _SSPSTAT 0094  
                                        __stringtab 1000                                   ??_LCD_send_commad 0020  
                   _I2C_SHT25_Temperature_Read$1251 00D5                                             ___fladd 01F0  
                                           ___fldiv 0013                                             ___flmul 0478  
                                           ___fltol 08E7                                             ___lldiv 0804  
                                   __size_of___wmul 0025                                             ___lwdiv 1662  
                                           ___lwmod 1628                                             __ptext1 0E0E  
                                           __ptext2 14E1                                             __ptext3 15DC  
                                           __ptext4 1628                                             __ptext5 1662  
                                           __ptext6 149D                                             __ptext7 0B6C  
                                           __ptext8 0A3D                                             __ptext9 0983  
                     __size_of_I2C_LCD_write_string 0054                                             _dpowers 1010  
                        __end_of_I2C_LCD_write_char 1550                                             _isdigit 14E1  
                                        ??___xxtofl 0074                                       I2C_LCD_init@F 002B  
                                     I2C_LCD_init@N 002A                            __size_of_I2C_Master_Read 001D  
                          __size_of_I2C_Master_Stop 000E                                             _sprintf 0E0E  
                                           clrloop0 1496                                end_of_initialization 07FC  
                         __size_of_I2C_Master_Start 000E                           __size_of_I2C_Master_Write 0017  
                         I2C_LCD_set_cursor@LCD_Obj 0022                                     ___lldiv@divisor 0070  
                                   ___lldiv@counter 007D                            ??_Initial_Configurations 0070  
                         fp__I2C_IO_Expander_Writer 0009                                I2C_LCD_clear@LCD_Obj 0022  
I2C_SHT25_Relative_Humidity_Read@Measurement_Buffer 00D8                             __end_of_LCD_data_sender 1800  
                                       ___fladd@grs 004D                                       ___xxtofl@sign 0078  
                                         _TRISCbits 0087                                         ___fldiv@grs 0062  
                                       ___fldiv@rem 005B                                _I2C_Master_Send_NACK 14D2  
                           ?_I2C_IO_Expander_Writer 0072                                         ___flmul@grs 002E  
                       I2C_LCD_write_string@LCD_Obj 0022                              LCD_send_commad@LCD_Obj 007B  
                    __size_of_I2C_Master_Check_Idle 001B                       __end_of_I2C_Master_Check_Idle 1584  
                                 _p_LCD_data_sender 00E1                                      __end_of___wmul 1601  
                               start_initialization 07D9                               ?_I2C_Master_Send_NACK 0070  
                                     ?_I2C_LCD_init 0029                      __end_of_I2C_IO_Expander_Writer 1521  
                                _I2C_LCD_entry_mode 1584                                   ??_I2C_Master_Read 0070  
                                 ??_I2C_Master_Stop 0070                                 ?_I2C_LCD_entry_mode 0022  
                   __size_of_Initial_Configurations 000A                                            ??___wmul 0074  
                             __end_of_I2C_LCD_clear 1569                                           __Umul8_16 1601  
                                       __pdataBANK1 00E0                                    ?_LCD_data_sender 0074  
                               I2C_LCD_entry_mode@S 0025                                           ___fladd@a 003E  
                                         ___fladd@b 003A                                           ___fldiv@a 004E  
                                         ___fldiv@b 0052                                     _LCD_send_commad 1521  
                                         ___flmul@a 0024                                           ___flmul@b 0020  
                                         ___latbits 0002                                ??_I2C_LCD_entry_mode 0026  
                                     __pcstackBANK0 0020                                       __pcstackBANK1 00CD  
                                    ??_I2C_LCD_init 002C                                   __size_of__fptable 000F  
                                 __size_of___xxtofl 00BA                                        _isdigit$1033 0070  
                                _I2C_LCD_set_cursor 1749                      __size_of_I2C_Master_Initialize 004F  
                     __end_of_I2C_Master_Initialize 16F5                               I2C_LCD_write_char@chr 007D  
                                       sprintf@flag 002A                                         sprintf@prec 0029  
                               ?_I2C_LCD_set_cursor 0022                                    _I2C_Master_Start 14A7  
                                  _I2C_Master_Write 14F3                                  LCD_send_commad@cmd 007D  
                                  ___lwdiv@dividend 0072                         __end_of_I2C_Master_Send_ACK 14D2  
                                         __pfunctab 0003                                            ?___fladd 003A  
                                          ?___fldiv 004E                                            ?___flmul 0020  
                                          ?___fltol 0068                                            ?___lldiv 0070  
                                        ?__Umul8_16 0070                                            ?___lwdiv 0070  
                                          ?___lwmod 0078                                           __pstrings 1000  
                              ??_I2C_LCD_set_cursor 0026            __end_of_I2C_SHT25_Relative_Humidity_Read 0B6C  
         __size_of_I2C_SHT25_Relative_Humidity_Read 012F                   ?_I2C_SHT25_Relative_Humidity_Read 006E  
                ??_I2C_SHT25_Relative_Humidity_Read 00D2                    _I2C_SHT25_Relative_Humidity_Read 0A3D  
                    I2C_IO_Expander_Writer@I2C_Data 0073                        ??_I2C_SHT25_Temperature_Read 00D2  
                                          ?_isdigit 0070                              ??_I2C_Master_Send_NACK 0070  
                            _Initial_Configurations 149D                                    ___lwdiv@quotient 0075  
                             I2C_LCD_write_string@i 0027                                            ?_sprintf 0020  
                                _I2C_LCD_write_char 1538                                      ___wmul@product 0074  
                      __end_of_I2C_LCD_write_string 1749                                           clear_ram0 1495  
                                          _PIE1bits 008C                                            _PIR1bits 000C  
                               ?_I2C_LCD_write_char 007B                    LCD_data_sender@callback_function 0077  
               __size_of_I2C_SHT25_Temperature_Read 0132                             __end_of_LCD_send_commad 1538  
                                       __stringbase 100F                                   ___wmul@multiplier 0070  
                              ??_I2C_LCD_write_char 0020                            I2C_LCD_entry_mode@I_or_D 0024  
                                 _p_LCD_send_commad 00E0                                __end_of_I2C_LCD_init 08E7  
                                       ??__Umul8_16 0072                                    __size_of___fladd 0288  
                                  __size_of___fldiv 01DD                                    __size_of___flmul 0361  
                                  __size_of___fltol 009C                                    __size_of___lldiv 0066  
                                  __size_of___lwdiv 0044                                    __size_of___lwmod 003A  
                          _p_I2C_IO_Expander_Writer 00E2                                  __end_of__stringtab 1010  
                                        sprintf@len 002C                                          sprintf@val 002E  
                                          __fptable 0003                             I2C_LCD_write_string@str 0024  
                                   _I2C_Master_Read 15A1                                            ___xxtofl 0983  
                                   _I2C_Master_Stop 14B5                                    __size_of_isdigit 0012  
                                   ___lwdiv@divisor 0070                                     ___lwdiv@counter 0077  
                                          __ptext10 08E7                                            __ptext11 0478  
                                          __ptext20 16F5                                            __ptext12 1601  
                                          __ptext21 1538                                            __ptext13 0013  
                                          __ptext30 14F3                                            __ptext22 1749  
                                          __ptext14 01F0                                            __ptext31 14B5  
                                          __ptext23 086A                                            __ptext15 14D2  
                                          __ptext32 14A7                                            __ptext24 1584  
                                          __ptext16 14C3                                            __ptext33 1569  
                                          __ptext25 15BE                                            __ptext17 15A1  
                                          __ptext26 1550                                            __ptext18 16A6  
                                          __ptext27 1521                                            __ptext19 0804  
                                          __ptext28 179F                                            __ptext29 150A  
                                  __size_of_sprintf 01F2                                     _BackLight_State 00E3  
                                     __size_of_main 0170                                    ?_LCD_send_commad 007B  
                             _I2C_Master_Check_Idle 1569                  __end_of_I2C_SHT25_Temperature_Read 0C9E  
                        _I2C_SHT25_Temperature_Read 0B6C                                _I2C_LCD_write_string 16F5  
                          __end_of_I2C_Master_Start 14B5              __end_of_I2C_LCD_display_on_off_control 15DC  
           __size_of_I2C_LCD_display_on_off_control 001E                      _I2C_LCD_display_on_off_control 15BE  
                          __end_of_I2C_Master_Write 150A                                          _INTCONbits 000B  
      I2C_SHT25_Temperature_Read@Measurement_Buffer 00D9                                            isdigit@c 0071  
                           I2C_LCD_init@LCD_Obj_Add 002E                                 LCD_data_sender@data 0076  
                         I2C_LCD_write_char@LCD_Obj 007B                                           sprintf@ap 002B  
                                         sprintf@cp 0028                                           sprintf@sp 0032  
                                  ___lwmod@dividend 007A                                    ___lldiv@dividend 0074  
                                         stringcode 100A                             __end_of_I2C_Master_Read 15BE  
                           __end_of_I2C_Master_Stop 14C3                             ?_Initial_Configurations 0070  
                            __Umul8_16@multiplicand 0070                               ?_I2C_LCD_write_string 0022  
                                          sprintf@c 0033                                            sprintf@f 0020  
             _I2C_SHT25_Relative_Humidity_Read$1252 00D4                                    ___lldiv@quotient 0079  
                                   ___lwmod@divisor 0078                                     ___lwmod@counter 007D  
                                          stringdir 100A                                            stringtab 1000  
                          I2C_LCD_set_cursor@colomn 0025                         __size_of_I2C_LCD_entry_mode 001D  
                          __size_of_LCD_data_sender 0061                                         _SSPCON2bits 0091  
                                fp__LCD_data_sender 000C                                       ___fladd@signs 004A  
                            __size_of_I2C_LCD_clear 0019                                        ___fladd@aexp 004B  
                                      ___fladd@bexp 004C                                __Umul8_16@multiplier 0078  
                             _I2C_Master_Initialize 16A6                               __size_of_I2C_LCD_init 007D  
                                        _SSPCONbits 0014                               entry__LCD_data_sender 000C  
                                 __Umul8_16@product 0074  
