

Microchip MPLAB XC8 Assembler V2.10 build 88905656 
                                                                                               Thu Apr 08 23:30:10 2021

Microchip MPLAB XC8 C Compiler v2.10 (Free license) build 20190730164152 Og1 
     1                           	processor	16F877A
     2                           	opt	pw 120
     3                           	opt	flic
     4                           	psect	idataBANK0,global,class=CODE,delta=2
     5                           	psect	idataBANK1,global,class=CODE,delta=2
     6                           	psect	strings,global,class=STRING,delta=2
     7                           	psect	cinit,global,class=CODE,merge=1,delta=2
     8                           	psect	bssBANK0,global,class=BANK0,space=1,delta=1
     9                           	psect	dataBANK0,global,class=BANK0,space=1,delta=1
    10                           	psect	dataBANK1,global,class=BANK1,space=1,delta=1
    11                           	psect	inittext,global,class=CODE,delta=2
    12                           	psect	clrtext,global,class=CODE,delta=2
    13                           	psect	cstackCOMMON,global,class=COMMON,space=1,delta=1
    14                           	psect	cstackBANK0,global,class=BANK0,space=1,delta=1
    15                           	psect	maintext,global,class=CODE,split=1,delta=2
    16                           	psect	text1,local,class=CODE,merge=1,delta=2
    17                           	psect	text2,local,class=CODE,merge=1,delta=2,group=1
    18                           	psect	text3,local,class=CODE,merge=1,delta=2,group=1
    19                           	psect	text4,local,class=CODE,merge=1,delta=2
    20                           	psect	text5,local,class=CODE,merge=1,delta=2
    21                           	psect	text6,local,class=CODE,merge=1,delta=2,group=1
    22                           	psect	text7,local,class=CODE,merge=1,delta=2
    23                           	psect	text8,local,class=CODE,merge=1,delta=2
    24                           	psect	text9,local,class=CODE,merge=1,delta=2
    25                           	psect	text10,local,class=CODE,merge=1,delta=2
    26                           	psect	text11,local,class=CODE,merge=1,delta=2
    27                           	psect	text12,local,class=CODE,merge=1,delta=2
    28                           	psect	text13,local,class=CODE,merge=1,delta=2
    29                           	psect	text14,local,class=CODE,merge=1,delta=2
    30                           	psect	text15,local,class=CODE,merge=1,delta=2
    31                           	psect	text16,local,class=CODE,merge=1,delta=2
    32                           	psect	text17,local,class=CODE,merge=1,delta=2
    33                           	psect	text18,local,class=CODE,merge=1,delta=2
    34                           	psect	text19,local,class=CODE,merge=1,delta=2
    35                           	psect	text20,local,class=CODE,merge=1,delta=2
    36                           	psect	text21,local,class=CODE,merge=1,delta=2
    37                           	psect	text22,local,class=CODE,merge=1,delta=2
    38                           	psect	text23,local,class=CODE,merge=1,delta=2
    39                           	psect	text24,local,class=CODE,merge=1,delta=2
    40                           	psect	text25,local,class=CODE,merge=1,delta=2
    41                           	psect	text26,local,class=CODE,merge=1,delta=2
    42                           	psect	text27,local,class=CODE,merge=1,inline,delta=2
    43                           	psect	functab,global,class=ENTRY,delta=2
    44                           	dabs	1,0x7E,2
    45  0000                     
    46                           ; Version 2.10
    47                           ; Generated 31/07/2019 GMT
    48                           ; 
    49                           ; Copyright © 2019, Microchip Technology Inc. and its subsidiaries ("Microchip")
    50                           ; All rights reserved.
    51                           ; 
    52                           ; This software is developed by Microchip Technology Inc. and its subsidiaries ("Microch
      +                          ip").
    53                           ; 
    54                           ; Redistribution and use in source and binary forms, with or without modification, are
    55                           ; permitted provided that the following conditions are met:
    56                           ; 
    57                           ;     1. Redistributions of source code must retain the above copyright notice, this lis
      +                          t of
    58                           ;        conditions and the following disclaimer.
    59                           ; 
    60                           ;     2. Redistributions in binary form must reproduce the above copyright notice, this 
      +                          list
    61                           ;        of conditions and the following disclaimer in the documentation and/or other
    62                           ;        materials provided with the distribution.
    63                           ; 
    64                           ;     3. Microchip's name may not be used to endorse or promote products derived from th
      +                          is
    65                           ;        software without specific prior written permission.
    66                           ; 
    67                           ; THIS SOFTWARE IS PROVIDED BY MICROCHIP "AS IS" AND ANY EXPRESS OR IMPLIED WARRANTIES,
    68                           ; INCLUDING, BUT NOT LIMITED TO, THE IMPLIED WARRANTIES OF MERCHANTABILITY AND FITNESS F
      +                          OR
    69                           ; PURPOSE ARE DISCLAIMED.  IN NO EVENT SHALL MICROCHIP BE LIABLE FOR ANY DIRECT, INDIREC
      +                          T,
    70                           ; INCIDENTAL, SPECIAL, EXEMPLARY, OR CONSEQUENTIAL DAMAGES (INCLUDING BUT NOT LIMITED TO
    71                           ; PROCUREMENT OF SUBSTITUTE GOODS OR SERVICES; LOSS OF USE, DATA OR PROFITS; OR BUSINESS
    72                           ; INTERRUPTION) HOWSOEVER CAUSED AND ON ANY THEORY OF LIABILITY, WHETHER IN CONTRACT, ST
      +                          RICT
    73                           ; LIABILITY, OR TORT (INCLUDING NEGLIGENCE OR OTHERWISE) ARISING IN ANY WAY OUT OF THE U
      +                          SE OF
    74                           ; THIS SOFTWARE, EVEN IF ADVISED OF THE POSSIBILITY OF SUCH DAMAGE.
    75                           ; 
    76                           ; 
    77                           ; Code-generator required, PIC16F877A Definitions
    78                           ; 
    79                           ; SFR Addresses
    80  0000                     	;# 
    81  0001                     	;# 
    82  0002                     	;# 
    83  0003                     	;# 
    84  0004                     	;# 
    85  0005                     	;# 
    86  0006                     	;# 
    87  0007                     	;# 
    88  0008                     	;# 
    89  0009                     	;# 
    90  000A                     	;# 
    91  000B                     	;# 
    92  000C                     	;# 
    93  000D                     	;# 
    94  000E                     	;# 
    95  000E                     	;# 
    96  000F                     	;# 
    97  0010                     	;# 
    98  0011                     	;# 
    99  0012                     	;# 
   100  0013                     	;# 
   101  0014                     	;# 
   102  0015                     	;# 
   103  0015                     	;# 
   104  0016                     	;# 
   105  0017                     	;# 
   106  0018                     	;# 
   107  0019                     	;# 
   108  001A                     	;# 
   109  001B                     	;# 
   110  001B                     	;# 
   111  001C                     	;# 
   112  001D                     	;# 
   113  001E                     	;# 
   114  001F                     	;# 
   115  0081                     	;# 
   116  0085                     	;# 
   117  0086                     	;# 
   118  0087                     	;# 
   119  0088                     	;# 
   120  0089                     	;# 
   121  008C                     	;# 
   122  008D                     	;# 
   123  008E                     	;# 
   124  0091                     	;# 
   125  0092                     	;# 
   126  0093                     	;# 
   127  0094                     	;# 
   128  0098                     	;# 
   129  0099                     	;# 
   130  009C                     	;# 
   131  009D                     	;# 
   132  009E                     	;# 
   133  009F                     	;# 
   134  010C                     	;# 
   135  010D                     	;# 
   136  010E                     	;# 
   137  010F                     	;# 
   138  018C                     	;# 
   139  018D                     	;# 
   140  0000                     	;# 
   141  0001                     	;# 
   142  0002                     	;# 
   143  0003                     	;# 
   144  0004                     	;# 
   145  0005                     	;# 
   146  0006                     	;# 
   147  0007                     	;# 
   148  0008                     	;# 
   149  0009                     	;# 
   150  000A                     	;# 
   151  000B                     	;# 
   152  000C                     	;# 
   153  000D                     	;# 
   154  000E                     	;# 
   155  000E                     	;# 
   156  000F                     	;# 
   157  0010                     	;# 
   158  0011                     	;# 
   159  0012                     	;# 
   160  0013                     	;# 
   161  0014                     	;# 
   162  0015                     	;# 
   163  0015                     	;# 
   164  0016                     	;# 
   165  0017                     	;# 
   166  0018                     	;# 
   167  0019                     	;# 
   168  001A                     	;# 
   169  001B                     	;# 
   170  001B                     	;# 
   171  001C                     	;# 
   172  001D                     	;# 
   173  001E                     	;# 
   174  001F                     	;# 
   175  0081                     	;# 
   176  0085                     	;# 
   177  0086                     	;# 
   178  0087                     	;# 
   179  0088                     	;# 
   180  0089                     	;# 
   181  008C                     	;# 
   182  008D                     	;# 
   183  008E                     	;# 
   184  0091                     	;# 
   185  0092                     	;# 
   186  0093                     	;# 
   187  0094                     	;# 
   188  0098                     	;# 
   189  0099                     	;# 
   190  009C                     	;# 
   191  009D                     	;# 
   192  009E                     	;# 
   193  009F                     	;# 
   194  010C                     	;# 
   195  010D                     	;# 
   196  010E                     	;# 
   197  010F                     	;# 
   198  018C                     	;# 
   199  018D                     	;# 
   200  0000                     	;# 
   201  0001                     	;# 
   202  0002                     	;# 
   203  0003                     	;# 
   204  0004                     	;# 
   205  0005                     	;# 
   206  0006                     	;# 
   207  0007                     	;# 
   208  0008                     	;# 
   209  0009                     	;# 
   210  000A                     	;# 
   211  000B                     	;# 
   212  000C                     	;# 
   213  000D                     	;# 
   214  000E                     	;# 
   215  000E                     	;# 
   216  000F                     	;# 
   217  0010                     	;# 
   218  0011                     	;# 
   219  0012                     	;# 
   220  0013                     	;# 
   221  0014                     	;# 
   222  0015                     	;# 
   223  0015                     	;# 
   224  0016                     	;# 
   225  0017                     	;# 
   226  0018                     	;# 
   227  0019                     	;# 
   228  001A                     	;# 
   229  001B                     	;# 
   230  001B                     	;# 
   231  001C                     	;# 
   232  001D                     	;# 
   233  001E                     	;# 
   234  001F                     	;# 
   235  0081                     	;# 
   236  0085                     	;# 
   237  0086                     	;# 
   238  0087                     	;# 
   239  0088                     	;# 
   240  0089                     	;# 
   241  008C                     	;# 
   242  008D                     	;# 
   243  008E                     	;# 
   244  0091                     	;# 
   245  0092                     	;# 
   246  0093                     	;# 
   247  0094                     	;# 
   248  0098                     	;# 
   249  0099                     	;# 
   250  009C                     	;# 
   251  009D                     	;# 
   252  009E                     	;# 
   253  009F                     	;# 
   254  010C                     	;# 
   255  010D                     	;# 
   256  010E                     	;# 
   257  010F                     	;# 
   258  018C                     	;# 
   259  018D                     	;# 
   260  0000                     	;# 
   261  0001                     	;# 
   262  0002                     	;# 
   263  0003                     	;# 
   264  0004                     	;# 
   265  0005                     	;# 
   266  0006                     	;# 
   267  0007                     	;# 
   268  0008                     	;# 
   269  0009                     	;# 
   270  000A                     	;# 
   271  000B                     	;# 
   272  000C                     	;# 
   273  000D                     	;# 
   274  000E                     	;# 
   275  000E                     	;# 
   276  000F                     	;# 
   277  0010                     	;# 
   278  0011                     	;# 
   279  0012                     	;# 
   280  0013                     	;# 
   281  0014                     	;# 
   282  0015                     	;# 
   283  0015                     	;# 
   284  0016                     	;# 
   285  0017                     	;# 
   286  0018                     	;# 
   287  0019                     	;# 
   288  001A                     	;# 
   289  001B                     	;# 
   290  001B                     	;# 
   291  001C                     	;# 
   292  001D                     	;# 
   293  001E                     	;# 
   294  001F                     	;# 
   295  0081                     	;# 
   296  0085                     	;# 
   297  0086                     	;# 
   298  0087                     	;# 
   299  0088                     	;# 
   300  0089                     	;# 
   301  008C                     	;# 
   302  008D                     	;# 
   303  008E                     	;# 
   304  0091                     	;# 
   305  0092                     	;# 
   306  0093                     	;# 
   307  0094                     	;# 
   308  0098                     	;# 
   309  0099                     	;# 
   310  009C                     	;# 
   311  009D                     	;# 
   312  009E                     	;# 
   313  009F                     	;# 
   314  010C                     	;# 
   315  010D                     	;# 
   316  010E                     	;# 
   317  010F                     	;# 
   318  018C                     	;# 
   319  018D                     	;# 
   320  0000                     	;# 
   321  0001                     	;# 
   322  0002                     	;# 
   323  0003                     	;# 
   324  0004                     	;# 
   325  0005                     	;# 
   326  0006                     	;# 
   327  0007                     	;# 
   328  0008                     	;# 
   329  0009                     	;# 
   330  000A                     	;# 
   331  000B                     	;# 
   332  000C                     	;# 
   333  000D                     	;# 
   334  000E                     	;# 
   335  000E                     	;# 
   336  000F                     	;# 
   337  0010                     	;# 
   338  0011                     	;# 
   339  0012                     	;# 
   340  0013                     	;# 
   341  0014                     	;# 
   342  0015                     	;# 
   343  0015                     	;# 
   344  0016                     	;# 
   345  0017                     	;# 
   346  0018                     	;# 
   347  0019                     	;# 
   348  001A                     	;# 
   349  001B                     	;# 
   350  001B                     	;# 
   351  001C                     	;# 
   352  001D                     	;# 
   353  001E                     	;# 
   354  001F                     	;# 
   355  0081                     	;# 
   356  0085                     	;# 
   357  0086                     	;# 
   358  0087                     	;# 
   359  0088                     	;# 
   360  0089                     	;# 
   361  008C                     	;# 
   362  008D                     	;# 
   363  008E                     	;# 
   364  0091                     	;# 
   365  0092                     	;# 
   366  0093                     	;# 
   367  0094                     	;# 
   368  0098                     	;# 
   369  0099                     	;# 
   370  009C                     	;# 
   371  009D                     	;# 
   372  009E                     	;# 
   373  009F                     	;# 
   374  010C                     	;# 
   375  010D                     	;# 
   376  010E                     	;# 
   377  010F                     	;# 
   378  018C                     	;# 
   379  018D                     	;# 
   380  0000                     	;# 
   381  0001                     	;# 
   382  0002                     	;# 
   383  0003                     	;# 
   384  0004                     	;# 
   385  0005                     	;# 
   386  0006                     	;# 
   387  0007                     	;# 
   388  0008                     	;# 
   389  0009                     	;# 
   390  000A                     	;# 
   391  000B                     	;# 
   392  000C                     	;# 
   393  000D                     	;# 
   394  000E                     	;# 
   395  000E                     	;# 
   396  000F                     	;# 
   397  0010                     	;# 
   398  0011                     	;# 
   399  0012                     	;# 
   400  0013                     	;# 
   401  0014                     	;# 
   402  0015                     	;# 
   403  0015                     	;# 
   404  0016                     	;# 
   405  0017                     	;# 
   406  0018                     	;# 
   407  0019                     	;# 
   408  001A                     	;# 
   409  001B                     	;# 
   410  001B                     	;# 
   411  001C                     	;# 
   412  001D                     	;# 
   413  001E                     	;# 
   414  001F                     	;# 
   415  0081                     	;# 
   416  0085                     	;# 
   417  0086                     	;# 
   418  0087                     	;# 
   419  0088                     	;# 
   420  0089                     	;# 
   421  008C                     	;# 
   422  008D                     	;# 
   423  008E                     	;# 
   424  0091                     	;# 
   425  0092                     	;# 
   426  0093                     	;# 
   427  0094                     	;# 
   428  0098                     	;# 
   429  0099                     	;# 
   430  009C                     	;# 
   431  009D                     	;# 
   432  009E                     	;# 
   433  009F                     	;# 
   434  010C                     	;# 
   435  010D                     	;# 
   436  010E                     	;# 
   437  010F                     	;# 
   438  018C                     	;# 
   439  018D                     	;# 
   440  0000                     	;# 
   441  0001                     	;# 
   442  0002                     	;# 
   443  0003                     	;# 
   444  0004                     	;# 
   445  0005                     	;# 
   446  0006                     	;# 
   447  0007                     	;# 
   448  0008                     	;# 
   449  0009                     	;# 
   450  000A                     	;# 
   451  000B                     	;# 
   452  000C                     	;# 
   453  000D                     	;# 
   454  000E                     	;# 
   455  000E                     	;# 
   456  000F                     	;# 
   457  0010                     	;# 
   458  0011                     	;# 
   459  0012                     	;# 
   460  0013                     	;# 
   461  0014                     	;# 
   462  0015                     	;# 
   463  0015                     	;# 
   464  0016                     	;# 
   465  0017                     	;# 
   466  0018                     	;# 
   467  0019                     	;# 
   468  001A                     	;# 
   469  001B                     	;# 
   470  001B                     	;# 
   471  001C                     	;# 
   472  001D                     	;# 
   473  001E                     	;# 
   474  001F                     	;# 
   475  0081                     	;# 
   476  0085                     	;# 
   477  0086                     	;# 
   478  0087                     	;# 
   479  0088                     	;# 
   480  0089                     	;# 
   481  008C                     	;# 
   482  008D                     	;# 
   483  008E                     	;# 
   484  0091                     	;# 
   485  0092                     	;# 
   486  0093                     	;# 
   487  0094                     	;# 
   488  0098                     	;# 
   489  0099                     	;# 
   490  009C                     	;# 
   491  009D                     	;# 
   492  009E                     	;# 
   493  009F                     	;# 
   494  010C                     	;# 
   495  010D                     	;# 
   496  010E                     	;# 
   497  010F                     	;# 
   498  018C                     	;# 
   499  018D                     	;# 
   500                           
   501                           	psect	idataBANK0
   502  009F                     __pidataBANK0:	
   503                           
   504                           ;initializer for _p_LCD_send_commad
   505  009F  3407               	retlw	low (fp__LCD_send_commad-fpbase)
   506                           
   507                           ;initializer for _p_LCD_data_sender
   508  00A0  3404               	retlw	low (fp__LCD_data_sender-fpbase)
   509                           
   510                           ;initializer for _p_I2C_IO_Expander_Writer
   511  00A1  3401               	retlw	low (fp__I2C_IO_Expander_Writer-fpbase)
   512                           
   513                           ;initializer for _BackLight_State
   514  00A2  3408               	retlw	8
   515                           
   516                           	psect	idataBANK1
   517  0E56                     __pidataBANK1:	
   518                           
   519                           ;initializer for _writer_data_buffer
   520  0E56  3430               	retlw	48
   521  0E57  3431               	retlw	49
   522  0E58  3432               	retlw	50
   523  0E59  3433               	retlw	51
   524  0E5A  3434               	retlw	52
   525  0E5B  3435               	retlw	53
   526  0E5C  3436               	retlw	54
   527  0E5D  3437               	retlw	55
   528  0E5E  3438               	retlw	56
   529  0E5F  3439               	retlw	57
   530  0E60  3441               	retlw	65
   531  0E61  3442               	retlw	66
   532  0E62  3443               	retlw	67
   533  0E63  3444               	retlw	68
   534  0E64  3445               	retlw	69
   535  0E65  3446               	retlw	70
   536  0E66  3430               	retlw	48
   537  0E67  3431               	retlw	49
   538  0E68  3432               	retlw	50
   539  0E69  3433               	retlw	51
   540  0E6A  3434               	retlw	52
   541  0E6B  3435               	retlw	53
   542  0E6C  3436               	retlw	54
   543  0E6D  3437               	retlw	55
   544  0E6E  3438               	retlw	56
   545  0E6F  3439               	retlw	57
   546  0E70  3441               	retlw	65
   547  0E71  3442               	retlw	66
   548  0E72  3443               	retlw	67
   549  0E73  3444               	retlw	68
   550  0E74  3445               	retlw	69
   551  0E75  3446               	retlw	70
   552  0E76  3400               	retlw	0
   553                           
   554                           	psect	strings
   555  0012                     __pstrings:	
   556  0012                     stringtab:	
   557  0012                     __stringtab:	
   558                           
   559                           ;	String table - string pointers are 1 byte each
   560  0012  1BFF               	btfsc	btemp+1,7
   561  0013  281C               	ljmp	stringcode
   562  0014  1383               	bcf	3,7
   563  0015  187F               	btfsc	btemp+1,0
   564  0016  1783               	bsf	3,7
   565  0017  0800               	movf	0,w
   566  0018  0A84               	incf	4,f
   567  0019  1903               	skipnz
   568  001A  0AFF               	incf	btemp+1,f
   569  001B  0008               	return
   570  001C                     stringcode:	
   571  001C                     stringdir:	
   572  001C  3000               	movlw	high stringdir
   573  001D  008A               	movwf	10
   574  001E  0804               	movf	4,w
   575  001F  0A84               	incf	4,f
   576  0020  0782               	addwf	2,f
   577  0021                     __stringbase:	
   578  0021  3400               	retlw	0
   579  0022                     __end_of__stringtab:	
   580  0022                     _dpowers:	
   581  0022  3401               	retlw	1
   582  0023  3400               	retlw	0
   583  0024  340A               	retlw	10
   584  0025  3400               	retlw	0
   585  0026  3464               	retlw	100
   586  0027  3400               	retlw	0
   587  0028  34E8               	retlw	232
   588  0029  3403               	retlw	3
   589  002A  3410               	retlw	16
   590  002B  3427               	retlw	39
   591  002C                     __end_of_dpowers:	
   592  002C                     _Lcd_RW_State:	
   593  002C  3400               	retlw	0
   594  002D                     __end_of_Lcd_RW_State:	
   595  000C                     _PIR1bits	set	12
   596  0014                     _SSPCONbits	set	20
   597  0013                     _SSPBUF	set	19
   598  0014                     _SSPCON	set	20
   599  0006                     _PORTB	set	6
   600  000B                     _INTCONbits	set	11
   601  0006                     _PORTBbits	set	6
   602  008C                     _PIE1bits	set	140
   603  0091                     _SSPCON2bits	set	145
   604  0094                     _SSPSTATbits	set	148
   605  0087                     _TRISCbits	set	135
   606  0093                     _SSPADD	set	147
   607  0091                     _SSPCON2	set	145
   608  0094                     _SSPSTAT	set	148
   609  0086                     _TRISB	set	134
   610  002D                     STR_3:	
   611  002D  3449               	retlw	73	;'I'
   612  002E  3432               	retlw	50	;'2'
   613  002F  3443               	retlw	67	;'C'
   614  0030  3420               	retlw	32	;' '
   615  0031  3445               	retlw	69	;'E'
   616  0032  3445               	retlw	69	;'E'
   617  0033  3450               	retlw	80	;'P'
   618  0034  3452               	retlw	82	;'R'
   619  0035  344F               	retlw	79	;'O'
   620  0036  344D               	retlw	77	;'M'
   621  0037  3420               	retlw	32	;' '
   622  0038  3457               	retlw	87	;'W'
   623  0039  3452               	retlw	82	;'R'
   624  003A  3449               	retlw	73	;'I'
   625  003B  3454               	retlw	84	;'T'
   626  003C  3445               	retlw	69	;'E'
   627  003D  3444               	retlw	68	;'D'
   628  003E  342E               	retlw	46	;'.'
   629  003F  3420               	retlw	32	;' '
   630  0040  3420               	retlw	32	;' '
   631  0041  3400               	retlw	0
   632  0042                     STR_2:	
   633  0042  3449               	retlw	73	;'I'
   634  0043  3432               	retlw	50	;'2'
   635  0044  3443               	retlw	67	;'C'
   636  0045  3420               	retlw	32	;' '
   637  0046  3445               	retlw	69	;'E'
   638  0047  3445               	retlw	69	;'E'
   639  0048  3450               	retlw	80	;'P'
   640  0049  3452               	retlw	82	;'R'
   641  004A  344F               	retlw	79	;'O'
   642  004B  344D               	retlw	77	;'M'
   643  004C  3420               	retlw	32	;' '
   644  004D  3457               	retlw	87	;'W'
   645  004E  3452               	retlw	82	;'R'
   646  004F  3449               	retlw	73	;'I'
   647  0050  3454               	retlw	84	;'T'
   648  0051  3449               	retlw	73	;'I'
   649  0052  344E               	retlw	78	;'N'
   650  0053  3447               	retlw	71	;'G'
   651  0054  342E               	retlw	46	;'.'
   652  0055  342E               	retlw	46	;'.'
   653  0056  3400               	retlw	0
   654  0057                     STR_6:	
   655  0057  3445               	retlw	69	;'E'
   656  0058  3452               	retlw	82	;'R'
   657  0059  3441               	retlw	65	;'A'
   658  005A  3453               	retlw	83	;'S'
   659  005B  3445               	retlw	69	;'E'
   660  005C  3444               	retlw	68	;'D'
   661  005D  3420               	retlw	32	;' '
   662  005E  3443               	retlw	67	;'C'
   663  005F  344F               	retlw	79	;'O'
   664  0060  344D               	retlw	77	;'M'
   665  0061  3450               	retlw	80	;'P'
   666  0062  344C               	retlw	76	;'L'
   667  0063  3445               	retlw	69	;'E'
   668  0064  3454               	retlw	84	;'T'
   669  0065  3445               	retlw	69	;'E'
   670  0066  3444               	retlw	68	;'D'
   671  0067  342E               	retlw	46	;'.'
   672  0068  3400               	retlw	0
   673  0069                     STR_1:	
   674  0069  344C               	retlw	76	;'L'
   675  006A  3443               	retlw	67	;'C'
   676  006B  3444               	retlw	68	;'D'
   677  006C  3431               	retlw	49	;'1'
   678  006D  3420               	retlw	32	;' '
   679  006E  3449               	retlw	73	;'I'
   680  006F  344E               	retlw	78	;'N'
   681  0070  3449               	retlw	73	;'I'
   682  0071  3454               	retlw	84	;'T'
   683  0072  3449               	retlw	73	;'I'
   684  0073  3441               	retlw	65	;'A'
   685  0074  344C               	retlw	76	;'L'
   686  0075  3449               	retlw	73	;'I'
   687  0076  345A               	retlw	90	;'Z'
   688  0077  3445               	retlw	69	;'E'
   689  0078  3444               	retlw	68	;'D'
   690  0079  3400               	retlw	0
   691  007A                     STR_4:	
   692  007A  3445               	retlw	69	;'E'
   693  007B  3445               	retlw	69	;'E'
   694  007C  3450               	retlw	80	;'P'
   695  007D  3452               	retlw	82	;'R'
   696  007E  344F               	retlw	79	;'O'
   697  007F  344D               	retlw	77	;'M'
   698  0080  3420               	retlw	32	;' '
   699  0081  3450               	retlw	80	;'P'
   700  0082  3441               	retlw	65	;'A'
   701  0083  3447               	retlw	71	;'G'
   702  0084  3445               	retlw	69	;'E'
   703  0085  343A               	retlw	58	;':'
   704  0086  3400               	retlw	0
   705  0087                     STR_5:	
   706  0087  3445               	retlw	69	;'E'
   707  0088  3452               	retlw	82	;'R'
   708  0089  3441               	retlw	65	;'A'
   709  008A  3453               	retlw	83	;'S'
   710  008B  3449               	retlw	73	;'I'
   711  008C  344E               	retlw	78	;'N'
   712  008D  3447               	retlw	71	;'G'
   713  008E  342E               	retlw	46	;'.'
   714  008F  342E               	retlw	46	;'.'
   715  0090  3400               	retlw	0
   716  0091                     STR_9:	
   717  0091  3420               	retlw	32	;' '
   718  0092  3430               	retlw	48	;'0'
   719  0093  342E               	retlw	46	;'.'
   720  0094  3400               	retlw	0
   721  0095                     STR_10:	
   722  0095  3431               	retlw	49	;'1'
   723  0096  3436               	retlw	54	;'6'
   724  0097  342E               	retlw	46	;'.'
   725  0098  3400               	retlw	0
   726  0099                     STR_7:	
   727  0099  3425               	retlw	37	;'%'
   728  009A  3464               	retlw	100	;'d'
   729  009B  3400               	retlw	0
   730  007A                     
   731                           ; #config settings
   732  0000                     
   733                           	psect	cinit
   734  07D9                     start_initialization:	
   735  07D9                     __initialization:	
   736                           
   737                           ; Initialize objects allocated to BANK1
   738  07D9  1383               	bcf	3,7	;select IRP bank0
   739  07DA  30C1               	movlw	low (__pdataBANK1+33)
   740  07DB  00FD               	movwf	btemp+-1
   741  07DC  300E               	movlw	high __pidataBANK1
   742  07DD  00FE               	movwf	btemp
   743  07DE  3056               	movlw	low __pidataBANK1
   744  07DF  00FF               	movwf	btemp+1
   745  07E0  30A0               	movlw	low __pdataBANK1
   746  07E1  0084               	movwf	4
   747  07E2  120A  158A  2562  120A  118A  	fcall	init_ram0
   748                           
   749                           ; Initialize objects allocated to BANK0
   750  07E7  306A               	movlw	low (__pdataBANK0+4)
   751  07E8  00FD               	movwf	btemp+-1
   752  07E9  3000               	movlw	high __pidataBANK0
   753  07EA  00FE               	movwf	btemp
   754  07EB  309F               	movlw	low __pidataBANK0
   755  07EC  00FF               	movwf	btemp+1
   756  07ED  3066               	movlw	low __pdataBANK0
   757  07EE  0084               	movwf	4
   758  07EF  120A  158A  2562  120A  118A  	fcall	init_ram0
   759                           
   760                           ; Clear objects allocated to BANK0
   761  07F4  3020               	movlw	low __pbssBANK0
   762  07F5  0084               	movwf	4
   763  07F6  3049               	movlw	low (__pbssBANK0+41)
   764  07F7  120A  158A  2504  120A  118A  	fcall	clear_ram0
   765  07FC                     end_of_initialization:	
   766                           ;End of C runtime variable initialization code
   767                           
   768  07FC                     __end_of__initialization:	
   769  07FC  0183               	clrf	3
   770  07FD  120A  118A  2C10   	ljmp	_main	;jump to C main() function
   771                           
   772                           	psect	bssBANK0
   773  0020                     __pbssBANK0:	
   774  0020                     _counter:	
   775  0020                     	ds	2
   776  0022                     _EE_Add:	
   777  0022                     	ds	2
   778  0024                     _Lcd_RS_State:	
   779  0024                     	ds	1
   780  0025                     _reader_data_buffer_L:	
   781  0025                     	ds	17
   782  0036                     _reader_data_buffer_H:	
   783  0036                     	ds	17
   784  0047                     _LCD1:	
   785  0047                     	ds	2
   786                           
   787                           	psect	dataBANK0
   788  0066                     __pdataBANK0:	
   789  0066                     _p_LCD_send_commad:	
   790  0066                     	ds	1
   791  0067                     _p_LCD_data_sender:	
   792  0067                     	ds	1
   793  0068                     _p_I2C_IO_Expander_Writer:	
   794  0068                     	ds	1
   795  0069                     _BackLight_State:	
   796  0069                     	ds	1
   797                           
   798                           	psect	dataBANK1
   799  00A0                     __pdataBANK1:	
   800  00A0                     _writer_data_buffer:	
   801  00A0                     	ds	33
   802                           
   803                           	psect	inittext
   804  0D5E                     init_fetch0:	
   805                           ;	Called with low address in FSR and high address in W
   806                           
   807  0D5E  087E               	movf	btemp,w
   808  0D5F  008A               	movwf	10
   809  0D60  087F               	movf	btemp+1,w
   810  0D61  0082               	movwf	2
   811  0D62                     init_ram0:	
   812                           ;Called with:
   813                           ;	high address of idata address in btemp 
   814                           ;	low address of idata address in btemp+1 
   815                           ;	low address of data in FSR
   816                           ;	high address + 1 of data in btemp-1
   817                           
   818  0D62  120A  158A  255E  120A  158A  	fcall	init_fetch0
   819  0D67  0080               	movwf	0
   820  0D68  0A84               	incf	4,f
   821  0D69  0804               	movf	4,w
   822  0D6A  067D               	xorwf	btemp+-1,w
   823  0D6B  1903               	btfsc	3,2
   824  0D6C  3400               	retlw	0
   825  0D6D  0AFF               	incf	btemp+1,f
   826  0D6E  1903               	btfsc	3,2
   827  0D6F  0AFE               	incf	btemp,f
   828  0D70  2D62               	goto	init_ram0
   829                           
   830                           	psect	clrtext
   831  0D04                     clear_ram0:	
   832                           ;	Called with FSR containing the base address, and
   833                           ;	W with the last address+1
   834                           
   835  0D04  0064               	clrwdt	;clear the watchdog before getting into this loop
   836  0D05                     clrloop0:	
   837  0D05  0180               	clrf	0	;clear RAM location pointed to by FSR
   838  0D06  0A84               	incf	4,f	;increment pointer
   839  0D07  0604               	xorwf	4,w	;XOR with final address
   840  0D08  1903               	btfsc	3,2	;have we reached the end yet?
   841  0D09  3400               	retlw	0	;all done for this memory range, return
   842  0D0A  0604               	xorwf	4,w	;XOR again to restore value
   843  0D0B  2D05               	goto	clrloop0	;do the next byte
   844                           
   845                           	psect	cstackCOMMON
   846  0070                     __pcstackCOMMON:	
   847  0070                     ?_Initial_Configurations:	
   848  0070                     ??_Initial_Configurations:	
   849                           ; 1 bytes @ 0x0
   850                           
   851  0070                     ?_main:	
   852                           ; 1 bytes @ 0x0
   853                           
   854  0070                     ?_I2C_Master_Check_Idle:	
   855                           ; 1 bytes @ 0x0
   856                           
   857  0070                     ??_I2C_Master_Check_Idle:	
   858                           ; 1 bytes @ 0x0
   859                           
   860  0070                     ?_I2C_Master_Start:	
   861                           ; 1 bytes @ 0x0
   862                           
   863  0070                     ??_I2C_Master_Start:	
   864                           ; 1 bytes @ 0x0
   865                           
   866  0070                     ?_I2C_Master_RepeatedStart:	
   867                           ; 1 bytes @ 0x0
   868                           
   869  0070                     ??_I2C_Master_RepeatedStart:	
   870                           ; 1 bytes @ 0x0
   871                           
   872  0070                     ?_I2C_Master_Stop:	
   873                           ; 1 bytes @ 0x0
   874                           
   875  0070                     ??_I2C_Master_Stop:	
   876                           ; 1 bytes @ 0x0
   877                           
   878  0070                     ?_I2C_Master_Send_ACK:	
   879                           ; 1 bytes @ 0x0
   880                           
   881  0070                     ??_I2C_Master_Send_ACK:	
   882                           ; 1 bytes @ 0x0
   883                           
   884  0070                     ?_I2C_Master_Send_NACK:	
   885                           ; 1 bytes @ 0x0
   886                           
   887  0070                     ??_I2C_Master_Send_NACK:	
   888                           ; 1 bytes @ 0x0
   889                           
   890  0070                     ?_I2C_Master_Write:	
   891                           ; 1 bytes @ 0x0
   892                           
   893  0070                     ??_I2C_Master_Write:	
   894                           ; 1 bytes @ 0x0
   895                           
   896  0070                     ?_I2C_Master_Read:	
   897                           ; 1 bytes @ 0x0
   898                           
   899  0070                     ??_I2C_Master_Read:	
   900                           ; 1 bytes @ 0x0
   901                           
   902  0070                     ?___lwdiv:	
   903                           ; 1 bytes @ 0x0
   904                           
   905  0070                     ?___lldiv:	
   906                           ; 2 bytes @ 0x0
   907                           
   908  0070                     ___lwdiv@divisor:	
   909                           ; 4 bytes @ 0x0
   910                           
   911  0070                     ___lldiv@divisor:	
   912                           ; 2 bytes @ 0x0
   913                           
   914                           
   915                           ; 4 bytes @ 0x0
   916  0070                     	ds	1
   917  0071                     I2C_Master_Write@Master_Tx_Data:	
   918                           
   919                           ; 1 bytes @ 0x1
   920  0071                     	ds	1
   921  0072                     ?_I2C_EEPROM_Page_Write:	
   922  0072                     ?_I2C_EEPROM_Byte_Write:	
   923                           ; 1 bytes @ 0x2
   924                           
   925  0072                     ?_I2C_IO_Expander_Writer:	
   926                           ; 1 bytes @ 0x2
   927                           
   928  0072                     I2C_Master_Read@Recieved_Data:	
   929                           ; 1 bytes @ 0x2
   930                           
   931  0072                     I2C_IO_Expander_Writer@I2C_Address:	
   932                           ; 1 bytes @ 0x2
   933                           
   934  0072                     I2C_EEPROM_Byte_Write@EEPROM_Address:	
   935                           ; 1 bytes @ 0x2
   936                           
   937  0072                     I2C_EEPROM_Page_Write@EEPROM_Address:	
   938                           ; 2 bytes @ 0x2
   939                           
   940  0072                     ___lwdiv@dividend:	
   941                           ; 2 bytes @ 0x2
   942                           
   943                           
   944                           ; 2 bytes @ 0x2
   945  0072                     	ds	1
   946  0073                     ?_I2C_EEPROM_Sequential_Read:	
   947  0073                     I2C_IO_Expander_Writer@I2C_Data:	
   948                           ; 1 bytes @ 0x3
   949                           
   950  0073                     I2C_EEPROM_Sequential_Read@EEPROM_Address:	
   951                           ; 1 bytes @ 0x3
   952                           
   953                           
   954                           ; 2 bytes @ 0x3
   955  0073                     	ds	1
   956  0074                     ??_I2C_IO_Expander_Writer:	
   957  0074                     ?_LCD_data_sender:	
   958                           ; 1 bytes @ 0x4
   959                           
   960  0074                     ??___lwdiv:	
   961                           ; 1 bytes @ 0x4
   962                           
   963  0074                     I2C_EEPROM_Byte_Write@Data:	
   964                           ; 1 bytes @ 0x4
   965                           
   966  0074                     I2C_EEPROM_Page_Write@Data_Buffer:	
   967                           ; 1 bytes @ 0x4
   968                           
   969  0074                     LCD_data_sender@LCD_Obj:	
   970                           ; 1 bytes @ 0x4
   971                           
   972  0074                     ___lldiv@dividend:	
   973                           ; 2 bytes @ 0x4
   974                           
   975                           
   976                           ; 4 bytes @ 0x4
   977  0074                     	ds	1
   978  0075                     ??_I2C_EEPROM_Byte_Write:	
   979  0075                     I2C_EEPROM_Byte_Write@I2C_Address:	
   980                           ; 1 bytes @ 0x5
   981                           
   982  0075                     I2C_EEPROM_Sequential_Read@Data_Buffer:	
   983                           ; 1 bytes @ 0x5
   984                           
   985  0075                     I2C_EEPROM_Page_Write@Length_of_Data:	
   986                           ; 1 bytes @ 0x5
   987                           
   988  0075                     ___lwdiv@quotient:	
   989                           ; 2 bytes @ 0x5
   990                           
   991                           
   992                           ; 2 bytes @ 0x5
   993  0075                     	ds	1
   994  0076                     LCD_data_sender@data:	
   995  0076                     I2C_EEPROM_Byte_Write@c:	
   996                           ; 1 bytes @ 0x6
   997                           
   998  0076                     I2C_EEPROM_Sequential_Read@Length_of_Data:	
   999                           ; 2 bytes @ 0x6
  1000                           
  1001                           
  1002                           ; 2 bytes @ 0x6
  1003  0076                     	ds	1
  1004  0077                     ??_I2C_EEPROM_Page_Write:	
  1005  0077                     LCD_data_sender@callback_function:	
  1006                           ; 1 bytes @ 0x7
  1007                           
  1008  0077                     ___lwdiv@counter:	
  1009                           ; 1 bytes @ 0x7
  1010                           
  1011                           
  1012                           ; 1 bytes @ 0x7
  1013  0077                     	ds	1
  1014  0078                     ??_I2C_EEPROM_Sequential_Read:	
  1015  0078                     ??_LCD_data_sender:	
  1016                           ; 1 bytes @ 0x8
  1017                           
  1018  0078                     ??___lldiv:	
  1019                           ; 1 bytes @ 0x8
  1020                           
  1021  0078                     ?___lwmod:	
  1022                           ; 1 bytes @ 0x8
  1023                           
  1024  0078                     I2C_EEPROM_Page_Write@I2C_Address:	
  1025                           ; 2 bytes @ 0x8
  1026                           
  1027  0078                     ___lwmod@divisor:	
  1028                           ; 1 bytes @ 0x8
  1029                           
  1030                           
  1031                           ; 2 bytes @ 0x8
  1032  0078                     	ds	1
  1033  0079                     I2C_EEPROM_Page_Write@i:	
  1034  0079                     ___lldiv@quotient:	
  1035                           ; 2 bytes @ 0x9
  1036                           
  1037                           
  1038                           ; 4 bytes @ 0x9
  1039  0079                     	ds	1
  1040  007A                     ___lwmod@dividend:	
  1041                           
  1042                           ; 2 bytes @ 0xA
  1043  007A                     	ds	1
  1044  007B                     ?_LCD_send_commad:	
  1045  007B                     ?_I2C_LCD_write_char:	
  1046                           ; 1 bytes @ 0xB
  1047                           
  1048  007B                     LCD_send_commad@LCD_Obj:	
  1049                           ; 1 bytes @ 0xB
  1050                           
  1051  007B                     I2C_LCD_write_char@LCD_Obj:	
  1052                           ; 2 bytes @ 0xB
  1053                           
  1054  007B                     I2C_EEPROM_Page_Write@c:	
  1055                           ; 2 bytes @ 0xB
  1056                           
  1057                           
  1058                           ; 2 bytes @ 0xB
  1059  007B                     	ds	1
  1060  007C                     ??___lwmod:	
  1061                           
  1062                           ; 1 bytes @ 0xC
  1063  007C                     	ds	1
  1064  007D                     LCD_send_commad@cmd:	
  1065  007D                     I2C_LCD_write_char@chr:	
  1066                           ; 1 bytes @ 0xD
  1067                           
  1068  007D                     ___lldiv@counter:	
  1069                           ; 1 bytes @ 0xD
  1070                           
  1071  007D                     ___lwmod@counter:	
  1072                           ; 1 bytes @ 0xD
  1073                           
  1074                           
  1075                           ; 1 bytes @ 0xD
  1076  007D                     	ds	1
  1077                           
  1078                           	psect	cstackBANK0
  1079  0049                     __pcstackBANK0:	
  1080  0049                     ?_I2C_Master_Initialize:	
  1081  0049                     ??_LCD_send_commad:	
  1082                           ; 1 bytes @ 0x0
  1083                           
  1084  0049                     ??_I2C_LCD_write_char:	
  1085                           ; 1 bytes @ 0x0
  1086                           
  1087  0049                     ?_sprintf:	
  1088                           ; 1 bytes @ 0x0
  1089                           
  1090  0049                     I2C_EEPROM_Sequential_Read@I2C_Address:	
  1091                           ; 2 bytes @ 0x0
  1092                           
  1093  0049                     sprintf@f:	
  1094                           ; 1 bytes @ 0x0
  1095                           
  1096  0049                     I2C_Master_Initialize@I2C_BaudRate:	
  1097                           ; 1 bytes @ 0x0
  1098                           
  1099                           
  1100                           ; 4 bytes @ 0x0
  1101  0049                     	ds	1
  1102  004A                     I2C_EEPROM_Sequential_Read@c:	
  1103                           
  1104                           ; 2 bytes @ 0x1
  1105  004A                     	ds	1
  1106  004B                     ?_I2C_LCD_clear:	
  1107  004B                     ?_I2C_LCD_set_cursor:	
  1108                           ; 1 bytes @ 0x2
  1109                           
  1110  004B                     ?_I2C_LCD_write_string:	
  1111                           ; 1 bytes @ 0x2
  1112                           
  1113  004B                     ?_I2C_LCD_entry_mode:	
  1114                           ; 1 bytes @ 0x2
  1115                           
  1116  004B                     ?_I2C_LCD_display_on_off_control:	
  1117                           ; 1 bytes @ 0x2
  1118                           
  1119  004B                     I2C_LCD_write_string@LCD_Obj:	
  1120                           ; 1 bytes @ 0x2
  1121                           
  1122  004B                     I2C_LCD_clear@LCD_Obj:	
  1123                           ; 2 bytes @ 0x2
  1124                           
  1125  004B                     I2C_LCD_entry_mode@LCD_Obj:	
  1126                           ; 2 bytes @ 0x2
  1127                           
  1128  004B                     I2C_LCD_display_on_off_control@LCD_Obj:	
  1129                           ; 2 bytes @ 0x2
  1130                           
  1131  004B                     I2C_LCD_set_cursor@LCD_Obj:	
  1132                           ; 2 bytes @ 0x2
  1133                           
  1134                           
  1135                           ; 2 bytes @ 0x2
  1136  004B                     	ds	1
  1137  004C                     ??_sprintf:	
  1138  004C                     I2C_EEPROM_Sequential_Read@i:	
  1139                           ; 1 bytes @ 0x3
  1140                           
  1141                           
  1142                           ; 2 bytes @ 0x3
  1143  004C                     	ds	1
  1144  004D                     ??_I2C_LCD_clear:	
  1145  004D                     I2C_LCD_entry_mode@I_or_D:	
  1146                           ; 1 bytes @ 0x4
  1147                           
  1148  004D                     I2C_LCD_display_on_off_control@D:	
  1149                           ; 1 bytes @ 0x4
  1150                           
  1151  004D                     I2C_LCD_set_cursor@row:	
  1152                           ; 1 bytes @ 0x4
  1153                           
  1154  004D                     I2C_Master_Initialize@I2C_SMP_OnOff:	
  1155                           ; 1 bytes @ 0x4
  1156                           
  1157  004D                     I2C_LCD_write_string@str:	
  1158                           ; 1 bytes @ 0x4
  1159                           
  1160                           
  1161                           ; 2 bytes @ 0x4
  1162  004D                     	ds	1
  1163  004E                     I2C_LCD_entry_mode@S:	
  1164  004E                     I2C_LCD_display_on_off_control@C:	
  1165                           ; 1 bytes @ 0x5
  1166                           
  1167  004E                     I2C_LCD_set_cursor@colomn:	
  1168                           ; 1 bytes @ 0x5
  1169                           
  1170  004E                     I2C_Master_Initialize@I2C_CKE_OnOff:	
  1171                           ; 1 bytes @ 0x5
  1172                           
  1173                           
  1174                           ; 1 bytes @ 0x5
  1175  004E                     	ds	1
  1176  004F                     ??_I2C_Master_Initialize:	
  1177  004F                     ??_I2C_LCD_set_cursor:	
  1178                           ; 1 bytes @ 0x6
  1179                           
  1180  004F                     ??_I2C_LCD_write_string:	
  1181                           ; 1 bytes @ 0x6
  1182                           
  1183  004F                     ??_I2C_LCD_entry_mode:	
  1184                           ; 1 bytes @ 0x6
  1185                           
  1186  004F                     I2C_LCD_display_on_off_control@B:	
  1187                           ; 1 bytes @ 0x6
  1188                           
  1189  004F                     sprintf@ap:	
  1190                           ; 1 bytes @ 0x6
  1191                           
  1192                           
  1193                           ; 1 bytes @ 0x6
  1194  004F                     	ds	1
  1195  0050                     ??_I2C_LCD_display_on_off_control:	
  1196  0050                     I2C_LCD_write_string@i:	
  1197                           ; 1 bytes @ 0x7
  1198                           
  1199  0050                     sprintf@flag:	
  1200                           ; 1 bytes @ 0x7
  1201                           
  1202                           
  1203                           ; 1 bytes @ 0x7
  1204  0050                     	ds	1
  1205  0051                     sprintf@prec:	
  1206                           
  1207                           ; 1 bytes @ 0x8
  1208  0051                     	ds	1
  1209  0052                     ?_I2C_LCD_init:	
  1210  0052                     I2C_LCD_init@I2C_LCD_Address:	
  1211                           ; 1 bytes @ 0x9
  1212                           
  1213  0052                     sprintf@val:	
  1214                           ; 1 bytes @ 0x9
  1215                           
  1216                           
  1217                           ; 2 bytes @ 0x9
  1218  0052                     	ds	1
  1219  0053                     I2C_LCD_init@N:	
  1220                           
  1221                           ; 1 bytes @ 0xA
  1222  0053                     	ds	1
  1223  0054                     I2C_LCD_init@F:	
  1224  0054                     sprintf@sp:	
  1225                           ; 1 bytes @ 0xB
  1226                           
  1227                           
  1228                           ; 1 bytes @ 0xB
  1229  0054                     	ds	1
  1230  0055                     ??_I2C_LCD_init:	
  1231  0055                     sprintf@c:	
  1232                           ; 1 bytes @ 0xC
  1233                           
  1234                           
  1235                           ; 1 bytes @ 0xC
  1236  0055                     	ds	2
  1237  0057                     I2C_LCD_init@LCD_Obj_Add:	
  1238                           
  1239                           ; 1 bytes @ 0xE
  1240  0057                     	ds	1
  1241  0058                     ??_main:	
  1242                           
  1243                           ; 1 bytes @ 0xF
  1244  0058                     	ds	3
  1245  005B                     main@old_page_num:	
  1246                           
  1247                           ; 2 bytes @ 0x12
  1248  005B                     	ds	2
  1249  005D                     main@spage_num:	
  1250                           
  1251                           ; 3 bytes @ 0x14
  1252  005D                     	ds	3
  1253  0060                     main@i_151:	
  1254                           
  1255                           ; 2 bytes @ 0x17
  1256  0060                     	ds	2
  1257  0062                     main@i:	
  1258                           
  1259                           ; 2 bytes @ 0x19
  1260  0062                     	ds	2
  1261  0064                     main@page_num:	
  1262                           
  1263                           ; 2 bytes @ 0x1B
  1264  0064                     	ds	2
  1265                           
  1266                           	psect	maintext
  1267  0410                     __pmaintext:	
  1268 ;;
  1269 ;;Main: autosize = 0, tempsize = 3, incstack = 0, save=0
  1270 ;;
  1271 ;; *************** function _main *****************
  1272 ;; Defined at:
  1273 ;;		line 27 in file "I2C_24C64_EEPROM_Firmware.c"
  1274 ;; Parameters:    Size  Location     Type
  1275 ;;		None
  1276 ;; Auto vars:     Size  Location     Type
  1277 ;;  i               2   23[BANK0 ] int 
  1278 ;;  i               2   25[BANK0 ] int 
  1279 ;;  spage_num       3   20[BANK0 ] unsigned char [3]
  1280 ;;  page_num        2   27[BANK0 ] int 
  1281 ;;  old_page_num    2   18[BANK0 ] int 
  1282 ;; Return value:  Size  Location     Type
  1283 ;;                  1    wreg      void 
  1284 ;; Registers used:
  1285 ;;		wreg, fsr0l, fsr0h, status,2, status,0, btemp+1, pclath, cstack
  1286 ;; Tracked objects:
  1287 ;;		On entry : B00/0
  1288 ;;		On exit  : 0/0
  1289 ;;		Unchanged: 0/0
  1290 ;; Data sizes:     COMMON   BANK0   BANK1   BANK3   BANK2
  1291 ;;      Params:         0       0       0       0       0
  1292 ;;      Locals:         0      11       0       0       0
  1293 ;;      Temps:          0       3       0       0       0
  1294 ;;      Totals:         0      14       0       0       0
  1295 ;;Total ram usage:       14 bytes
  1296 ;; Hardware stack levels required when called:    7
  1297 ;; This function calls:
  1298 ;;		_I2C_EEPROM_Byte_Write
  1299 ;;		_I2C_EEPROM_Page_Write
  1300 ;;		_I2C_EEPROM_Sequential_Read
  1301 ;;		_I2C_LCD_clear
  1302 ;;		_I2C_LCD_init
  1303 ;;		_I2C_LCD_set_cursor
  1304 ;;		_I2C_LCD_write_string
  1305 ;;		_I2C_Master_Initialize
  1306 ;;		_Initial_Configurations
  1307 ;;		_sprintf
  1308 ;; This function is called by:
  1309 ;;		Startup code after reset
  1310 ;; This function uses a non-reentrant model
  1311 ;;
  1312                           
  1313                           
  1314                           ;psect for function _main
  1315  0410                     _main:	
  1316  0410                     l2010:	
  1317                           ;incstack = 0
  1318                           ; Regs used in _main: [wreg-fsr0h+status,2+status,0+btemp+1+pclath+cstack]
  1319                           
  1320                           
  1321                           ;I2C_24C64_EEPROM_Firmware.c: 28:     Initial_Configurations();
  1322  0410  120A  158A  250C  120A  118A  	fcall	_Initial_Configurations
  1323                           
  1324                           ;I2C_24C64_EEPROM_Firmware.c: 29:     I2C_Master_Initialize(((I2C_BaudRate_t)400000), ((
      +                          Slew_Rate_t)1), ((SMBus_t)0));
  1325  0415  3000               	movlw	0
  1326  0416  1283               	bcf	3,5	;RP0=0, select bank0
  1327  0417  1303               	bcf	3,6	;RP1=0, select bank0
  1328  0418  00CC               	movwf	I2C_Master_Initialize@I2C_BaudRate+3
  1329  0419  3006               	movlw	6
  1330  041A  00CB               	movwf	I2C_Master_Initialize@I2C_BaudRate+2
  1331  041B  301A               	movlw	26
  1332  041C  00CA               	movwf	I2C_Master_Initialize@I2C_BaudRate+1
  1333  041D  3080               	movlw	128
  1334  041E  00C9               	movwf	I2C_Master_Initialize@I2C_BaudRate
  1335  041F  01CD               	clrf	I2C_Master_Initialize@I2C_SMP_OnOff
  1336  0420  0ACD               	incf	I2C_Master_Initialize@I2C_SMP_OnOff,f
  1337  0421  01CE               	clrf	I2C_Master_Initialize@I2C_CKE_OnOff
  1338  0422  120A  158A  2707  120A  118A  	fcall	_I2C_Master_Initialize
  1339  0427                     l2012:	
  1340                           
  1341                           ;I2C_24C64_EEPROM_Firmware.c: 30:     I2C_LCD_init(&LCD1, 0x40, 0x08, 0x00);
  1342  0427  3040               	movlw	64
  1343  0428  1283               	bcf	3,5	;RP0=0, select bank0
  1344  0429  1303               	bcf	3,6	;RP1=0, select bank0
  1345  042A  00D8               	movwf	??_main
  1346  042B  0858               	movf	??_main,w
  1347  042C  00D2               	movwf	I2C_LCD_init@I2C_LCD_Address
  1348  042D  3008               	movlw	8
  1349  042E  00D9               	movwf	??_main+1
  1350  042F  0859               	movf	??_main+1,w
  1351  0430  00D3               	movwf	I2C_LCD_init@N
  1352  0431  01D4               	clrf	I2C_LCD_init@F
  1353  0432  3047               	movlw	(low (_LCD1| 0))& (0+255)
  1354  0433  120A  118A  2209  120A  118A  	fcall	_I2C_LCD_init
  1355  0438                     l2014:	
  1356                           
  1357                           ;I2C_24C64_EEPROM_Firmware.c: 32:     I2C_LCD_clear(LCD1);
  1358  0438  1283               	bcf	3,5	;RP0=0, select bank0
  1359  0439  1303               	bcf	3,6	;RP1=0, select bank0
  1360  043A  0848               	movf	_LCD1+1,w
  1361  043B  00CC               	movwf	I2C_LCD_clear@LCD_Obj+1
  1362  043C  0847               	movf	_LCD1,w
  1363  043D  00CB               	movwf	I2C_LCD_clear@LCD_Obj
  1364  043E  120A  158A  25CA  120A  118A  	fcall	_I2C_LCD_clear
  1365                           
  1366                           ;I2C_24C64_EEPROM_Firmware.c: 33:     I2C_LCD_set_cursor(LCD1,1,3);
  1367  0443  1283               	bcf	3,5	;RP0=0, select bank0
  1368  0444  1303               	bcf	3,6	;RP1=0, select bank0
  1369  0445  0848               	movf	_LCD1+1,w
  1370  0446  00CC               	movwf	I2C_LCD_set_cursor@LCD_Obj+1
  1371  0447  0847               	movf	_LCD1,w
  1372  0448  00CB               	movwf	I2C_LCD_set_cursor@LCD_Obj
  1373  0449  01CD               	clrf	I2C_LCD_set_cursor@row
  1374  044A  0ACD               	incf	I2C_LCD_set_cursor@row,f
  1375  044B  3003               	movlw	3
  1376  044C  00D8               	movwf	??_main
  1377  044D  0858               	movf	??_main,w
  1378  044E  00CE               	movwf	I2C_LCD_set_cursor@colomn
  1379  044F  120A  158A  27AA  120A  118A  	fcall	_I2C_LCD_set_cursor
  1380  0454                     l2016:	
  1381                           
  1382                           ;I2C_24C64_EEPROM_Firmware.c: 34:     I2C_LCD_write_string(LCD1,"LCD1 INITIALIZED");
  1383  0454  1283               	bcf	3,5	;RP0=0, select bank0
  1384  0455  1303               	bcf	3,6	;RP1=0, select bank0
  1385  0456  0848               	movf	_LCD1+1,w
  1386  0457  00CC               	movwf	I2C_LCD_write_string@LCD_Obj+1
  1387  0458  0847               	movf	_LCD1,w
  1388  0459  00CB               	movwf	I2C_LCD_write_string@LCD_Obj
  1389  045A  3048               	movlw	(low ((STR_1-__stringbase)| (0+32768)))& (0+255)
  1390  045B  00CD               	movwf	I2C_LCD_write_string@str
  1391  045C  3080               	movlw	128
  1392  045D  00CE               	movwf	I2C_LCD_write_string@str+1
  1393  045E  120A  158A  2756  120A  118A  	fcall	_I2C_LCD_write_string
  1394  0463                     l2018:	
  1395                           
  1396                           ;I2C_24C64_EEPROM_Firmware.c: 36:     I2C_LCD_set_cursor(LCD1,3,1);
  1397  0463  1283               	bcf	3,5	;RP0=0, select bank0
  1398  0464  1303               	bcf	3,6	;RP1=0, select bank0
  1399  0465  0848               	movf	_LCD1+1,w
  1400  0466  00CC               	movwf	I2C_LCD_set_cursor@LCD_Obj+1
  1401  0467  0847               	movf	_LCD1,w
  1402  0468  00CB               	movwf	I2C_LCD_set_cursor@LCD_Obj
  1403  0469  3003               	movlw	3
  1404  046A  00D8               	movwf	??_main
  1405  046B  0858               	movf	??_main,w
  1406  046C  00CD               	movwf	I2C_LCD_set_cursor@row
  1407  046D  01CE               	clrf	I2C_LCD_set_cursor@colomn
  1408  046E  0ACE               	incf	I2C_LCD_set_cursor@colomn,f
  1409  046F  120A  158A  27AA  120A  118A  	fcall	_I2C_LCD_set_cursor
  1410                           
  1411                           ;I2C_24C64_EEPROM_Firmware.c: 37:     I2C_LCD_write_string(LCD1,"I2C EEPROM WRITING..");
  1412  0474  1283               	bcf	3,5	;RP0=0, select bank0
  1413  0475  1303               	bcf	3,6	;RP1=0, select bank0
  1414  0476  0848               	movf	_LCD1+1,w
  1415  0477  00CC               	movwf	I2C_LCD_write_string@LCD_Obj+1
  1416  0478  0847               	movf	_LCD1,w
  1417  0479  00CB               	movwf	I2C_LCD_write_string@LCD_Obj
  1418  047A  3021               	movlw	(low ((STR_2-__stringbase)| (0+32768)))& (0+255)
  1419  047B  00CD               	movwf	I2C_LCD_write_string@str
  1420  047C  3080               	movlw	128
  1421  047D  00CE               	movwf	I2C_LCD_write_string@str+1
  1422  047E  120A  158A  2756  120A  118A  	fcall	_I2C_LCD_write_string
  1423                           
  1424                           ;I2C_24C64_EEPROM_Firmware.c: 38:     I2C_EEPROM_Page_Write(0xA0, EE_Add, writer_data_bu
      +                          ffer, 32);
  1425  0483  3000               	movlw	0
  1426  0484  00F2               	movwf	I2C_EEPROM_Page_Write@EEPROM_Address
  1427  0485  00F3               	movwf	I2C_EEPROM_Page_Write@EEPROM_Address+1
  1428  0486  30A0               	movlw	(low (_writer_data_buffer| 0))& (0+255)
  1429  0487  1283               	bcf	3,5	;RP0=0, select bank0
  1430  0488  1303               	bcf	3,6	;RP1=0, select bank0
  1431  0489  00D8               	movwf	??_main
  1432  048A  0858               	movf	??_main,w
  1433  048B  00F4               	movwf	I2C_EEPROM_Page_Write@Data_Buffer
  1434  048C  3020               	movlw	32
  1435  048D  00F5               	movwf	I2C_EEPROM_Page_Write@Length_of_Data
  1436  048E  3000               	movlw	0
  1437  048F  00F6               	movwf	I2C_EEPROM_Page_Write@Length_of_Data+1
  1438  0490  30A0               	movlw	160
  1439  0491  120A  118A  213E  120A  118A  	fcall	_I2C_EEPROM_Page_Write
  1440  0496                     l2020:	
  1441                           
  1442                           ;I2C_24C64_EEPROM_Firmware.c: 39:     _delay((unsigned long)((5)*(20000000UL/4000.0)));
  1443  0496  3021               	movlw	33
  1444  0497  1283               	bcf	3,5	;RP0=0, select bank0
  1445  0498  1303               	bcf	3,6	;RP1=0, select bank0
  1446  0499  00D9               	movwf	??_main+1
  1447  049A  3075               	movlw	117
  1448  049B  00D8               	movwf	??_main
  1449  049C                     u1617:	
  1450  049C  0BD8               	decfsz	??_main,f
  1451  049D  2C9C               	goto	u1617
  1452  049E  0BD9               	decfsz	??_main+1,f
  1453  049F  2C9C               	goto	u1617
  1454  04A0  2CA1               	nop2
  1455  04A1                     l2022:	
  1456                           
  1457                           ;I2C_24C64_EEPROM_Firmware.c: 40:     for(int i=0;i<32;i++){
  1458  04A1  1283               	bcf	3,5	;RP0=0, select bank0
  1459  04A2  1303               	bcf	3,6	;RP1=0, select bank0
  1460  04A3  01E2               	clrf	main@i
  1461  04A4  01E3               	clrf	main@i+1
  1462  04A5                     l2028:	
  1463                           
  1464                           ;I2C_24C64_EEPROM_Firmware.c: 41:         I2C_EEPROM_Byte_Write(0xA0, (EE_Add+32)+i, 'A'
      +                          );
  1465  04A5  1283               	bcf	3,5	;RP0=0, select bank0
  1466  04A6  1303               	bcf	3,6	;RP1=0, select bank0
  1467  04A7  0862               	movf	main@i,w
  1468  04A8  3E20               	addlw	32
  1469  04A9  00F2               	movwf	I2C_EEPROM_Byte_Write@EEPROM_Address
  1470  04AA  0863               	movf	main@i+1,w
  1471  04AB  1803               	skipnc
  1472  04AC  3E01               	addlw	1
  1473  04AD  3E00               	addlw	0
  1474  04AE  00F3               	movwf	I2C_EEPROM_Byte_Write@EEPROM_Address+1
  1475  04AF  3041               	movlw	65
  1476  04B0  00D8               	movwf	??_main
  1477  04B1  0858               	movf	??_main,w
  1478  04B2  00F4               	movwf	I2C_EEPROM_Byte_Write@Data
  1479  04B3  30A0               	movlw	160
  1480  04B4  120A  158A  26BB  120A  118A  	fcall	_I2C_EEPROM_Byte_Write
  1481  04B9                     l2030:	
  1482                           
  1483                           ;I2C_24C64_EEPROM_Firmware.c: 42:         _delay((unsigned long)((5)*(20000000UL/4000.0)
      +                          ));
  1484  04B9  3021               	movlw	33
  1485  04BA  1283               	bcf	3,5	;RP0=0, select bank0
  1486  04BB  1303               	bcf	3,6	;RP1=0, select bank0
  1487  04BC  00D9               	movwf	??_main+1
  1488  04BD  3075               	movlw	117
  1489  04BE  00D8               	movwf	??_main
  1490  04BF                     u1627:	
  1491  04BF  0BD8               	decfsz	??_main,f
  1492  04C0  2CBF               	goto	u1627
  1493  04C1  0BD9               	decfsz	??_main+1,f
  1494  04C2  2CBF               	goto	u1627
  1495  04C3  2CC4               	nop2
  1496  04C4                     l2032:	
  1497                           
  1498                           ;I2C_24C64_EEPROM_Firmware.c: 43:         I2C_EEPROM_Byte_Write(0xA0, (EE_Add+64)+i, 'B'
      +                          );
  1499  04C4  1283               	bcf	3,5	;RP0=0, select bank0
  1500  04C5  1303               	bcf	3,6	;RP1=0, select bank0
  1501  04C6  0862               	movf	main@i,w
  1502  04C7  3E40               	addlw	64
  1503  04C8  00F2               	movwf	I2C_EEPROM_Byte_Write@EEPROM_Address
  1504  04C9  0863               	movf	main@i+1,w
  1505  04CA  1803               	skipnc
  1506  04CB  3E01               	addlw	1
  1507  04CC  3E00               	addlw	0
  1508  04CD  00F3               	movwf	I2C_EEPROM_Byte_Write@EEPROM_Address+1
  1509  04CE  3042               	movlw	66
  1510  04CF  00D8               	movwf	??_main
  1511  04D0  0858               	movf	??_main,w
  1512  04D1  00F4               	movwf	I2C_EEPROM_Byte_Write@Data
  1513  04D2  30A0               	movlw	160
  1514  04D3  120A  158A  26BB  120A  118A  	fcall	_I2C_EEPROM_Byte_Write
  1515                           
  1516                           ;I2C_24C64_EEPROM_Firmware.c: 44:         _delay((unsigned long)((5)*(20000000UL/4000.0)
      +                          ));
  1517  04D8  3021               	movlw	33
  1518  04D9  1283               	bcf	3,5	;RP0=0, select bank0
  1519  04DA  1303               	bcf	3,6	;RP1=0, select bank0
  1520  04DB  00D9               	movwf	??_main+1
  1521  04DC  3075               	movlw	117
  1522  04DD  00D8               	movwf	??_main
  1523  04DE                     u1637:	
  1524  04DE  0BD8               	decfsz	??_main,f
  1525  04DF  2CDE               	goto	u1637
  1526  04E0  0BD9               	decfsz	??_main+1,f
  1527  04E1  2CDE               	goto	u1637
  1528  04E2  2CE3               	nop2
  1529  04E3                     l2034:	
  1530                           
  1531                           ;I2C_24C64_EEPROM_Firmware.c: 45:         I2C_EEPROM_Byte_Write(0xA0, (EE_Add+96)+i, 'C'
      +                          );
  1532  04E3  1283               	bcf	3,5	;RP0=0, select bank0
  1533  04E4  1303               	bcf	3,6	;RP1=0, select bank0
  1534  04E5  0862               	movf	main@i,w
  1535  04E6  3E60               	addlw	96
  1536  04E7  00F2               	movwf	I2C_EEPROM_Byte_Write@EEPROM_Address
  1537  04E8  0863               	movf	main@i+1,w
  1538  04E9  1803               	skipnc
  1539  04EA  3E01               	addlw	1
  1540  04EB  3E00               	addlw	0
  1541  04EC  00F3               	movwf	I2C_EEPROM_Byte_Write@EEPROM_Address+1
  1542  04ED  3043               	movlw	67
  1543  04EE  00D8               	movwf	??_main
  1544  04EF  0858               	movf	??_main,w
  1545  04F0  00F4               	movwf	I2C_EEPROM_Byte_Write@Data
  1546  04F1  30A0               	movlw	160
  1547  04F2  120A  158A  26BB  120A  118A  	fcall	_I2C_EEPROM_Byte_Write
  1548  04F7                     l2036:	
  1549                           
  1550                           ;I2C_24C64_EEPROM_Firmware.c: 46:         _delay((unsigned long)((5)*(20000000UL/4000.0)
      +                          ));
  1551  04F7  3021               	movlw	33
  1552  04F8  1283               	bcf	3,5	;RP0=0, select bank0
  1553  04F9  1303               	bcf	3,6	;RP1=0, select bank0
  1554  04FA  00D9               	movwf	??_main+1
  1555  04FB  3075               	movlw	117
  1556  04FC  00D8               	movwf	??_main
  1557  04FD                     u1647:	
  1558  04FD  0BD8               	decfsz	??_main,f
  1559  04FE  2CFD               	goto	u1647
  1560  04FF  0BD9               	decfsz	??_main+1,f
  1561  0500  2CFD               	goto	u1647
  1562  0501  2D02               	nop2
  1563                           
  1564                           ;I2C_24C64_EEPROM_Firmware.c: 47:         I2C_EEPROM_Byte_Write(0xA0, (EE_Add+128)+i, 'D
      +                          ');
  1565  0502  1283               	bcf	3,5	;RP0=0, select bank0
  1566  0503  1303               	bcf	3,6	;RP1=0, select bank0
  1567  0504  0862               	movf	main@i,w
  1568  0505  3E80               	addlw	128
  1569  0506  00F2               	movwf	I2C_EEPROM_Byte_Write@EEPROM_Address
  1570  0507  0863               	movf	main@i+1,w
  1571  0508  1803               	skipnc
  1572  0509  3E01               	addlw	1
  1573  050A  3E00               	addlw	0
  1574  050B  00F3               	movwf	I2C_EEPROM_Byte_Write@EEPROM_Address+1
  1575  050C  3044               	movlw	68
  1576  050D  00D8               	movwf	??_main
  1577  050E  0858               	movf	??_main,w
  1578  050F  00F4               	movwf	I2C_EEPROM_Byte_Write@Data
  1579  0510  30A0               	movlw	160
  1580  0511  120A  158A  26BB  120A  118A  	fcall	_I2C_EEPROM_Byte_Write
  1581  0516                     l2038:	
  1582                           
  1583                           ;I2C_24C64_EEPROM_Firmware.c: 48:         _delay((unsigned long)((5)*(20000000UL/4000.0)
      +                          ));
  1584  0516  3021               	movlw	33
  1585  0517  1283               	bcf	3,5	;RP0=0, select bank0
  1586  0518  1303               	bcf	3,6	;RP1=0, select bank0
  1587  0519  00D9               	movwf	??_main+1
  1588  051A  3075               	movlw	117
  1589  051B  00D8               	movwf	??_main
  1590  051C                     u1657:	
  1591  051C  0BD8               	decfsz	??_main,f
  1592  051D  2D1C               	goto	u1657
  1593  051E  0BD9               	decfsz	??_main+1,f
  1594  051F  2D1C               	goto	u1657
  1595  0520  2D21               	nop2
  1596  0521                     l2040:	
  1597                           
  1598                           ;I2C_24C64_EEPROM_Firmware.c: 49:         I2C_EEPROM_Byte_Write(0xA0, (EE_Add+160)+i, 'F
      +                          ');
  1599  0521  1283               	bcf	3,5	;RP0=0, select bank0
  1600  0522  1303               	bcf	3,6	;RP1=0, select bank0
  1601  0523  0862               	movf	main@i,w
  1602  0524  3EA0               	addlw	160
  1603  0525  00F2               	movwf	I2C_EEPROM_Byte_Write@EEPROM_Address
  1604  0526  0863               	movf	main@i+1,w
  1605  0527  1803               	skipnc
  1606  0528  3E01               	addlw	1
  1607  0529  3E00               	addlw	0
  1608  052A  00F3               	movwf	I2C_EEPROM_Byte_Write@EEPROM_Address+1
  1609  052B  3046               	movlw	70
  1610  052C  00D8               	movwf	??_main
  1611  052D  0858               	movf	??_main,w
  1612  052E  00F4               	movwf	I2C_EEPROM_Byte_Write@Data
  1613  052F  30A0               	movlw	160
  1614  0530  120A  158A  26BB  120A  118A  	fcall	_I2C_EEPROM_Byte_Write
  1615                           
  1616                           ;I2C_24C64_EEPROM_Firmware.c: 50:         _delay((unsigned long)((5)*(20000000UL/4000.0)
      +                          ));
  1617  0535  3021               	movlw	33
  1618  0536  1283               	bcf	3,5	;RP0=0, select bank0
  1619  0537  1303               	bcf	3,6	;RP1=0, select bank0
  1620  0538  00D9               	movwf	??_main+1
  1621  0539  3075               	movlw	117
  1622  053A  00D8               	movwf	??_main
  1623  053B                     u1667:	
  1624  053B  0BD8               	decfsz	??_main,f
  1625  053C  2D3B               	goto	u1667
  1626  053D  0BD9               	decfsz	??_main+1,f
  1627  053E  2D3B               	goto	u1667
  1628  053F  2D40               	nop2
  1629                           
  1630                           ;I2C_24C64_EEPROM_Firmware.c: 51:     }
  1631  0540  3001               	movlw	1
  1632  0541  1283               	bcf	3,5	;RP0=0, select bank0
  1633  0542  1303               	bcf	3,6	;RP1=0, select bank0
  1634  0543  07E2               	addwf	main@i,f
  1635  0544  1803               	skipnc
  1636  0545  0AE3               	incf	main@i+1,f
  1637  0546  3000               	movlw	0
  1638  0547  07E3               	addwf	main@i+1,f
  1639  0548                     l2042:	
  1640  0548  0863               	movf	main@i+1,w
  1641  0549  3A80               	xorlw	128
  1642  054A  00FF               	movwf	btemp+1
  1643  054B  3080               	movlw	128
  1644  054C  027F               	subwf	btemp+1,w
  1645  054D  1D03               	skipz
  1646  054E  2D51               	goto	u1415
  1647  054F  3020               	movlw	32
  1648  0550  0262               	subwf	main@i,w
  1649  0551                     u1415:	
  1650  0551  1C03               	skipc
  1651  0552  2D54               	goto	u1411
  1652  0553  2D55               	goto	u1410
  1653  0554                     u1411:	
  1654  0554  2CA5               	goto	l2028
  1655  0555                     u1410:	
  1656  0555                     l2044:	
  1657                           
  1658                           ;I2C_24C64_EEPROM_Firmware.c: 52:     I2C_LCD_set_cursor(LCD1,3,1);
  1659  0555  1283               	bcf	3,5	;RP0=0, select bank0
  1660  0556  1303               	bcf	3,6	;RP1=0, select bank0
  1661  0557  0848               	movf	_LCD1+1,w
  1662  0558  00CC               	movwf	I2C_LCD_set_cursor@LCD_Obj+1
  1663  0559  0847               	movf	_LCD1,w
  1664  055A  00CB               	movwf	I2C_LCD_set_cursor@LCD_Obj
  1665  055B  3003               	movlw	3
  1666  055C  00D8               	movwf	??_main
  1667  055D  0858               	movf	??_main,w
  1668  055E  00CD               	movwf	I2C_LCD_set_cursor@row
  1669  055F  01CE               	clrf	I2C_LCD_set_cursor@colomn
  1670  0560  0ACE               	incf	I2C_LCD_set_cursor@colomn,f
  1671  0561  120A  158A  27AA  120A  118A  	fcall	_I2C_LCD_set_cursor
  1672  0566                     l2046:	
  1673                           
  1674                           ;I2C_24C64_EEPROM_Firmware.c: 53:     I2C_LCD_write_string(LCD1,"I2C EEPROM WRITED.  ");
  1675  0566  1283               	bcf	3,5	;RP0=0, select bank0
  1676  0567  1303               	bcf	3,6	;RP1=0, select bank0
  1677  0568  0848               	movf	_LCD1+1,w
  1678  0569  00CC               	movwf	I2C_LCD_write_string@LCD_Obj+1
  1679  056A  0847               	movf	_LCD1,w
  1680  056B  00CB               	movwf	I2C_LCD_write_string@LCD_Obj
  1681  056C  300C               	movlw	(low ((STR_3-__stringbase)| (0+32768)))& (0+255)
  1682  056D  00CD               	movwf	I2C_LCD_write_string@str
  1683  056E  3080               	movlw	128
  1684  056F  00CE               	movwf	I2C_LCD_write_string@str+1
  1685  0570  120A  158A  2756  120A  118A  	fcall	_I2C_LCD_write_string
  1686  0575                     l2048:	
  1687                           
  1688                           ;I2C_24C64_EEPROM_Firmware.c: 54:     _delay((unsigned long)((250)*(20000000UL/4000.0)))
      +                          ;
  1689  0575  3007               	movlw	7
  1690  0576  1283               	bcf	3,5	;RP0=0, select bank0
  1691  0577  1303               	bcf	3,6	;RP1=0, select bank0
  1692  0578  00DA               	movwf	??_main+2
  1693  0579  3058               	movlw	88
  1694  057A  00D9               	movwf	??_main+1
  1695  057B  3059               	movlw	89
  1696  057C  00D8               	movwf	??_main
  1697  057D                     u1677:	
  1698  057D  0BD8               	decfsz	??_main,f
  1699  057E  2D7D               	goto	u1677
  1700  057F  0BD9               	decfsz	??_main+1,f
  1701  0580  2D7D               	goto	u1677
  1702  0581  0BDA               	decfsz	??_main+2,f
  1703  0582  2D7D               	goto	u1677
  1704  0583                     l2050:	
  1705                           
  1706                           ;I2C_24C64_EEPROM_Firmware.c: 56:     int page_num = 0;
  1707  0583  1283               	bcf	3,5	;RP0=0, select bank0
  1708  0584  1303               	bcf	3,6	;RP1=0, select bank0
  1709  0585  01E4               	clrf	main@page_num
  1710  0586  01E5               	clrf	main@page_num+1
  1711  0587                     l2052:	
  1712                           
  1713                           ;I2C_24C64_EEPROM_Firmware.c: 57:     int old_page_num = -1;
  1714  0587  30FF               	movlw	255
  1715  0588  00DB               	movwf	main@old_page_num
  1716  0589  30FF               	movlw	255
  1717  058A  00DC               	movwf	main@old_page_num+1
  1718  058B                     l2054:	
  1719                           
  1720                           ;I2C_24C64_EEPROM_Firmware.c: 61:         if(PORTBbits.RB0==1){
  1721  058B  1C06               	btfss	6,0	;volatile
  1722  058C  2D8E               	goto	u1421
  1723  058D  2D8F               	goto	u1420
  1724  058E                     u1421:	
  1725  058E  2DA9               	goto	l50
  1726  058F                     u1420:	
  1727  058F                     l51:	
  1728  058F  1806               	btfsc	6,0	;volatile
  1729  0590  2D92               	goto	u1431
  1730  0591  2D93               	goto	u1430
  1731  0592                     u1431:	
  1732  0592  2D8F               	goto	l51
  1733  0593                     u1430:	
  1734  0593                     l2058:	
  1735                           
  1736                           ;I2C_24C64_EEPROM_Firmware.c: 63:             if(page_num<10) page_num++;
  1737  0593  0865               	movf	main@page_num+1,w
  1738  0594  3A80               	xorlw	128
  1739  0595  00FF               	movwf	btemp+1
  1740  0596  3080               	movlw	128
  1741  0597  027F               	subwf	btemp+1,w
  1742  0598  1D03               	skipz
  1743  0599  2D9C               	goto	u1445
  1744  059A  300A               	movlw	10
  1745  059B  0264               	subwf	main@page_num,w
  1746  059C                     u1445:	
  1747  059C  1803               	skipnc
  1748  059D  2D9F               	goto	u1441
  1749  059E  2DA0               	goto	u1440
  1750  059F                     u1441:	
  1751  059F  2FC9               	goto	l2134
  1752  05A0                     u1440:	
  1753  05A0                     l2060:	
  1754  05A0  3001               	movlw	1
  1755  05A1  1283               	bcf	3,5	;RP0=0, select bank0
  1756  05A2  1303               	bcf	3,6	;RP1=0, select bank0
  1757  05A3  07E4               	addwf	main@page_num,f
  1758  05A4  1803               	skipnc
  1759  05A5  0AE5               	incf	main@page_num+1,f
  1760  05A6  3000               	movlw	0
  1761  05A7  07E5               	addwf	main@page_num+1,f
  1762  05A8  2FC9               	goto	l2134
  1763  05A9                     l50:	
  1764  05A9  1C86               	btfss	6,1	;volatile
  1765  05AA  2DAC               	goto	u1451
  1766  05AB  2DAD               	goto	u1450
  1767  05AC                     u1451:	
  1768  05AC  2DC7               	goto	l56
  1769  05AD                     u1450:	
  1770  05AD                     l57:	
  1771  05AD  1886               	btfsc	6,1	;volatile
  1772  05AE  2DB0               	goto	u1461
  1773  05AF  2DB1               	goto	u1460
  1774  05B0                     u1461:	
  1775  05B0  2DAD               	goto	l57
  1776  05B1                     u1460:	
  1777  05B1                     l2064:	
  1778                           
  1779                           ;I2C_24C64_EEPROM_Firmware.c: 66:             if(page_num>0) page_num--;
  1780  05B1  0865               	movf	main@page_num+1,w
  1781  05B2  3A80               	xorlw	128
  1782  05B3  00FF               	movwf	btemp+1
  1783  05B4  3080               	movlw	128
  1784  05B5  027F               	subwf	btemp+1,w
  1785  05B6  1D03               	skipz
  1786  05B7  2DBA               	goto	u1475
  1787  05B8  3001               	movlw	1
  1788  05B9  0264               	subwf	main@page_num,w
  1789  05BA                     u1475:	
  1790  05BA  1C03               	skipc
  1791  05BB  2DBD               	goto	u1471
  1792  05BC  2DBE               	goto	u1470
  1793  05BD                     u1471:	
  1794  05BD  2EB4               	goto	l55
  1795  05BE                     u1470:	
  1796  05BE                     l2066:	
  1797  05BE  30FF               	movlw	255
  1798  05BF  1283               	bcf	3,5	;RP0=0, select bank0
  1799  05C0  1303               	bcf	3,6	;RP1=0, select bank0
  1800  05C1  07E4               	addwf	main@page_num,f
  1801  05C2  1803               	skipnc
  1802  05C3  0AE5               	incf	main@page_num+1,f
  1803  05C4  30FF               	movlw	255
  1804  05C5  07E5               	addwf	main@page_num+1,f
  1805  05C6  2FC9               	goto	l2134
  1806  05C7                     l56:	
  1807  05C7  1D06               	btfss	6,2	;volatile
  1808  05C8  2DCA               	goto	u1481
  1809  05C9  2DCB               	goto	u1480
  1810  05CA                     u1481:	
  1811  05CA  2EB4               	goto	l55
  1812  05CB                     u1480:	
  1813  05CB                     l63:	
  1814  05CB  1906               	btfsc	6,2	;volatile
  1815  05CC  2DCE               	goto	u1491
  1816  05CD  2DCF               	goto	u1490
  1817  05CE                     u1491:	
  1818  05CE  2DCB               	goto	l63
  1819  05CF                     u1490:	
  1820  05CF                     l2070:	
  1821                           
  1822                           ;I2C_24C64_EEPROM_Firmware.c: 69:             I2C_LCD_clear(LCD1);
  1823  05CF  0848               	movf	_LCD1+1,w
  1824  05D0  00CC               	movwf	I2C_LCD_clear@LCD_Obj+1
  1825  05D1  0847               	movf	_LCD1,w
  1826  05D2  00CB               	movwf	I2C_LCD_clear@LCD_Obj
  1827  05D3  120A  158A  25CA  120A  118A  	fcall	_I2C_LCD_clear
  1828  05D8                     l2072:	
  1829                           
  1830                           ;I2C_24C64_EEPROM_Firmware.c: 70:             I2C_LCD_write_string(LCD1, "EEPROM PAGE:")
      +                          ;
  1831  05D8  1283               	bcf	3,5	;RP0=0, select bank0
  1832  05D9  1303               	bcf	3,6	;RP1=0, select bank0
  1833  05DA  0848               	movf	_LCD1+1,w
  1834  05DB  00CC               	movwf	I2C_LCD_write_string@LCD_Obj+1
  1835  05DC  0847               	movf	_LCD1,w
  1836  05DD  00CB               	movwf	I2C_LCD_write_string@LCD_Obj
  1837  05DE  3059               	movlw	(low ((STR_4-__stringbase)| (0+32768)))& (0+255)
  1838  05DF  00CD               	movwf	I2C_LCD_write_string@str
  1839  05E0  3080               	movlw	128
  1840  05E1  00CE               	movwf	I2C_LCD_write_string@str+1
  1841  05E2  120A  158A  2756  120A  118A  	fcall	_I2C_LCD_write_string
  1842  05E7                     l2074:	
  1843                           
  1844                           ;I2C_24C64_EEPROM_Firmware.c: 71:             I2C_LCD_set_cursor(LCD1, 1, 13);
  1845  05E7  1283               	bcf	3,5	;RP0=0, select bank0
  1846  05E8  1303               	bcf	3,6	;RP1=0, select bank0
  1847  05E9  0848               	movf	_LCD1+1,w
  1848  05EA  00CC               	movwf	I2C_LCD_set_cursor@LCD_Obj+1
  1849  05EB  0847               	movf	_LCD1,w
  1850  05EC  00CB               	movwf	I2C_LCD_set_cursor@LCD_Obj
  1851  05ED  01CD               	clrf	I2C_LCD_set_cursor@row
  1852  05EE  0ACD               	incf	I2C_LCD_set_cursor@row,f
  1853  05EF  300D               	movlw	13
  1854  05F0  00D8               	movwf	??_main
  1855  05F1  0858               	movf	??_main,w
  1856  05F2  00CE               	movwf	I2C_LCD_set_cursor@colomn
  1857  05F3  120A  158A  27AA  120A  118A  	fcall	_I2C_LCD_set_cursor
  1858  05F8                     l2076:	
  1859                           
  1860                           ;I2C_24C64_EEPROM_Firmware.c: 72:             I2C_LCD_write_string(LCD1, spage_num);
  1861  05F8  1283               	bcf	3,5	;RP0=0, select bank0
  1862  05F9  1303               	bcf	3,6	;RP1=0, select bank0
  1863  05FA  0848               	movf	_LCD1+1,w
  1864  05FB  00CC               	movwf	I2C_LCD_write_string@LCD_Obj+1
  1865  05FC  0847               	movf	_LCD1,w
  1866  05FD  00CB               	movwf	I2C_LCD_write_string@LCD_Obj
  1867  05FE  305D               	movlw	(low (main@spage_num| 0))& (0+255)
  1868  05FF  00CD               	movwf	I2C_LCD_write_string@str
  1869  0600  3000               	movlw	0
  1870  0601  00CE               	movwf	I2C_LCD_write_string@str+1
  1871  0602  120A  158A  2756  120A  118A  	fcall	_I2C_LCD_write_string
  1872  0607                     l2078:	
  1873                           
  1874                           ;I2C_24C64_EEPROM_Firmware.c: 73:             I2C_LCD_set_cursor(LCD1,3,2);
  1875  0607  1283               	bcf	3,5	;RP0=0, select bank0
  1876  0608  1303               	bcf	3,6	;RP1=0, select bank0
  1877  0609  0848               	movf	_LCD1+1,w
  1878  060A  00CC               	movwf	I2C_LCD_set_cursor@LCD_Obj+1
  1879  060B  0847               	movf	_LCD1,w
  1880  060C  00CB               	movwf	I2C_LCD_set_cursor@LCD_Obj
  1881  060D  3003               	movlw	3
  1882  060E  00D8               	movwf	??_main
  1883  060F  0858               	movf	??_main,w
  1884  0610  00CD               	movwf	I2C_LCD_set_cursor@row
  1885  0611  3002               	movlw	2
  1886  0612  00D9               	movwf	??_main+1
  1887  0613  0859               	movf	??_main+1,w
  1888  0614  00CE               	movwf	I2C_LCD_set_cursor@colomn
  1889  0615  120A  158A  27AA  120A  118A  	fcall	_I2C_LCD_set_cursor
  1890  061A                     l2080:	
  1891                           
  1892                           ;I2C_24C64_EEPROM_Firmware.c: 74:             I2C_LCD_write_string(LCD1,"ERASING..");
  1893  061A  1283               	bcf	3,5	;RP0=0, select bank0
  1894  061B  1303               	bcf	3,6	;RP1=0, select bank0
  1895  061C  0848               	movf	_LCD1+1,w
  1896  061D  00CC               	movwf	I2C_LCD_write_string@LCD_Obj+1
  1897  061E  0847               	movf	_LCD1,w
  1898  061F  00CB               	movwf	I2C_LCD_write_string@LCD_Obj
  1899  0620  3066               	movlw	(low ((STR_5-__stringbase)| (0+32768)))& (0+255)
  1900  0621  00CD               	movwf	I2C_LCD_write_string@str
  1901  0622  3080               	movlw	128
  1902  0623  00CE               	movwf	I2C_LCD_write_string@str+1
  1903  0624  120A  158A  2756  120A  118A  	fcall	_I2C_LCD_write_string
  1904  0629                     l2082:	
  1905                           
  1906                           ;I2C_24C64_EEPROM_Firmware.c: 75:             for(int i=0;i<32;i++){
  1907  0629  1283               	bcf	3,5	;RP0=0, select bank0
  1908  062A  1303               	bcf	3,6	;RP1=0, select bank0
  1909  062B  01E0               	clrf	main@i_151
  1910  062C  01E1               	clrf	main@i_151+1
  1911  062D                     l2088:	
  1912                           
  1913                           ;I2C_24C64_EEPROM_Firmware.c: 76:                 I2C_EEPROM_Byte_Write(0xA0, EE_Add+(32
      +                          *page_num)+i, 255);I2C_LCD_set_cursor(LCD1,2,1);
  1914  062D  1283               	bcf	3,5	;RP0=0, select bank0
  1915  062E  1303               	bcf	3,6	;RP1=0, select bank0
  1916  062F  0865               	movf	main@page_num+1,w
  1917  0630  00D9               	movwf	??_main+1
  1918  0631  0864               	movf	main@page_num,w
  1919  0632  00D8               	movwf	??_main
  1920  0633  3005               	movlw	5
  1921  0634  00FF               	movwf	btemp+1
  1922  0635                     u1505:	
  1923  0635  1003               	clrc
  1924  0636  0DD8               	rlf	??_main,f
  1925  0637  0DD9               	rlf	??_main+1,f
  1926  0638  0BFF               	decfsz	btemp+1,f
  1927  0639  2E35               	goto	u1505
  1928  063A  0860               	movf	main@i_151,w
  1929  063B  0758               	addwf	??_main,w
  1930  063C  00F2               	movwf	I2C_EEPROM_Byte_Write@EEPROM_Address
  1931  063D  0861               	movf	main@i_151+1,w
  1932  063E  1803               	skipnc
  1933  063F  0A61               	incf	main@i_151+1,w
  1934  0640  0759               	addwf	??_main+1,w
  1935  0641  00F3               	movwf	I2C_EEPROM_Byte_Write@EEPROM_Address+1
  1936  0642  30FF               	movlw	255
  1937  0643  00DA               	movwf	??_main+2
  1938  0644  085A               	movf	??_main+2,w
  1939  0645  00F4               	movwf	I2C_EEPROM_Byte_Write@Data
  1940  0646  30A0               	movlw	160
  1941  0647  120A  158A  26BB  120A  118A  	fcall	_I2C_EEPROM_Byte_Write
  1942  064C                     l2090:	
  1943  064C  1283               	bcf	3,5	;RP0=0, select bank0
  1944  064D  1303               	bcf	3,6	;RP1=0, select bank0
  1945  064E  0848               	movf	_LCD1+1,w
  1946  064F  00CC               	movwf	I2C_LCD_set_cursor@LCD_Obj+1
  1947  0650  0847               	movf	_LCD1,w
  1948  0651  00CB               	movwf	I2C_LCD_set_cursor@LCD_Obj
  1949  0652  3002               	movlw	2
  1950  0653  00D8               	movwf	??_main
  1951  0654  0858               	movf	??_main,w
  1952  0655  00CD               	movwf	I2C_LCD_set_cursor@row
  1953  0656  01CE               	clrf	I2C_LCD_set_cursor@colomn
  1954  0657  0ACE               	incf	I2C_LCD_set_cursor@colomn,f
  1955  0658  120A  158A  27AA  120A  118A  	fcall	_I2C_LCD_set_cursor
  1956  065D                     l2092:	
  1957                           
  1958                           ;I2C_24C64_EEPROM_Firmware.c: 77:                 _delay((unsigned long)((5)*(20000000UL
      +                          /4000.0)));
  1959  065D  3021               	movlw	33
  1960  065E  1283               	bcf	3,5	;RP0=0, select bank0
  1961  065F  1303               	bcf	3,6	;RP1=0, select bank0
  1962  0660  00D9               	movwf	??_main+1
  1963  0661  3075               	movlw	117
  1964  0662  00D8               	movwf	??_main
  1965  0663                     u1687:	
  1966  0663  0BD8               	decfsz	??_main,f
  1967  0664  2E63               	goto	u1687
  1968  0665  0BD9               	decfsz	??_main+1,f
  1969  0666  2E63               	goto	u1687
  1970  0667  2E68               	nop2
  1971  0668                     l2094:	
  1972                           
  1973                           ;I2C_24C64_EEPROM_Firmware.c: 78:             }
  1974  0668  3001               	movlw	1
  1975  0669  1283               	bcf	3,5	;RP0=0, select bank0
  1976  066A  1303               	bcf	3,6	;RP1=0, select bank0
  1977  066B  07E0               	addwf	main@i_151,f
  1978  066C  1803               	skipnc
  1979  066D  0AE1               	incf	main@i_151+1,f
  1980  066E  3000               	movlw	0
  1981  066F  07E1               	addwf	main@i_151+1,f
  1982  0670                     l2096:	
  1983  0670  0861               	movf	main@i_151+1,w
  1984  0671  3A80               	xorlw	128
  1985  0672  00FF               	movwf	btemp+1
  1986  0673  3080               	movlw	128
  1987  0674  027F               	subwf	btemp+1,w
  1988  0675  1D03               	skipz
  1989  0676  2E79               	goto	u1515
  1990  0677  3020               	movlw	32
  1991  0678  0260               	subwf	main@i_151,w
  1992  0679                     u1515:	
  1993  0679  1C03               	skipc
  1994  067A  2E7C               	goto	u1511
  1995  067B  2E7D               	goto	u1510
  1996  067C                     u1511:	
  1997  067C  2E2D               	goto	l2088
  1998  067D                     u1510:	
  1999  067D                     l2098:	
  2000                           
  2001                           ;I2C_24C64_EEPROM_Firmware.c: 79:             I2C_LCD_set_cursor(LCD1,3,2);
  2002  067D  1283               	bcf	3,5	;RP0=0, select bank0
  2003  067E  1303               	bcf	3,6	;RP1=0, select bank0
  2004  067F  0848               	movf	_LCD1+1,w
  2005  0680  00CC               	movwf	I2C_LCD_set_cursor@LCD_Obj+1
  2006  0681  0847               	movf	_LCD1,w
  2007  0682  00CB               	movwf	I2C_LCD_set_cursor@LCD_Obj
  2008  0683  3003               	movlw	3
  2009  0684  00D8               	movwf	??_main
  2010  0685  0858               	movf	??_main,w
  2011  0686  00CD               	movwf	I2C_LCD_set_cursor@row
  2012  0687  3002               	movlw	2
  2013  0688  00D9               	movwf	??_main+1
  2014  0689  0859               	movf	??_main+1,w
  2015  068A  00CE               	movwf	I2C_LCD_set_cursor@colomn
  2016  068B  120A  158A  27AA  120A  118A  	fcall	_I2C_LCD_set_cursor
  2017  0690                     l2100:	
  2018                           
  2019                           ;I2C_24C64_EEPROM_Firmware.c: 80:             I2C_LCD_write_string(LCD1,"ERASED COMPLETE
      +                          D.");
  2020  0690  1283               	bcf	3,5	;RP0=0, select bank0
  2021  0691  1303               	bcf	3,6	;RP1=0, select bank0
  2022  0692  0848               	movf	_LCD1+1,w
  2023  0693  00CC               	movwf	I2C_LCD_write_string@LCD_Obj+1
  2024  0694  0847               	movf	_LCD1,w
  2025  0695  00CB               	movwf	I2C_LCD_write_string@LCD_Obj
  2026  0696  3036               	movlw	(low ((STR_6-__stringbase)| (0+32768)))& (0+255)
  2027  0697  00CD               	movwf	I2C_LCD_write_string@str
  2028  0698  3080               	movlw	128
  2029  0699  00CE               	movwf	I2C_LCD_write_string@str+1
  2030  069A  120A  158A  2756  120A  118A  	fcall	_I2C_LCD_write_string
  2031  069F                     l2102:	
  2032                           
  2033                           ;I2C_24C64_EEPROM_Firmware.c: 81:             _delay((unsigned long)((250)*(20000000UL/4
      +                          000.0)));
  2034  069F  3007               	movlw	7
  2035  06A0  1283               	bcf	3,5	;RP0=0, select bank0
  2036  06A1  1303               	bcf	3,6	;RP1=0, select bank0
  2037  06A2  00DA               	movwf	??_main+2
  2038  06A3  3058               	movlw	88
  2039  06A4  00D9               	movwf	??_main+1
  2040  06A5  3059               	movlw	89
  2041  06A6  00D8               	movwf	??_main
  2042  06A7                     u1697:	
  2043  06A7  0BD8               	decfsz	??_main,f
  2044  06A8  2EA7               	goto	u1697
  2045  06A9  0BD9               	decfsz	??_main+1,f
  2046  06AA  2EA7               	goto	u1697
  2047  06AB  0BDA               	decfsz	??_main+2,f
  2048  06AC  2EA7               	goto	u1697
  2049  06AD                     l2104:	
  2050                           
  2051                           ;I2C_24C64_EEPROM_Firmware.c: 82:             old_page_num = -1;
  2052  06AD  30FF               	movlw	255
  2053  06AE  1283               	bcf	3,5	;RP0=0, select bank0
  2054  06AF  1303               	bcf	3,6	;RP1=0, select bank0
  2055  06B0  00DB               	movwf	main@old_page_num
  2056  06B1  30FF               	movlw	255
  2057  06B2  00DC               	movwf	main@old_page_num+1
  2058  06B3  2FC9               	goto	l2134
  2059  06B4                     l55:	
  2060                           
  2061                           ;I2C_24C64_EEPROM_Firmware.c: 85:         while(page_num != old_page_num){
  2062  06B4  2FC9               	goto	l2134
  2063  06B5                     l2106:	
  2064                           
  2065                           ;I2C_24C64_EEPROM_Firmware.c: 86:             I2C_EEPROM_Sequential_Read(0xA0, EE_Add+(3
      +                          2*page_num), reader_data_buffer_L, 16);
  2066  06B5  0865               	movf	main@page_num+1,w
  2067  06B6  00D9               	movwf	??_main+1
  2068  06B7  0864               	movf	main@page_num,w
  2069  06B8  00D8               	movwf	??_main
  2070  06B9  3005               	movlw	5
  2071  06BA  00FF               	movwf	btemp+1
  2072  06BB                     u1525:	
  2073  06BB  1003               	clrc
  2074  06BC  0DD8               	rlf	??_main,f
  2075  06BD  0DD9               	rlf	??_main+1,f
  2076  06BE  0BFF               	decfsz	btemp+1,f
  2077  06BF  2EBB               	goto	u1525
  2078  06C0  0858               	movf	??_main,w
  2079  06C1  00F3               	movwf	I2C_EEPROM_Sequential_Read@EEPROM_Address
  2080  06C2  0859               	movf	??_main+1,w
  2081  06C3  00F4               	movwf	I2C_EEPROM_Sequential_Read@EEPROM_Address+1
  2082  06C4  3025               	movlw	(low (_reader_data_buffer_L| 0))& (0+255)
  2083  06C5  00DA               	movwf	??_main+2
  2084  06C6  085A               	movf	??_main+2,w
  2085  06C7  00F5               	movwf	I2C_EEPROM_Sequential_Read@Data_Buffer
  2086  06C8  3010               	movlw	16
  2087  06C9  00F6               	movwf	I2C_EEPROM_Sequential_Read@Length_of_Data
  2088  06CA  3000               	movlw	0
  2089  06CB  00F7               	movwf	I2C_EEPROM_Sequential_Read@Length_of_Data+1
  2090  06CC  30A0               	movlw	160
  2091  06CD  120A  118A  2286  120A  118A  	fcall	_I2C_EEPROM_Sequential_Read
  2092                           
  2093                           ;I2C_24C64_EEPROM_Firmware.c: 87:             I2C_EEPROM_Sequential_Read(0xA0, EE_Add+((
      +                          32*page_num)+16), reader_data_buffer_H, 16);
  2094  06D2  1283               	bcf	3,5	;RP0=0, select bank0
  2095  06D3  1303               	bcf	3,6	;RP1=0, select bank0
  2096  06D4  0865               	movf	main@page_num+1,w
  2097  06D5  00D9               	movwf	??_main+1
  2098  06D6  0864               	movf	main@page_num,w
  2099  06D7  00D8               	movwf	??_main
  2100  06D8  3005               	movlw	5
  2101  06D9  00FF               	movwf	btemp+1
  2102  06DA                     u1535:	
  2103  06DA  1003               	clrc
  2104  06DB  0DD8               	rlf	??_main,f
  2105  06DC  0DD9               	rlf	??_main+1,f
  2106  06DD  0BFF               	decfsz	btemp+1,f
  2107  06DE  2EDA               	goto	u1535
  2108  06DF  0858               	movf	??_main,w
  2109  06E0  3E10               	addlw	16
  2110  06E1  00F3               	movwf	I2C_EEPROM_Sequential_Read@EEPROM_Address
  2111  06E2  0859               	movf	??_main+1,w
  2112  06E3  1803               	skipnc
  2113  06E4  3E01               	addlw	1
  2114  06E5  3E00               	addlw	0
  2115  06E6  00F4               	movwf	I2C_EEPROM_Sequential_Read@EEPROM_Address+1
  2116  06E7  3036               	movlw	(low (_reader_data_buffer_H| 0))& (0+255)
  2117  06E8  00DA               	movwf	??_main+2
  2118  06E9  085A               	movf	??_main+2,w
  2119  06EA  00F5               	movwf	I2C_EEPROM_Sequential_Read@Data_Buffer
  2120  06EB  3010               	movlw	16
  2121  06EC  00F6               	movwf	I2C_EEPROM_Sequential_Read@Length_of_Data
  2122  06ED  3000               	movlw	0
  2123  06EE  00F7               	movwf	I2C_EEPROM_Sequential_Read@Length_of_Data+1
  2124  06EF  30A0               	movlw	160
  2125  06F0  120A  118A  2286  120A  118A  	fcall	_I2C_EEPROM_Sequential_Read
  2126                           
  2127                           ;I2C_24C64_EEPROM_Firmware.c: 89:             sprintf(spage_num, "%d", page_num);
  2128  06F5  3078               	movlw	(low ((STR_7-__stringbase)| (0+32768)))& (0+255)
  2129  06F6  1283               	bcf	3,5	;RP0=0, select bank0
  2130  06F7  1303               	bcf	3,6	;RP1=0, select bank0
  2131  06F8  00D8               	movwf	??_main
  2132  06F9  0858               	movf	??_main,w
  2133  06FA  00C9               	movwf	sprintf@f
  2134  06FB  0865               	movf	main@page_num+1,w
  2135  06FC  00CB               	movwf	?_sprintf+2
  2136  06FD  0864               	movf	main@page_num,w
  2137  06FE  00CA               	movwf	?_sprintf+1
  2138  06FF  305D               	movlw	(low (main@spage_num| 0))& (0+255)
  2139  0700  120A  118A  2328  120A  118A  	fcall	_sprintf
  2140  0705                     l2108:	
  2141                           
  2142                           ;I2C_24C64_EEPROM_Firmware.c: 91:             I2C_LCD_clear(LCD1);
  2143  0705  1283               	bcf	3,5	;RP0=0, select bank0
  2144  0706  1303               	bcf	3,6	;RP1=0, select bank0
  2145  0707  0848               	movf	_LCD1+1,w
  2146  0708  00CC               	movwf	I2C_LCD_clear@LCD_Obj+1
  2147  0709  0847               	movf	_LCD1,w
  2148  070A  00CB               	movwf	I2C_LCD_clear@LCD_Obj
  2149  070B  120A  158A  25CA  120A  118A  	fcall	_I2C_LCD_clear
  2150  0710                     l2110:	
  2151                           
  2152                           ;I2C_24C64_EEPROM_Firmware.c: 92:             I2C_LCD_write_string(LCD1, "EEPROM PAGE:")
      +                          ;
  2153  0710  1283               	bcf	3,5	;RP0=0, select bank0
  2154  0711  1303               	bcf	3,6	;RP1=0, select bank0
  2155  0712  0848               	movf	_LCD1+1,w
  2156  0713  00CC               	movwf	I2C_LCD_write_string@LCD_Obj+1
  2157  0714  0847               	movf	_LCD1,w
  2158  0715  00CB               	movwf	I2C_LCD_write_string@LCD_Obj
  2159  0716  3059               	movlw	(low ((STR_4-__stringbase)| (0+32768)))& (0+255)
  2160  0717  00CD               	movwf	I2C_LCD_write_string@str
  2161  0718  3080               	movlw	128
  2162  0719  00CE               	movwf	I2C_LCD_write_string@str+1
  2163  071A  120A  158A  2756  120A  118A  	fcall	_I2C_LCD_write_string
  2164  071F                     l2112:	
  2165                           
  2166                           ;I2C_24C64_EEPROM_Firmware.c: 93:             I2C_LCD_set_cursor(LCD1, 1, 13);
  2167  071F  1283               	bcf	3,5	;RP0=0, select bank0
  2168  0720  1303               	bcf	3,6	;RP1=0, select bank0
  2169  0721  0848               	movf	_LCD1+1,w
  2170  0722  00CC               	movwf	I2C_LCD_set_cursor@LCD_Obj+1
  2171  0723  0847               	movf	_LCD1,w
  2172  0724  00CB               	movwf	I2C_LCD_set_cursor@LCD_Obj
  2173  0725  01CD               	clrf	I2C_LCD_set_cursor@row
  2174  0726  0ACD               	incf	I2C_LCD_set_cursor@row,f
  2175  0727  300D               	movlw	13
  2176  0728  00D8               	movwf	??_main
  2177  0729  0858               	movf	??_main,w
  2178  072A  00CE               	movwf	I2C_LCD_set_cursor@colomn
  2179  072B  120A  158A  27AA  120A  118A  	fcall	_I2C_LCD_set_cursor
  2180  0730                     l2114:	
  2181                           
  2182                           ;I2C_24C64_EEPROM_Firmware.c: 94:             I2C_LCD_write_string(LCD1, spage_num);
  2183  0730  1283               	bcf	3,5	;RP0=0, select bank0
  2184  0731  1303               	bcf	3,6	;RP1=0, select bank0
  2185  0732  0848               	movf	_LCD1+1,w
  2186  0733  00CC               	movwf	I2C_LCD_write_string@LCD_Obj+1
  2187  0734  0847               	movf	_LCD1,w
  2188  0735  00CB               	movwf	I2C_LCD_write_string@LCD_Obj
  2189  0736  305D               	movlw	(low (main@spage_num| 0))& (0+255)
  2190  0737  00CD               	movwf	I2C_LCD_write_string@str
  2191  0738  3000               	movlw	0
  2192  0739  00CE               	movwf	I2C_LCD_write_string@str+1
  2193  073A  120A  158A  2756  120A  118A  	fcall	_I2C_LCD_write_string
  2194  073F                     l2116:	
  2195                           
  2196                           ;I2C_24C64_EEPROM_Firmware.c: 96:             I2C_LCD_set_cursor(LCD1, 2, 1);
  2197  073F  1283               	bcf	3,5	;RP0=0, select bank0
  2198  0740  1303               	bcf	3,6	;RP1=0, select bank0
  2199  0741  0848               	movf	_LCD1+1,w
  2200  0742  00CC               	movwf	I2C_LCD_set_cursor@LCD_Obj+1
  2201  0743  0847               	movf	_LCD1,w
  2202  0744  00CB               	movwf	I2C_LCD_set_cursor@LCD_Obj
  2203  0745  3002               	movlw	2
  2204  0746  00D8               	movwf	??_main
  2205  0747  0858               	movf	??_main,w
  2206  0748  00CD               	movwf	I2C_LCD_set_cursor@row
  2207  0749  01CE               	clrf	I2C_LCD_set_cursor@colomn
  2208  074A  0ACE               	incf	I2C_LCD_set_cursor@colomn,f
  2209  074B  120A  158A  27AA  120A  118A  	fcall	_I2C_LCD_set_cursor
  2210  0750                     l2118:	
  2211                           
  2212                           ;I2C_24C64_EEPROM_Firmware.c: 97:             I2C_LCD_write_string(LCD1, " 0.");
  2213  0750  1283               	bcf	3,5	;RP0=0, select bank0
  2214  0751  1303               	bcf	3,6	;RP1=0, select bank0
  2215  0752  0848               	movf	_LCD1+1,w
  2216  0753  00CC               	movwf	I2C_LCD_write_string@LCD_Obj+1
  2217  0754  0847               	movf	_LCD1,w
  2218  0755  00CB               	movwf	I2C_LCD_write_string@LCD_Obj
  2219  0756  3070               	movlw	(low ((STR_9-__stringbase)| (0+32768)))& (0+255)
  2220  0757  00CD               	movwf	I2C_LCD_write_string@str
  2221  0758  3080               	movlw	128
  2222  0759  00CE               	movwf	I2C_LCD_write_string@str+1
  2223  075A  120A  158A  2756  120A  118A  	fcall	_I2C_LCD_write_string
  2224  075F                     l2120:	
  2225                           
  2226                           ;I2C_24C64_EEPROM_Firmware.c: 98:             I2C_LCD_set_cursor(LCD1, 2, 5);
  2227  075F  1283               	bcf	3,5	;RP0=0, select bank0
  2228  0760  1303               	bcf	3,6	;RP1=0, select bank0
  2229  0761  0848               	movf	_LCD1+1,w
  2230  0762  00CC               	movwf	I2C_LCD_set_cursor@LCD_Obj+1
  2231  0763  0847               	movf	_LCD1,w
  2232  0764  00CB               	movwf	I2C_LCD_set_cursor@LCD_Obj
  2233  0765  3002               	movlw	2
  2234  0766  00D8               	movwf	??_main
  2235  0767  0858               	movf	??_main,w
  2236  0768  00CD               	movwf	I2C_LCD_set_cursor@row
  2237  0769  3005               	movlw	5
  2238  076A  00D9               	movwf	??_main+1
  2239  076B  0859               	movf	??_main+1,w
  2240  076C  00CE               	movwf	I2C_LCD_set_cursor@colomn
  2241  076D  120A  158A  27AA  120A  118A  	fcall	_I2C_LCD_set_cursor
  2242  0772                     l2122:	
  2243                           
  2244                           ;I2C_24C64_EEPROM_Firmware.c: 99:             I2C_LCD_write_string(LCD1, reader_data_buf
      +                          fer_L);
  2245  0772  1283               	bcf	3,5	;RP0=0, select bank0
  2246  0773  1303               	bcf	3,6	;RP1=0, select bank0
  2247  0774  0848               	movf	_LCD1+1,w
  2248  0775  00CC               	movwf	I2C_LCD_write_string@LCD_Obj+1
  2249  0776  0847               	movf	_LCD1,w
  2250  0777  00CB               	movwf	I2C_LCD_write_string@LCD_Obj
  2251  0778  3025               	movlw	(low (_reader_data_buffer_L| 0))& (0+255)
  2252  0779  00CD               	movwf	I2C_LCD_write_string@str
  2253  077A  3000               	movlw	0
  2254  077B  00CE               	movwf	I2C_LCD_write_string@str+1
  2255  077C  120A  158A  2756  120A  118A  	fcall	_I2C_LCD_write_string
  2256  0781                     l2124:	
  2257                           
  2258                           ;I2C_24C64_EEPROM_Firmware.c: 101:             I2C_LCD_set_cursor(LCD1, 3, 1);
  2259  0781  1283               	bcf	3,5	;RP0=0, select bank0
  2260  0782  1303               	bcf	3,6	;RP1=0, select bank0
  2261  0783  0848               	movf	_LCD1+1,w
  2262  0784  00CC               	movwf	I2C_LCD_set_cursor@LCD_Obj+1
  2263  0785  0847               	movf	_LCD1,w
  2264  0786  00CB               	movwf	I2C_LCD_set_cursor@LCD_Obj
  2265  0787  3003               	movlw	3
  2266  0788  00D8               	movwf	??_main
  2267  0789  0858               	movf	??_main,w
  2268  078A  00CD               	movwf	I2C_LCD_set_cursor@row
  2269  078B  01CE               	clrf	I2C_LCD_set_cursor@colomn
  2270  078C  0ACE               	incf	I2C_LCD_set_cursor@colomn,f
  2271  078D  120A  158A  27AA  120A  118A  	fcall	_I2C_LCD_set_cursor
  2272  0792                     l2126:	
  2273                           
  2274                           ;I2C_24C64_EEPROM_Firmware.c: 102:             I2C_LCD_write_string(LCD1, "16.");
  2275  0792  1283               	bcf	3,5	;RP0=0, select bank0
  2276  0793  1303               	bcf	3,6	;RP1=0, select bank0
  2277  0794  0848               	movf	_LCD1+1,w
  2278  0795  00CC               	movwf	I2C_LCD_write_string@LCD_Obj+1
  2279  0796  0847               	movf	_LCD1,w
  2280  0797  00CB               	movwf	I2C_LCD_write_string@LCD_Obj
  2281  0798  3074               	movlw	(low ((STR_10-__stringbase)| (0+32768)))& (0+255)
  2282  0799  00CD               	movwf	I2C_LCD_write_string@str
  2283  079A  3080               	movlw	128
  2284  079B  00CE               	movwf	I2C_LCD_write_string@str+1
  2285  079C  120A  158A  2756  120A  118A  	fcall	_I2C_LCD_write_string
  2286  07A1                     l2128:	
  2287                           
  2288                           ;I2C_24C64_EEPROM_Firmware.c: 103:             I2C_LCD_set_cursor(LCD1, 3, 5);
  2289  07A1  1283               	bcf	3,5	;RP0=0, select bank0
  2290  07A2  1303               	bcf	3,6	;RP1=0, select bank0
  2291  07A3  0848               	movf	_LCD1+1,w
  2292  07A4  00CC               	movwf	I2C_LCD_set_cursor@LCD_Obj+1
  2293  07A5  0847               	movf	_LCD1,w
  2294  07A6  00CB               	movwf	I2C_LCD_set_cursor@LCD_Obj
  2295  07A7  3003               	movlw	3
  2296  07A8  00D8               	movwf	??_main
  2297  07A9  0858               	movf	??_main,w
  2298  07AA  00CD               	movwf	I2C_LCD_set_cursor@row
  2299  07AB  3005               	movlw	5
  2300  07AC  00D9               	movwf	??_main+1
  2301  07AD  0859               	movf	??_main+1,w
  2302  07AE  00CE               	movwf	I2C_LCD_set_cursor@colomn
  2303  07AF  120A  158A  27AA  120A  118A  	fcall	_I2C_LCD_set_cursor
  2304  07B4                     l2130:	
  2305                           
  2306                           ;I2C_24C64_EEPROM_Firmware.c: 104:             I2C_LCD_write_string(LCD1, reader_data_bu
      +                          ffer_H);
  2307  07B4  1283               	bcf	3,5	;RP0=0, select bank0
  2308  07B5  1303               	bcf	3,6	;RP1=0, select bank0
  2309  07B6  0848               	movf	_LCD1+1,w
  2310  07B7  00CC               	movwf	I2C_LCD_write_string@LCD_Obj+1
  2311  07B8  0847               	movf	_LCD1,w
  2312  07B9  00CB               	movwf	I2C_LCD_write_string@LCD_Obj
  2313  07BA  3036               	movlw	(low (_reader_data_buffer_H| 0))& (0+255)
  2314  07BB  00CD               	movwf	I2C_LCD_write_string@str
  2315  07BC  3000               	movlw	0
  2316  07BD  00CE               	movwf	I2C_LCD_write_string@str+1
  2317  07BE  120A  158A  2756  120A  118A  	fcall	_I2C_LCD_write_string
  2318  07C3                     l2132:	
  2319                           
  2320                           ;I2C_24C64_EEPROM_Firmware.c: 106:             old_page_num = page_num;
  2321  07C3  1283               	bcf	3,5	;RP0=0, select bank0
  2322  07C4  1303               	bcf	3,6	;RP1=0, select bank0
  2323  07C5  0865               	movf	main@page_num+1,w
  2324  07C6  00DC               	movwf	main@old_page_num+1
  2325  07C7  0864               	movf	main@page_num,w
  2326  07C8  00DB               	movwf	main@old_page_num
  2327  07C9                     l2134:	
  2328                           
  2329                           ;I2C_24C64_EEPROM_Firmware.c: 85:         while(page_num != old_page_num){
  2330  07C9  1283               	bcf	3,5	;RP0=0, select bank0
  2331  07CA  1303               	bcf	3,6	;RP1=0, select bank0
  2332  07CB  085C               	movf	main@old_page_num+1,w
  2333  07CC  0665               	xorwf	main@page_num+1,w
  2334  07CD  1D03               	skipz
  2335  07CE  2FD1               	goto	u1545
  2336  07CF  085B               	movf	main@old_page_num,w
  2337  07D0  0664               	xorwf	main@page_num,w
  2338  07D1                     u1545:	
  2339  07D1  1D03               	skipz
  2340  07D2  2FD4               	goto	u1541
  2341  07D3  2FD5               	goto	u1540
  2342  07D4                     u1541:	
  2343  07D4  2EB5               	goto	l2106
  2344  07D5                     u1540:	
  2345  07D5  2D8B               	goto	l2054
  2346  07D6  120A  118A  2800   	ljmp	start
  2347  07D9                     __end_of_main:	
  2348                           
  2349                           	psect	text1
  2350  0328                     __ptext1:	
  2351 ;; *************** function _sprintf *****************
  2352 ;; Defined at:
  2353 ;;		line 505 in file "C:\Program Files (x86)\Microchip\xc8\v2.10\pic\sources\c90\common\doprnt.c"
  2354 ;; Parameters:    Size  Location     Type
  2355 ;;  sp              1    wreg     PTR unsigned char 
  2356 ;;		 -> main@spage_num(3), 
  2357 ;;  f               1    0[BANK0 ] PTR const unsigned char 
  2358 ;;		 -> STR_7(3), 
  2359 ;; Auto vars:     Size  Location     Type
  2360 ;;  sp              1   11[BANK0 ] PTR unsigned char 
  2361 ;;		 -> main@spage_num(3), 
  2362 ;;  tmpval          4    0        struct .
  2363 ;;  val             2    9[BANK0 ] unsigned int 
  2364 ;;  cp              2    0        PTR const unsigned char 
  2365 ;;  len             2    0        unsigned int 
  2366 ;;  c               1   12[BANK0 ] unsigned char 
  2367 ;;  prec            1    8[BANK0 ] char 
  2368 ;;  flag            1    7[BANK0 ] unsigned char 
  2369 ;;  ap              1    6[BANK0 ] PTR void [1]
  2370 ;;		 -> ?_sprintf(2), 
  2371 ;; Return value:  Size  Location     Type
  2372 ;;                  2    0[BANK0 ] int 
  2373 ;; Registers used:
  2374 ;;		wreg, fsr0l, fsr0h, status,2, status,0, btemp+1, pclath, cstack
  2375 ;; Tracked objects:
  2376 ;;		On entry : 0/0
  2377 ;;		On exit  : 0/0
  2378 ;;		Unchanged: 0/0
  2379 ;; Data sizes:     COMMON   BANK0   BANK1   BANK3   BANK2
  2380 ;;      Params:         0       3       0       0       0
  2381 ;;      Locals:         0       7       0       0       0
  2382 ;;      Temps:          0       3       0       0       0
  2383 ;;      Totals:         0      13       0       0       0
  2384 ;;Total ram usage:       13 bytes
  2385 ;; Hardware stack levels used:    1
  2386 ;; Hardware stack levels required when called:    1
  2387 ;; This function calls:
  2388 ;;		___lwdiv
  2389 ;;		___lwmod
  2390 ;; This function is called by:
  2391 ;;		_main
  2392 ;; This function uses a non-reentrant model
  2393 ;;
  2394                           
  2395                           
  2396                           ;psect for function _sprintf
  2397  0328                     _sprintf:	
  2398                           
  2399                           ;incstack = 0
  2400                           ; Regs used in _sprintf: [wreg-fsr0h+status,2+status,0+btemp+1+pclath+cstack]
  2401                           ;sprintf@sp stored from wreg
  2402  0328  1283               	bcf	3,5	;RP0=0, select bank0
  2403  0329  1303               	bcf	3,6	;RP1=0, select bank0
  2404  032A  00D4               	movwf	sprintf@sp
  2405  032B                     l1948:	
  2406                           
  2407                           ;C:\Program Files (x86)\Microchip\xc8\v2.10\pic\sources\c90\common\doprnt.c: 505: sprint
      +                          f(char * sp, const char * f, ...);C:\Program Files (x86)\Microchip\xc8\v2.10\pic\sources
      +                          \c90\common\doprnt.c: 506: {;C:\Program Files (x86)\Microchip\xc8\v2.10\pic\sources\c90\
      +                          common\doprnt.c: 507:  va_list ap;;C:\Program Files (x86)\Microchip\xc8\v2.10\pic\source
      +                          s\c90\common\doprnt.c: 512:  char c;;C:\Program Files (x86)\Microchip\xc8\v2.10\pic\sour
      +                          ces\c90\common\doprnt.c: 521:  signed char prec;;C:\Program Files (x86)\Microchip\xc8\v2
      +                          .10\pic\sources\c90\common\doprnt.c: 525:  unsigned char flag;
  2408  032B  304A               	movlw	(low ((?_sprintf| 0+1)))& (0+255)
  2409  032C  00CC               	movwf	??_sprintf
  2410  032D  084C               	movf	??_sprintf,w
  2411  032E  00CF               	movwf	sprintf@ap
  2412                           
  2413                           ;C:\Program Files (x86)\Microchip\xc8\v2.10\pic\sources\c90\common\doprnt.c: 553:  while
      +                          ((c = *f++)) {
  2414  032F  2BF9               	goto	l2000
  2415  0330                     l1950:	
  2416                           
  2417                           ;C:\Program Files (x86)\Microchip\xc8\v2.10\pic\sources\c90\common\doprnt.c: 555:   if(c
      +                           != '%')
  2418  0330  3025               	movlw	37
  2419  0331  0655               	xorwf	sprintf@c,w
  2420  0332  1903               	btfsc	3,2
  2421  0333  2B35               	goto	u1341
  2422  0334  2B36               	goto	u1340
  2423  0335                     u1341:	
  2424  0335  2B42               	goto	l1956
  2425  0336                     u1340:	
  2426  0336                     l1952:	
  2427                           
  2428                           ;C:\Program Files (x86)\Microchip\xc8\v2.10\pic\sources\c90\common\doprnt.c: 557:   {;C:
      +                          \Program Files (x86)\Microchip\xc8\v2.10\pic\sources\c90\common\doprnt.c: 558:    ((*sp+
      +                          + = (c)));
  2429  0336  0855               	movf	sprintf@c,w
  2430  0337  00CC               	movwf	??_sprintf
  2431  0338  0854               	movf	sprintf@sp,w
  2432  0339  0084               	movwf	4
  2433  033A  084C               	movf	??_sprintf,w
  2434  033B  1383               	bcf	3,7	;select IRP bank0
  2435  033C  0080               	movwf	0
  2436  033D                     l1954:	
  2437  033D  3001               	movlw	1
  2438  033E  00CC               	movwf	??_sprintf
  2439  033F  084C               	movf	??_sprintf,w
  2440  0340  07D4               	addwf	sprintf@sp,f
  2441                           
  2442                           ;C:\Program Files (x86)\Microchip\xc8\v2.10\pic\sources\c90\common\doprnt.c: 559:    con
      +                          tinue;
  2443  0341  2BF9               	goto	l2000
  2444  0342                     l1956:	
  2445                           
  2446                           ;C:\Program Files (x86)\Microchip\xc8\v2.10\pic\sources\c90\common\doprnt.c: 565:   flag
      +                           = 0;
  2447  0342  01D0               	clrf	sprintf@flag
  2448  0343                     l1960:	
  2449                           ;C:\Program Files (x86)\Microchip\xc8\v2.10\pic\sources\c90\common\doprnt.c: 661:   swit
      +                          ch(c = *f++) {
  2450                           
  2451  0343  3001               	movlw	1
  2452  0344  07C9               	addwf	sprintf@f,f
  2453  0345  30FF               	movlw	-1
  2454  0346  0749               	addwf	sprintf@f,w
  2455  0347  0084               	movwf	4
  2456  0348  120A  118A  201C  120A  118A  	fcall	stringdir
  2457  034D  00D5               	movwf	sprintf@c
  2458  034E  00CC               	movwf	??_sprintf
  2459  034F  01CD               	clrf	??_sprintf+1
  2460                           
  2461                           ; Switch on 2 bytes has been partitioned into a top level switch of size 1, and 1 sub-sw
      +                          itches
  2462                           ; Switch size 1, requested type "simple"
  2463                           ; Number of cases is 1, Range of values is 0 to 0
  2464                           ; switch strategies available:
  2465                           ; Name         Instructions Cycles
  2466                           ; simple_byte            4     3 (average)
  2467                           ; direct_byte           11     8 (fixed)
  2468                           ; jumptable            260     6 (fixed)
  2469                           ;	Chosen strategy is simple_byte
  2470  0350  084D               	movf	??_sprintf+1,w
  2471  0351  3A00               	xorlw	0	; case 0
  2472  0352  1903               	skipnz
  2473  0353  2B55               	goto	l2254
  2474  0354  2BF9               	goto	l2000
  2475  0355                     l2254:	
  2476                           
  2477                           ; Switch size 1, requested type "simple"
  2478                           ; Number of cases is 3, Range of values is 0 to 105
  2479                           ; switch strategies available:
  2480                           ; Name         Instructions Cycles
  2481                           ; simple_byte           10     6 (average)
  2482                           ; jumptable            260     6 (fixed)
  2483                           ;	Chosen strategy is simple_byte
  2484  0355  084C               	movf	??_sprintf,w
  2485  0356  3A00               	xorlw	0	; case 0
  2486  0357  1903               	skipnz
  2487  0358  2C0B               	goto	l2002
  2488  0359  3A64               	xorlw	100	; case 100
  2489  035A  1903               	skipnz
  2490  035B  2B60               	goto	l1962
  2491  035C  3A0D               	xorlw	13	; case 105
  2492  035D  1903               	skipnz
  2493  035E  2B60               	goto	l1962
  2494  035F  2BF9               	goto	l2000
  2495  0360                     l1962:	
  2496                           
  2497                           ;C:\Program Files (x86)\Microchip\xc8\v2.10\pic\sources\c90\common\doprnt.c: 1279:   {;C
      +                          :\Program Files (x86)\Microchip\xc8\v2.10\pic\sources\c90\common\doprnt.c: 1285:     val
      +                           = (unsigned int)(*(int *)__va_arg((*(int **)ap), (int)0));
  2498  0360  084F               	movf	sprintf@ap,w
  2499  0361  0084               	movwf	4
  2500  0362  1383               	bcf	3,7	;select IRP bank0
  2501  0363  0800               	movf	0,w
  2502  0364  00D2               	movwf	sprintf@val
  2503  0365  0A84               	incf	4,f
  2504  0366  0800               	movf	0,w
  2505  0367  00D3               	movwf	sprintf@val+1
  2506  0368                     l1964:	
  2507  0368  3002               	movlw	2
  2508  0369  00CC               	movwf	??_sprintf
  2509  036A  084C               	movf	??_sprintf,w
  2510  036B  07CF               	addwf	sprintf@ap,f
  2511  036C                     l1966:	
  2512                           
  2513                           ;C:\Program Files (x86)\Microchip\xc8\v2.10\pic\sources\c90\common\doprnt.c: 1287:    if
      +                          ((int)val < 0) {
  2514  036C  1FD3               	btfss	sprintf@val+1,7
  2515  036D  2B6F               	goto	u1351
  2516  036E  2B70               	goto	u1350
  2517  036F                     u1351:	
  2518  036F  2B79               	goto	l1972
  2519  0370                     u1350:	
  2520  0370                     l1968:	
  2521                           
  2522                           ;C:\Program Files (x86)\Microchip\xc8\v2.10\pic\sources\c90\common\doprnt.c: 1288:     f
      +                          lag |= 0x03;
  2523  0370  3003               	movlw	3
  2524  0371  00CC               	movwf	??_sprintf
  2525  0372  084C               	movf	??_sprintf,w
  2526  0373  04D0               	iorwf	sprintf@flag,f
  2527  0374                     l1970:	
  2528                           
  2529                           ;C:\Program Files (x86)\Microchip\xc8\v2.10\pic\sources\c90\common\doprnt.c: 1289:     v
      +                          al = -val;
  2530  0374  09D2               	comf	sprintf@val,f
  2531  0375  09D3               	comf	sprintf@val+1,f
  2532  0376  0AD2               	incf	sprintf@val,f
  2533  0377  1903               	skipnz
  2534  0378  0AD3               	incf	sprintf@val+1,f
  2535  0379                     l1972:	
  2536                           
  2537                           ;C:\Program Files (x86)\Microchip\xc8\v2.10\pic\sources\c90\common\doprnt.c: 1292:   };C
      +                          :\Program Files (x86)\Microchip\xc8\v2.10\pic\sources\c90\common\doprnt.c: 1331:    for(
      +                          c = 1 ; c != sizeof dpowers/sizeof dpowers[0] ; c++)
  2538  0379  01D5               	clrf	sprintf@c
  2539  037A  0AD5               	incf	sprintf@c,f
  2540  037B                     l1978:	
  2541                           
  2542                           ;C:\Program Files (x86)\Microchip\xc8\v2.10\pic\sources\c90\common\doprnt.c: 1332:     i
      +                          f(val < dpowers[c])
  2543  037B  0855               	movf	sprintf@c,w
  2544  037C  00CC               	movwf	??_sprintf
  2545  037D  074C               	addwf	??_sprintf,w
  2546  037E  3E01               	addlw	low ((_dpowers-__stringbase)| (0+32768))
  2547  037F  0084               	movwf	4
  2548  0380  120A  118A  201C  120A  118A  	fcall	stringdir
  2549  0385  00CD               	movwf	??_sprintf+1
  2550  0386  120A  118A  201C  120A  118A  	fcall	stringdir
  2551  038B  00CE               	movwf	??_sprintf+2
  2552  038C  084E               	movf	??_sprintf+2,w
  2553  038D  0253               	subwf	sprintf@val+1,w
  2554  038E  1D03               	skipz
  2555  038F  2B92               	goto	u1365
  2556  0390  084D               	movf	??_sprintf+1,w
  2557  0391  0252               	subwf	sprintf@val,w
  2558  0392                     u1365:	
  2559  0392  1803               	skipnc
  2560  0393  2B95               	goto	u1361
  2561  0394  2B96               	goto	u1360
  2562  0395                     u1361:	
  2563  0395  2B97               	goto	l1982
  2564  0396                     u1360:	
  2565  0396  2BA1               	goto	l1984
  2566  0397                     l1982:	
  2567  0397  3001               	movlw	1
  2568  0398  00CC               	movwf	??_sprintf
  2569  0399  084C               	movf	??_sprintf,w
  2570  039A  07D5               	addwf	sprintf@c,f
  2571  039B  3005               	movlw	5
  2572  039C  0655               	xorwf	sprintf@c,w
  2573  039D  1D03               	btfss	3,2
  2574  039E  2BA0               	goto	u1371
  2575  039F  2BA1               	goto	u1370
  2576  03A0                     u1371:	
  2577  03A0  2B7B               	goto	l1978
  2578  03A1                     u1370:	
  2579  03A1                     l1984:	
  2580                           
  2581                           ;C:\Program Files (x86)\Microchip\xc8\v2.10\pic\sources\c90\common\doprnt.c: 1448:   {;C
      +                          :\Program Files (x86)\Microchip\xc8\v2.10\pic\sources\c90\common\doprnt.c: 1464:    if(f
      +                          lag & 0x03)
  2582  03A1  0850               	movf	sprintf@flag,w
  2583  03A2  3903               	andlw	3
  2584  03A3  1903               	btfsc	3,2
  2585  03A4  2BA6               	goto	u1381
  2586  03A5  2BA7               	goto	u1380
  2587  03A6                     u1381:	
  2588  03A6  2BB2               	goto	l1990
  2589  03A7                     u1380:	
  2590  03A7                     l1986:	
  2591                           
  2592                           ;C:\Program Files (x86)\Microchip\xc8\v2.10\pic\sources\c90\common\doprnt.c: 1465:     (
      +                          (*sp++ = ('-')));
  2593  03A7  302D               	movlw	45
  2594  03A8  00CC               	movwf	??_sprintf
  2595  03A9  0854               	movf	sprintf@sp,w
  2596  03AA  0084               	movwf	4
  2597  03AB  084C               	movf	??_sprintf,w
  2598  03AC  1383               	bcf	3,7	;select IRP bank0
  2599  03AD  0080               	movwf	0
  2600  03AE                     l1988:	
  2601  03AE  3001               	movlw	1
  2602  03AF  00CC               	movwf	??_sprintf
  2603  03B0  084C               	movf	??_sprintf,w
  2604  03B1  07D4               	addwf	sprintf@sp,f
  2605  03B2                     l1990:	
  2606                           
  2607                           ;C:\Program Files (x86)\Microchip\xc8\v2.10\pic\sources\c90\common\doprnt.c: 1495:   };C
      +                          :\Program Files (x86)\Microchip\xc8\v2.10\pic\sources\c90\common\doprnt.c: 1498:   prec 
      +                          = c;
  2608  03B2  0855               	movf	sprintf@c,w
  2609  03B3  00CC               	movwf	??_sprintf
  2610  03B4  084C               	movf	??_sprintf,w
  2611  03B5  00D1               	movwf	sprintf@prec
  2612                           
  2613                           ;C:\Program Files (x86)\Microchip\xc8\v2.10\pic\sources\c90\common\doprnt.c: 1500:   whi
      +                          le(prec--) {
  2614  03B6  2BF0               	goto	l1998
  2615  03B7                     l1992:	
  2616                           
  2617                           ;C:\Program Files (x86)\Microchip\xc8\v2.10\pic\sources\c90\common\doprnt.c: 1504:    {;
      +                          C:\Program Files (x86)\Microchip\xc8\v2.10\pic\sources\c90\common\doprnt.c: 1515:     c 
      +                          = (val / dpowers[(unsigned char)prec]) % 10 + '0';
  2618  03B7  300A               	movlw	10
  2619  03B8  00F8               	movwf	___lwmod@divisor
  2620  03B9  3000               	movlw	0
  2621  03BA  00F9               	movwf	___lwmod@divisor+1
  2622  03BB  0851               	movf	sprintf@prec,w
  2623  03BC  00CC               	movwf	??_sprintf
  2624  03BD  074C               	addwf	??_sprintf,w
  2625  03BE  3E01               	addlw	low ((_dpowers-__stringbase)| (0+32768))
  2626  03BF  0084               	movwf	4
  2627  03C0  120A  118A  201C  120A  118A  	fcall	stringdir
  2628  03C5  00F0               	movwf	___lwdiv@divisor
  2629  03C6  120A  118A  201C  120A  118A  	fcall	stringdir
  2630  03CB  00F1               	movwf	___lwdiv@divisor+1
  2631  03CC  0853               	movf	sprintf@val+1,w
  2632  03CD  00F3               	movwf	___lwdiv@dividend+1
  2633  03CE  0852               	movf	sprintf@val,w
  2634  03CF  00F2               	movwf	___lwdiv@dividend
  2635  03D0  120A  158A  2677  120A  118A  	fcall	___lwdiv
  2636  03D5  0871               	movf	?___lwdiv+1,w
  2637  03D6  00FB               	movwf	___lwmod@dividend+1
  2638  03D7  0870               	movf	?___lwdiv,w
  2639  03D8  00FA               	movwf	___lwmod@dividend
  2640  03D9  120A  118A  20A3  120A  118A  	fcall	___lwmod
  2641  03DE  0878               	movf	?___lwmod,w
  2642  03DF  3E30               	addlw	48
  2643  03E0  1283               	bcf	3,5	;RP0=0, select bank0
  2644  03E1  1303               	bcf	3,6	;RP1=0, select bank0
  2645  03E2  00CD               	movwf	??_sprintf+1
  2646  03E3  084D               	movf	??_sprintf+1,w
  2647  03E4  00D5               	movwf	sprintf@c
  2648  03E5                     l1994:	
  2649                           
  2650                           ;C:\Program Files (x86)\Microchip\xc8\v2.10\pic\sources\c90\common\doprnt.c: 1549:    };
      +                          C:\Program Files (x86)\Microchip\xc8\v2.10\pic\sources\c90\common\doprnt.c: 1550:    ((*
      +                          sp++ = (c)));
  2651  03E5  0855               	movf	sprintf@c,w
  2652  03E6  00CC               	movwf	??_sprintf
  2653  03E7  0854               	movf	sprintf@sp,w
  2654  03E8  0084               	movwf	4
  2655  03E9  084C               	movf	??_sprintf,w
  2656  03EA  1383               	bcf	3,7	;select IRP bank0
  2657  03EB  0080               	movwf	0
  2658  03EC                     l1996:	
  2659  03EC  3001               	movlw	1
  2660  03ED  00CC               	movwf	??_sprintf
  2661  03EE  084C               	movf	??_sprintf,w
  2662  03EF  07D4               	addwf	sprintf@sp,f
  2663  03F0                     l1998:	
  2664                           
  2665                           ;C:\Program Files (x86)\Microchip\xc8\v2.10\pic\sources\c90\common\doprnt.c: 1500:   whi
      +                          le(prec--) {
  2666  03F0  30FF               	movlw	255
  2667  03F1  00CC               	movwf	??_sprintf
  2668  03F2  084C               	movf	??_sprintf,w
  2669  03F3  07D1               	addwf	sprintf@prec,f
  2670  03F4  0A51               	incf	sprintf@prec,w
  2671  03F5  1D03               	btfss	3,2
  2672  03F6  2BF8               	goto	u1391
  2673  03F7  2BF9               	goto	u1390
  2674  03F8                     u1391:	
  2675  03F8  2BB7               	goto	l1992
  2676  03F9                     u1390:	
  2677  03F9                     l2000:	
  2678                           
  2679                           ;C:\Program Files (x86)\Microchip\xc8\v2.10\pic\sources\c90\common\doprnt.c: 553:  while
      +                          ((c = *f++)) {
  2680  03F9  3001               	movlw	1
  2681  03FA  07C9               	addwf	sprintf@f,f
  2682  03FB  30FF               	movlw	-1
  2683  03FC  0749               	addwf	sprintf@f,w
  2684  03FD  0084               	movwf	4
  2685  03FE  120A  118A  201C  120A  118A  	fcall	stringdir
  2686  0403  00CC               	movwf	??_sprintf
  2687  0404  084C               	movf	??_sprintf,w
  2688  0405  00D5               	movwf	sprintf@c
  2689  0406  0855               	movf	sprintf@c,w
  2690  0407  1D03               	btfss	3,2
  2691  0408  2C0A               	goto	u1401
  2692  0409  2C0B               	goto	u1400
  2693  040A                     u1401:	
  2694  040A  2B30               	goto	l1950
  2695  040B                     u1400:	
  2696  040B                     l2002:	
  2697                           
  2698                           ;C:\Program Files (x86)\Microchip\xc8\v2.10\pic\sources\c90\common\doprnt.c: 1564:  *sp 
      +                          = 0;
  2699  040B  0854               	movf	sprintf@sp,w
  2700  040C  0084               	movwf	4
  2701  040D  1383               	bcf	3,7	;select IRP bank0
  2702  040E  0180               	clrf	0
  2703  040F                     l416:	
  2704  040F  0008               	return
  2705  0410                     __end_of_sprintf:	
  2706                           
  2707                           	psect	text2
  2708  00A3                     __ptext2:	
  2709 ;; *************** function ___lwmod *****************
  2710 ;; Defined at:
  2711 ;;		line 5 in file "C:\Program Files (x86)\Microchip\xc8\v2.10\pic\sources\c90\common\lwmod.c"
  2712 ;; Parameters:    Size  Location     Type
  2713 ;;  divisor         2    8[COMMON] unsigned int 
  2714 ;;  dividend        2   10[COMMON] unsigned int 
  2715 ;; Auto vars:     Size  Location     Type
  2716 ;;  counter         1   13[COMMON] unsigned char 
  2717 ;; Return value:  Size  Location     Type
  2718 ;;                  2    8[COMMON] unsigned int 
  2719 ;; Registers used:
  2720 ;;		wreg, status,2, status,0
  2721 ;; Tracked objects:
  2722 ;;		On entry : 0/0
  2723 ;;		On exit  : 0/0
  2724 ;;		Unchanged: 0/0
  2725 ;; Data sizes:     COMMON   BANK0   BANK1   BANK3   BANK2
  2726 ;;      Params:         4       0       0       0       0
  2727 ;;      Locals:         1       0       0       0       0
  2728 ;;      Temps:          1       0       0       0       0
  2729 ;;      Totals:         6       0       0       0       0
  2730 ;;Total ram usage:        6 bytes
  2731 ;; Hardware stack levels used:    1
  2732 ;; This function calls:
  2733 ;;		Nothing
  2734 ;; This function is called by:
  2735 ;;		_sprintf
  2736 ;; This function uses a non-reentrant model
  2737 ;;
  2738                           
  2739                           
  2740                           ;psect for function ___lwmod
  2741  00A3                     ___lwmod:	
  2742  00A3                     l1756:	
  2743                           ;incstack = 0
  2744                           ; Regs used in ___lwmod: [wreg+status,2+status,0]
  2745                           
  2746  00A3  0878               	movf	___lwmod@divisor,w
  2747  00A4  0479               	iorwf	___lwmod@divisor+1,w
  2748  00A5  1903               	btfsc	3,2
  2749  00A6  28A8               	goto	u1111
  2750  00A7  28A9               	goto	u1110
  2751  00A8                     u1111:	
  2752  00A8  28D8               	goto	l1774
  2753  00A9                     u1110:	
  2754  00A9                     l1758:	
  2755  00A9  01FD               	clrf	___lwmod@counter
  2756  00AA  0AFD               	incf	___lwmod@counter,f
  2757  00AB  28B7               	goto	l1764
  2758  00AC                     l1760:	
  2759  00AC  3001               	movlw	1
  2760  00AD                     u1125:	
  2761  00AD  1003               	clrc
  2762  00AE  0DF8               	rlf	___lwmod@divisor,f
  2763  00AF  0DF9               	rlf	___lwmod@divisor+1,f
  2764  00B0  3EFF               	addlw	-1
  2765  00B1  1D03               	skipz
  2766  00B2  28AD               	goto	u1125
  2767  00B3                     l1762:	
  2768  00B3  3001               	movlw	1
  2769  00B4  00FC               	movwf	??___lwmod
  2770  00B5  087C               	movf	??___lwmod,w
  2771  00B6  07FD               	addwf	___lwmod@counter,f
  2772  00B7                     l1764:	
  2773  00B7  1FF9               	btfss	___lwmod@divisor+1,7
  2774  00B8  28BA               	goto	u1131
  2775  00B9  28BB               	goto	u1130
  2776  00BA                     u1131:	
  2777  00BA  28AC               	goto	l1760
  2778  00BB                     u1130:	
  2779  00BB                     l1766:	
  2780  00BB  0879               	movf	___lwmod@divisor+1,w
  2781  00BC  027B               	subwf	___lwmod@dividend+1,w
  2782  00BD  1D03               	skipz
  2783  00BE  28C1               	goto	u1145
  2784  00BF  0878               	movf	___lwmod@divisor,w
  2785  00C0  027A               	subwf	___lwmod@dividend,w
  2786  00C1                     u1145:	
  2787  00C1  1C03               	skipc
  2788  00C2  28C4               	goto	u1141
  2789  00C3  28C5               	goto	u1140
  2790  00C4                     u1141:	
  2791  00C4  28CB               	goto	l1770
  2792  00C5                     u1140:	
  2793  00C5                     l1768:	
  2794  00C5  0878               	movf	___lwmod@divisor,w
  2795  00C6  02FA               	subwf	___lwmod@dividend,f
  2796  00C7  0879               	movf	___lwmod@divisor+1,w
  2797  00C8  1C03               	skipc
  2798  00C9  03FB               	decf	___lwmod@dividend+1,f
  2799  00CA  02FB               	subwf	___lwmod@dividend+1,f
  2800  00CB                     l1770:	
  2801  00CB  3001               	movlw	1
  2802  00CC                     u1155:	
  2803  00CC  1003               	clrc
  2804  00CD  0CF9               	rrf	___lwmod@divisor+1,f
  2805  00CE  0CF8               	rrf	___lwmod@divisor,f
  2806  00CF  3EFF               	addlw	-1
  2807  00D0  1D03               	skipz
  2808  00D1  28CC               	goto	u1155
  2809  00D2                     l1772:	
  2810  00D2  3001               	movlw	1
  2811  00D3  02FD               	subwf	___lwmod@counter,f
  2812  00D4  1D03               	btfss	3,2
  2813  00D5  28D7               	goto	u1161
  2814  00D6  28D8               	goto	u1160
  2815  00D7                     u1161:	
  2816  00D7  28BB               	goto	l1766
  2817  00D8                     u1160:	
  2818  00D8                     l1774:	
  2819  00D8  087B               	movf	___lwmod@dividend+1,w
  2820  00D9  00F9               	movwf	?___lwmod+1
  2821  00DA  087A               	movf	___lwmod@dividend,w
  2822  00DB  00F8               	movwf	?___lwmod
  2823  00DC                     l702:	
  2824  00DC  0008               	return
  2825  00DD                     __end_of___lwmod:	
  2826                           
  2827                           	psect	text3
  2828  0E77                     __ptext3:	
  2829 ;; *************** function ___lwdiv *****************
  2830 ;; Defined at:
  2831 ;;		line 5 in file "C:\Program Files (x86)\Microchip\xc8\v2.10\pic\sources\c90\common\lwdiv.c"
  2832 ;; Parameters:    Size  Location     Type
  2833 ;;  divisor         2    0[COMMON] unsigned int 
  2834 ;;  dividend        2    2[COMMON] unsigned int 
  2835 ;; Auto vars:     Size  Location     Type
  2836 ;;  quotient        2    5[COMMON] unsigned int 
  2837 ;;  counter         1    7[COMMON] unsigned char 
  2838 ;; Return value:  Size  Location     Type
  2839 ;;                  2    0[COMMON] unsigned int 
  2840 ;; Registers used:
  2841 ;;		wreg, status,2, status,0
  2842 ;; Tracked objects:
  2843 ;;		On entry : 0/0
  2844 ;;		On exit  : 0/0
  2845 ;;		Unchanged: 0/0
  2846 ;; Data sizes:     COMMON   BANK0   BANK1   BANK3   BANK2
  2847 ;;      Params:         4       0       0       0       0
  2848 ;;      Locals:         3       0       0       0       0
  2849 ;;      Temps:          1       0       0       0       0
  2850 ;;      Totals:         8       0       0       0       0
  2851 ;;Total ram usage:        8 bytes
  2852 ;; Hardware stack levels used:    1
  2853 ;; This function calls:
  2854 ;;		Nothing
  2855 ;; This function is called by:
  2856 ;;		_sprintf
  2857 ;; This function uses a non-reentrant model
  2858 ;;
  2859                           
  2860                           
  2861                           ;psect for function ___lwdiv
  2862  0E77                     ___lwdiv:	
  2863  0E77                     l1730:	
  2864                           ;incstack = 0
  2865                           ; Regs used in ___lwdiv: [wreg+status,2+status,0]
  2866                           
  2867  0E77  01F5               	clrf	___lwdiv@quotient
  2868  0E78  01F6               	clrf	___lwdiv@quotient+1
  2869  0E79                     l1732:	
  2870  0E79  0870               	movf	___lwdiv@divisor,w
  2871  0E7A  0471               	iorwf	___lwdiv@divisor+1,w
  2872  0E7B  1903               	btfsc	3,2
  2873  0E7C  2E7E               	goto	u1041
  2874  0E7D  2E7F               	goto	u1040
  2875  0E7E                     u1041:	
  2876  0E7E  2EB6               	goto	l1752
  2877  0E7F                     u1040:	
  2878  0E7F                     l1734:	
  2879  0E7F  01F7               	clrf	___lwdiv@counter
  2880  0E80  0AF7               	incf	___lwdiv@counter,f
  2881  0E81  2E8D               	goto	l1740
  2882  0E82                     l1736:	
  2883  0E82  3001               	movlw	1
  2884  0E83                     u1055:	
  2885  0E83  1003               	clrc
  2886  0E84  0DF0               	rlf	___lwdiv@divisor,f
  2887  0E85  0DF1               	rlf	___lwdiv@divisor+1,f
  2888  0E86  3EFF               	addlw	-1
  2889  0E87  1D03               	skipz
  2890  0E88  2E83               	goto	u1055
  2891  0E89                     l1738:	
  2892  0E89  3001               	movlw	1
  2893  0E8A  00F4               	movwf	??___lwdiv
  2894  0E8B  0874               	movf	??___lwdiv,w
  2895  0E8C  07F7               	addwf	___lwdiv@counter,f
  2896  0E8D                     l1740:	
  2897  0E8D  1FF1               	btfss	___lwdiv@divisor+1,7
  2898  0E8E  2E90               	goto	u1061
  2899  0E8F  2E91               	goto	u1060
  2900  0E90                     u1061:	
  2901  0E90  2E82               	goto	l1736
  2902  0E91                     u1060:	
  2903  0E91                     l1742:	
  2904  0E91  3001               	movlw	1
  2905  0E92                     u1075:	
  2906  0E92  1003               	clrc
  2907  0E93  0DF5               	rlf	___lwdiv@quotient,f
  2908  0E94  0DF6               	rlf	___lwdiv@quotient+1,f
  2909  0E95  3EFF               	addlw	-1
  2910  0E96  1D03               	skipz
  2911  0E97  2E92               	goto	u1075
  2912  0E98  0871               	movf	___lwdiv@divisor+1,w
  2913  0E99  0273               	subwf	___lwdiv@dividend+1,w
  2914  0E9A  1D03               	skipz
  2915  0E9B  2E9E               	goto	u1085
  2916  0E9C  0870               	movf	___lwdiv@divisor,w
  2917  0E9D  0272               	subwf	___lwdiv@dividend,w
  2918  0E9E                     u1085:	
  2919  0E9E  1C03               	skipc
  2920  0E9F  2EA1               	goto	u1081
  2921  0EA0  2EA2               	goto	u1080
  2922  0EA1                     u1081:	
  2923  0EA1  2EA9               	goto	l1748
  2924  0EA2                     u1080:	
  2925  0EA2                     l1744:	
  2926  0EA2  0870               	movf	___lwdiv@divisor,w
  2927  0EA3  02F2               	subwf	___lwdiv@dividend,f
  2928  0EA4  0871               	movf	___lwdiv@divisor+1,w
  2929  0EA5  1C03               	skipc
  2930  0EA6  03F3               	decf	___lwdiv@dividend+1,f
  2931  0EA7  02F3               	subwf	___lwdiv@dividend+1,f
  2932  0EA8                     l1746:	
  2933  0EA8  1475               	bsf	___lwdiv@quotient,0
  2934  0EA9                     l1748:	
  2935  0EA9  3001               	movlw	1
  2936  0EAA                     u1095:	
  2937  0EAA  1003               	clrc
  2938  0EAB  0CF1               	rrf	___lwdiv@divisor+1,f
  2939  0EAC  0CF0               	rrf	___lwdiv@divisor,f
  2940  0EAD  3EFF               	addlw	-1
  2941  0EAE  1D03               	skipz
  2942  0EAF  2EAA               	goto	u1095
  2943  0EB0                     l1750:	
  2944  0EB0  3001               	movlw	1
  2945  0EB1  02F7               	subwf	___lwdiv@counter,f
  2946  0EB2  1D03               	btfss	3,2
  2947  0EB3  2EB5               	goto	u1101
  2948  0EB4  2EB6               	goto	u1100
  2949  0EB5                     u1101:	
  2950  0EB5  2E91               	goto	l1742
  2951  0EB6                     u1100:	
  2952  0EB6                     l1752:	
  2953  0EB6  0876               	movf	___lwdiv@quotient+1,w
  2954  0EB7  00F1               	movwf	?___lwdiv+1
  2955  0EB8  0875               	movf	___lwdiv@quotient,w
  2956  0EB9  00F0               	movwf	?___lwdiv
  2957  0EBA                     l692:	
  2958  0EBA  0008               	return
  2959  0EBB                     __end_of___lwdiv:	
  2960                           
  2961                           	psect	text4
  2962  0D0C                     __ptext4:	
  2963 ;; *************** function _Initial_Configurations *****************
  2964 ;; Defined at:
  2965 ;;		line 13 in file "configurations.c"
  2966 ;; Parameters:    Size  Location     Type
  2967 ;;		None
  2968 ;; Auto vars:     Size  Location     Type
  2969 ;;		None
  2970 ;; Return value:  Size  Location     Type
  2971 ;;                  1    wreg      void 
  2972 ;; Registers used:
  2973 ;;		wreg, status,2
  2974 ;; Tracked objects:
  2975 ;;		On entry : 0/0
  2976 ;;		On exit  : 0/0
  2977 ;;		Unchanged: 0/0
  2978 ;; Data sizes:     COMMON   BANK0   BANK1   BANK3   BANK2
  2979 ;;      Params:         0       0       0       0       0
  2980 ;;      Locals:         0       0       0       0       0
  2981 ;;      Temps:          0       0       0       0       0
  2982 ;;      Totals:         0       0       0       0       0
  2983 ;;Total ram usage:        0 bytes
  2984 ;; Hardware stack levels used:    1
  2985 ;; This function calls:
  2986 ;;		Nothing
  2987 ;; This function is called by:
  2988 ;;		_main
  2989 ;; This function uses a non-reentrant model
  2990 ;;
  2991                           
  2992                           
  2993                           ;psect for function _Initial_Configurations
  2994  0D0C                     _Initial_Configurations:	
  2995  0D0C                     l1778:	
  2996                           ;incstack = 0
  2997                           ; Regs used in _Initial_Configurations: [wreg+status,2]
  2998                           
  2999                           
  3000                           ;configurations.c: 19:                 INTCONbits.PEIE = 0;
  3001  0D0C  130B               	bcf	11,6	;volatile
  3002                           
  3003                           ;configurations.c: 20:                 INTCONbits.GIE = 0;
  3004  0D0D  138B               	bcf	11,7	;volatile
  3005  0D0E                     l1780:	
  3006                           
  3007                           ;configurations.c: 35:                 TRISB = 0xFF;
  3008  0D0E  30FF               	movlw	255
  3009  0D0F  1683               	bsf	3,5	;RP0=1, select bank1
  3010  0D10  1303               	bcf	3,6	;RP1=0, select bank1
  3011  0D11  0086               	movwf	6	;volatile
  3012  0D12                     l1782:	
  3013                           
  3014                           ;configurations.c: 36:                 PORTB = 0x00;
  3015  0D12  1283               	bcf	3,5	;RP0=0, select bank0
  3016  0D13  1303               	bcf	3,6	;RP1=0, select bank0
  3017  0D14  0186               	clrf	6	;volatile
  3018  0D15                     l82:	
  3019  0D15  0008               	return
  3020  0D16                     __end_of_Initial_Configurations:	
  3021                           
  3022                           	psect	text5
  3023  0F07                     __ptext5:	
  3024 ;; *************** function _I2C_Master_Initialize *****************
  3025 ;; Defined at:
  3026 ;;		line 14 in file "I2C_v1.1.c"
  3027 ;; Parameters:    Size  Location     Type
  3028 ;;  I2C_BaudRate    4    0[BANK0 ] const unsigned long 
  3029 ;;  I2C_SMP_OnOf    1    4[BANK0 ] _Bool 
  3030 ;;  I2C_CKE_OnOf    1    5[BANK0 ] _Bool 
  3031 ;; Auto vars:     Size  Location     Type
  3032 ;;		None
  3033 ;; Return value:  Size  Location     Type
  3034 ;;                  1    wreg      void 
  3035 ;; Registers used:
  3036 ;;		wreg, status,2, status,0, pclath, cstack
  3037 ;; Tracked objects:
  3038 ;;		On entry : 0/0
  3039 ;;		On exit  : 0/0
  3040 ;;		Unchanged: 0/0
  3041 ;; Data sizes:     COMMON   BANK0   BANK1   BANK3   BANK2
  3042 ;;      Params:         0       6       0       0       0
  3043 ;;      Locals:         0       0       0       0       0
  3044 ;;      Temps:          0       4       0       0       0
  3045 ;;      Totals:         0      10       0       0       0
  3046 ;;Total ram usage:       10 bytes
  3047 ;; Hardware stack levels used:    1
  3048 ;; Hardware stack levels required when called:    1
  3049 ;; This function calls:
  3050 ;;		___lldiv
  3051 ;; This function is called by:
  3052 ;;		_main
  3053 ;; This function uses a non-reentrant model
  3054 ;;
  3055                           
  3056                           
  3057                           ;psect for function _I2C_Master_Initialize
  3058  0F07                     _I2C_Master_Initialize:	
  3059  0F07                     l1784:	
  3060                           ;incstack = 0
  3061                           ; Regs used in _I2C_Master_Initialize: [wreg+status,2+status,0+pclath+cstack]
  3062                           
  3063                           
  3064                           ;I2C_v1.1.c: 15:         SSPSTAT = (I2C_SMP_OnOff<<7)|(I2C_CKE_OnOff<<6);
  3065  0F07  1283               	bcf	3,5	;RP0=0, select bank0
  3066  0F08  1303               	bcf	3,6	;RP1=0, select bank0
  3067  0F09  084E               	movf	I2C_Master_Initialize@I2C_CKE_OnOff,w
  3068  0F0A  00CF               	movwf	??_I2C_Master_Initialize
  3069  0F0B  3006               	movlw	6
  3070  0F0C                     u1175:	
  3071  0F0C  1003               	clrc
  3072  0F0D  0DCF               	rlf	??_I2C_Master_Initialize,f
  3073  0F0E  3EFF               	addlw	-1
  3074  0F0F  1D03               	skipz
  3075  0F10  2F0C               	goto	u1175
  3076  0F11  084D               	movf	I2C_Master_Initialize@I2C_SMP_OnOff,w
  3077  0F12  00D0               	movwf	??_I2C_Master_Initialize+1
  3078  0F13  3006               	movlw	6
  3079  0F14                     u1185:	
  3080  0F14  1003               	clrc
  3081  0F15  0DD0               	rlf	??_I2C_Master_Initialize+1,f
  3082  0F16  3EFF               	addlw	-1
  3083  0F17  1D03               	skipz
  3084  0F18  2F14               	goto	u1185
  3085  0F19  1003               	clrc
  3086  0F1A  0D50               	rlf	??_I2C_Master_Initialize+1,w
  3087  0F1B  044F               	iorwf	??_I2C_Master_Initialize,w
  3088  0F1C  1683               	bsf	3,5	;RP0=1, select bank1
  3089  0F1D  1303               	bcf	3,6	;RP1=0, select bank1
  3090  0F1E  0094               	movwf	20	;volatile
  3091  0F1F                     l1786:	
  3092                           
  3093                           ;I2C_v1.1.c: 16:         SSPCON = 0b00101000;
  3094  0F1F  3028               	movlw	40
  3095  0F20  1283               	bcf	3,5	;RP0=0, select bank0
  3096  0F21  1303               	bcf	3,6	;RP1=0, select bank0
  3097  0F22  0094               	movwf	20	;volatile
  3098  0F23                     l1788:	
  3099                           
  3100                           ;I2C_v1.1.c: 17:         SSPCON2 = 0x00;
  3101  0F23  1683               	bsf	3,5	;RP0=1, select bank1
  3102  0F24  1303               	bcf	3,6	;RP1=0, select bank1
  3103  0F25  0191               	clrf	17	;volatile
  3104  0F26                     l1790:	
  3105                           
  3106                           ;I2C_v1.1.c: 18:         SSPADD = (20000000UL/(4*I2C_BaudRate)) - 1;
  3107  0F26  1283               	bcf	3,5	;RP0=0, select bank0
  3108  0F27  1303               	bcf	3,6	;RP1=0, select bank0
  3109  0F28  0849               	movf	I2C_Master_Initialize@I2C_BaudRate,w
  3110  0F29  00CF               	movwf	??_I2C_Master_Initialize
  3111  0F2A  084A               	movf	I2C_Master_Initialize@I2C_BaudRate+1,w
  3112  0F2B  00D0               	movwf	??_I2C_Master_Initialize+1
  3113  0F2C  084B               	movf	I2C_Master_Initialize@I2C_BaudRate+2,w
  3114  0F2D  00D1               	movwf	??_I2C_Master_Initialize+2
  3115  0F2E  084C               	movf	I2C_Master_Initialize@I2C_BaudRate+3,w
  3116  0F2F  00D2               	movwf	??_I2C_Master_Initialize+3
  3117  0F30  3002               	movlw	2
  3118  0F31                     u1195:	
  3119  0F31  1003               	clrc
  3120  0F32  0DCF               	rlf	??_I2C_Master_Initialize,f
  3121  0F33  0DD0               	rlf	??_I2C_Master_Initialize+1,f
  3122  0F34  0DD1               	rlf	??_I2C_Master_Initialize+2,f
  3123  0F35  0DD2               	rlf	??_I2C_Master_Initialize+3,f
  3124  0F36                     u1190:	
  3125  0F36  3EFF               	addlw	-1
  3126  0F37  1D03               	skipz
  3127  0F38  2F31               	goto	u1195
  3128  0F39  0852               	movf	??_I2C_Master_Initialize+3,w
  3129  0F3A  00F3               	movwf	___lldiv@divisor+3
  3130  0F3B  0851               	movf	??_I2C_Master_Initialize+2,w
  3131  0F3C  00F2               	movwf	___lldiv@divisor+2
  3132  0F3D  0850               	movf	??_I2C_Master_Initialize+1,w
  3133  0F3E  00F1               	movwf	___lldiv@divisor+1
  3134  0F3F  084F               	movf	??_I2C_Master_Initialize,w
  3135  0F40  00F0               	movwf	___lldiv@divisor
  3136  0F41  3001               	movlw	1
  3137  0F42  00F7               	movwf	___lldiv@dividend+3
  3138  0F43  3031               	movlw	49
  3139  0F44  00F6               	movwf	___lldiv@dividend+2
  3140  0F45  302D               	movlw	45
  3141  0F46  00F5               	movwf	___lldiv@dividend+1
  3142  0F47  3000               	movlw	0
  3143  0F48  00F4               	movwf	___lldiv@dividend
  3144  0F49  120A  118A  21A3  120A  158A  	fcall	___lldiv
  3145  0F4E  0870               	movf	?___lldiv,w
  3146  0F4F  3EFF               	addlw	255
  3147  0F50  1683               	bsf	3,5	;RP0=1, select bank1
  3148  0F51  1303               	bcf	3,6	;RP1=0, select bank1
  3149  0F52  0093               	movwf	19	;volatile
  3150  0F53                     l1792:	
  3151                           
  3152                           ;I2C_v1.1.c: 19:         TRISCbits.TRISC3 = 1;
  3153  0F53  1587               	bsf	7,3	;volatile
  3154  0F54                     l1794:	
  3155                           
  3156                           ;I2C_v1.1.c: 20:         TRISCbits.TRISC4 = 1;
  3157  0F54  1607               	bsf	7,4	;volatile
  3158  0F55                     l176:	
  3159  0F55  0008               	return
  3160  0F56                     __end_of_I2C_Master_Initialize:	
  3161                           
  3162                           	psect	text6
  3163  01A3                     __ptext6:	
  3164 ;; *************** function ___lldiv *****************
  3165 ;; Defined at:
  3166 ;;		line 5 in file "C:\Program Files (x86)\Microchip\xc8\v2.10\pic\sources\c90\common\__lldiv.c"
  3167 ;; Parameters:    Size  Location     Type
  3168 ;;  divisor         4    0[COMMON] unsigned long 
  3169 ;;  dividend        4    4[COMMON] unsigned long 
  3170 ;; Auto vars:     Size  Location     Type
  3171 ;;  quotient        4    9[COMMON] unsigned long 
  3172 ;;  counter         1   13[COMMON] unsigned char 
  3173 ;; Return value:  Size  Location     Type
  3174 ;;                  4    0[COMMON] unsigned long 
  3175 ;; Registers used:
  3176 ;;		wreg, status,2, status,0
  3177 ;; Tracked objects:
  3178 ;;		On entry : 0/0
  3179 ;;		On exit  : 0/0
  3180 ;;		Unchanged: 0/0
  3181 ;; Data sizes:     COMMON   BANK0   BANK1   BANK3   BANK2
  3182 ;;      Params:         8       0       0       0       0
  3183 ;;      Locals:         5       0       0       0       0
  3184 ;;      Temps:          1       0       0       0       0
  3185 ;;      Totals:        14       0       0       0       0
  3186 ;;Total ram usage:       14 bytes
  3187 ;; Hardware stack levels used:    1
  3188 ;; This function calls:
  3189 ;;		Nothing
  3190 ;; This function is called by:
  3191 ;;		_I2C_Master_Initialize
  3192 ;; This function uses a non-reentrant model
  3193 ;;
  3194                           
  3195                           
  3196                           ;psect for function ___lldiv
  3197  01A3                     ___lldiv:	
  3198  01A3                     l1706:	
  3199                           ;incstack = 0
  3200                           ; Regs used in ___lldiv: [wreg+status,2+status,0]
  3201                           
  3202  01A3  3000               	movlw	0
  3203  01A4  00FC               	movwf	___lldiv@quotient+3
  3204  01A5  3000               	movlw	0
  3205  01A6  00FB               	movwf	___lldiv@quotient+2
  3206  01A7  3000               	movlw	0
  3207  01A8  00FA               	movwf	___lldiv@quotient+1
  3208  01A9  3000               	movlw	0
  3209  01AA  00F9               	movwf	___lldiv@quotient
  3210  01AB  0873               	movf	___lldiv@divisor+3,w
  3211  01AC  0472               	iorwf	___lldiv@divisor+2,w
  3212  01AD  0471               	iorwf	___lldiv@divisor+1,w
  3213  01AE  0470               	iorwf	___lldiv@divisor,w
  3214  01AF  1903               	skipnz
  3215  01B0  29B2               	goto	u971
  3216  01B1  29B3               	goto	u970
  3217  01B2                     u971:	
  3218  01B2  2A00               	goto	l1726
  3219  01B3                     u970:	
  3220  01B3                     l1708:	
  3221  01B3  01FD               	clrf	___lldiv@counter
  3222  01B4  0AFD               	incf	___lldiv@counter,f
  3223  01B5  29C3               	goto	l1712
  3224  01B6                     l1710:	
  3225  01B6  3001               	movlw	1
  3226  01B7  00F8               	movwf	??___lldiv
  3227  01B8                     u985:	
  3228  01B8  1003               	clrc
  3229  01B9  0DF0               	rlf	___lldiv@divisor,f
  3230  01BA  0DF1               	rlf	___lldiv@divisor+1,f
  3231  01BB  0DF2               	rlf	___lldiv@divisor+2,f
  3232  01BC  0DF3               	rlf	___lldiv@divisor+3,f
  3233  01BD  0BF8               	decfsz	??___lldiv,f
  3234  01BE  29B8               	goto	u985
  3235  01BF  3001               	movlw	1
  3236  01C0  00F8               	movwf	??___lldiv
  3237  01C1  0878               	movf	??___lldiv,w
  3238  01C2  07FD               	addwf	___lldiv@counter,f
  3239  01C3                     l1712:	
  3240  01C3  1FF3               	btfss	___lldiv@divisor+3,7
  3241  01C4  29C6               	goto	u991
  3242  01C5  29C7               	goto	u990
  3243  01C6                     u991:	
  3244  01C6  29B6               	goto	l1710
  3245  01C7                     u990:	
  3246  01C7                     l1714:	
  3247  01C7  3001               	movlw	1
  3248  01C8  00F8               	movwf	??___lldiv
  3249  01C9                     u1005:	
  3250  01C9  1003               	clrc
  3251  01CA  0DF9               	rlf	___lldiv@quotient,f
  3252  01CB  0DFA               	rlf	___lldiv@quotient+1,f
  3253  01CC  0DFB               	rlf	___lldiv@quotient+2,f
  3254  01CD  0DFC               	rlf	___lldiv@quotient+3,f
  3255  01CE  0BF8               	decfsz	??___lldiv,f
  3256  01CF  29C9               	goto	u1005
  3257  01D0                     l1716:	
  3258  01D0  0873               	movf	___lldiv@divisor+3,w
  3259  01D1  0277               	subwf	___lldiv@dividend+3,w
  3260  01D2  1D03               	skipz
  3261  01D3  29DE               	goto	u1015
  3262  01D4  0872               	movf	___lldiv@divisor+2,w
  3263  01D5  0276               	subwf	___lldiv@dividend+2,w
  3264  01D6  1D03               	skipz
  3265  01D7  29DE               	goto	u1015
  3266  01D8  0871               	movf	___lldiv@divisor+1,w
  3267  01D9  0275               	subwf	___lldiv@dividend+1,w
  3268  01DA  1D03               	skipz
  3269  01DB  29DE               	goto	u1015
  3270  01DC  0870               	movf	___lldiv@divisor,w
  3271  01DD  0274               	subwf	___lldiv@dividend,w
  3272  01DE                     u1015:	
  3273  01DE  1C03               	skipc
  3274  01DF  29E1               	goto	u1011
  3275  01E0  29E2               	goto	u1010
  3276  01E1                     u1011:	
  3277  01E1  29F1               	goto	l1722
  3278  01E2                     u1010:	
  3279  01E2                     l1718:	
  3280  01E2  0870               	movf	___lldiv@divisor,w
  3281  01E3  02F4               	subwf	___lldiv@dividend,f
  3282  01E4  0871               	movf	___lldiv@divisor+1,w
  3283  01E5  1C03               	skipc
  3284  01E6  0F71               	incfsz	___lldiv@divisor+1,w
  3285  01E7  02F5               	subwf	___lldiv@dividend+1,f
  3286  01E8  0872               	movf	___lldiv@divisor+2,w
  3287  01E9  1C03               	skipc
  3288  01EA  0F72               	incfsz	___lldiv@divisor+2,w
  3289  01EB  02F6               	subwf	___lldiv@dividend+2,f
  3290  01EC  0873               	movf	___lldiv@divisor+3,w
  3291  01ED  1C03               	skipc
  3292  01EE  0F73               	incfsz	___lldiv@divisor+3,w
  3293  01EF  02F7               	subwf	___lldiv@dividend+3,f
  3294  01F0                     l1720:	
  3295  01F0  1479               	bsf	___lldiv@quotient,0
  3296  01F1                     l1722:	
  3297  01F1  3001               	movlw	1
  3298  01F2                     u1025:	
  3299  01F2  1003               	clrc
  3300  01F3  0CF3               	rrf	___lldiv@divisor+3,f
  3301  01F4  0CF2               	rrf	___lldiv@divisor+2,f
  3302  01F5  0CF1               	rrf	___lldiv@divisor+1,f
  3303  01F6  0CF0               	rrf	___lldiv@divisor,f
  3304  01F7  3EFF               	addlw	-1
  3305  01F8  1D03               	skipz
  3306  01F9  29F2               	goto	u1025
  3307  01FA                     l1724:	
  3308  01FA  3001               	movlw	1
  3309  01FB  02FD               	subwf	___lldiv@counter,f
  3310  01FC  1D03               	btfss	3,2
  3311  01FD  29FF               	goto	u1031
  3312  01FE  2A00               	goto	u1030
  3313  01FF                     u1031:	
  3314  01FF  29C7               	goto	l1714
  3315  0200                     u1030:	
  3316  0200                     l1726:	
  3317  0200  087C               	movf	___lldiv@quotient+3,w
  3318  0201  00F3               	movwf	?___lldiv+3
  3319  0202  087B               	movf	___lldiv@quotient+2,w
  3320  0203  00F2               	movwf	?___lldiv+2
  3321  0204  087A               	movf	___lldiv@quotient+1,w
  3322  0205  00F1               	movwf	?___lldiv+1
  3323  0206  0879               	movf	___lldiv@quotient,w
  3324  0207  00F0               	movwf	?___lldiv
  3325  0208                     l456:	
  3326  0208  0008               	return
  3327  0209                     __end_of___lldiv:	
  3328                           
  3329                           	psect	text7
  3330  0F56                     __ptext7:	
  3331 ;; *************** function _I2C_LCD_write_string *****************
  3332 ;; Defined at:
  3333 ;;		line 41 in file "I2C_LCD_v2.0.c"
  3334 ;; Parameters:    Size  Location     Type
  3335 ;;  LCD_Obj         2    2[BANK0 ] struct I2C_LCD
  3336 ;;  str             2    4[BANK0 ] PTR unsigned char 
  3337 ;;		 -> STR_10(4), STR_9(4), STR_8(13), reader_data_buffer_H(17), 
  3338 ;;		 -> reader_data_buffer_L(17), STR_6(18), STR_5(10), main@spage_num(3), 
  3339 ;;		 -> STR_4(13), STR_3(21), STR_2(21), STR_1(17), 
  3340 ;; Auto vars:     Size  Location     Type
  3341 ;;  i               1    7[BANK0 ] unsigned char 
  3342 ;; Return value:  Size  Location     Type
  3343 ;;                  1    wreg      void 
  3344 ;; Registers used:
  3345 ;;		wreg, fsr0l, fsr0h, status,2, status,0, btemp+1, pclath, cstack
  3346 ;; Tracked objects:
  3347 ;;		On entry : 0/0
  3348 ;;		On exit  : 0/0
  3349 ;;		Unchanged: 0/0
  3350 ;; Data sizes:     COMMON   BANK0   BANK1   BANK3   BANK2
  3351 ;;      Params:         0       4       0       0       0
  3352 ;;      Locals:         0       1       0       0       0
  3353 ;;      Temps:          0       1       0       0       0
  3354 ;;      Totals:         0       6       0       0       0
  3355 ;;Total ram usage:        6 bytes
  3356 ;; Hardware stack levels used:    1
  3357 ;; Hardware stack levels required when called:    5
  3358 ;; This function calls:
  3359 ;;		_I2C_LCD_write_char
  3360 ;;		_LCD_send_commad
  3361 ;; This function is called by:
  3362 ;;		_main
  3363 ;; This function uses a non-reentrant model
  3364 ;;
  3365                           
  3366                           
  3367                           ;psect for function _I2C_LCD_write_string
  3368  0F56                     _I2C_LCD_write_string:	
  3369  0F56                     l1832:	
  3370                           ;incstack = 0
  3371                           ; Regs used in _I2C_LCD_write_string: [wreg-fsr0h+status,2+status,0+btemp+1+pclath+cstac
      +                          k]
  3372                           
  3373                           
  3374                           ;I2C_LCD_v2.0.c: 42:         uint8_t i;;I2C_LCD_v2.0.c: 43:         for(i=0;str[i]!='\0'
      +                          ;i++){
  3375  0F56  1283               	bcf	3,5	;RP0=0, select bank0
  3376  0F57  1303               	bcf	3,6	;RP1=0, select bank0
  3377  0F58  01D0               	clrf	I2C_LCD_write_string@i
  3378  0F59  2F98               	goto	l1842
  3379  0F5A                     l1834:	
  3380                           
  3381                           ;I2C_LCD_v2.0.c: 44:             if(str[i]=='\n') p_LCD_send_commad(LCD_Obj, (0xC0 - 1))
      +                          ;
  3382  0F5A  0850               	movf	I2C_LCD_write_string@i,w
  3383  0F5B  074D               	addwf	I2C_LCD_write_string@str,w
  3384  0F5C  0084               	movwf	4
  3385  0F5D  084E               	movf	I2C_LCD_write_string@str+1,w
  3386  0F5E  1803               	skipnc
  3387  0F5F  0A4E               	incf	I2C_LCD_write_string@str+1,w
  3388  0F60  00FF               	movwf	btemp+1
  3389  0F61  120A  118A  2012  120A  158A  	fcall	stringtab
  3390  0F66  3A0A               	xorlw	10
  3391  0F67  1D03               	skipz
  3392  0F68  2F6A               	goto	u1201
  3393  0F69  2F6B               	goto	u1200
  3394  0F6A                     u1201:	
  3395  0F6A  2F78               	goto	l1838
  3396  0F6B                     u1200:	
  3397  0F6B                     l1836:	
  3398  0F6B  084C               	movf	I2C_LCD_write_string@LCD_Obj+1,w
  3399  0F6C  00FC               	movwf	LCD_send_commad@LCD_Obj+1
  3400  0F6D  084B               	movf	I2C_LCD_write_string@LCD_Obj,w
  3401  0F6E  00FB               	movwf	LCD_send_commad@LCD_Obj
  3402  0F6F  30BF               	movlw	191
  3403  0F70  00CF               	movwf	??_I2C_LCD_write_string
  3404  0F71  084F               	movf	??_I2C_LCD_write_string,w
  3405  0F72  00FD               	movwf	LCD_send_commad@cmd
  3406  0F73  120A  158A  2571  120A  158A  	fcall	_LCD_send_commad
  3407  0F78                     l1838:	
  3408                           
  3409                           ;I2C_LCD_v2.0.c: 45:             I2C_LCD_write_char(LCD_Obj, str[i]);
  3410  0F78  1283               	bcf	3,5	;RP0=0, select bank0
  3411  0F79  1303               	bcf	3,6	;RP1=0, select bank0
  3412  0F7A  084C               	movf	I2C_LCD_write_string@LCD_Obj+1,w
  3413  0F7B  00FC               	movwf	I2C_LCD_write_char@LCD_Obj+1
  3414  0F7C  084B               	movf	I2C_LCD_write_string@LCD_Obj,w
  3415  0F7D  00FB               	movwf	I2C_LCD_write_char@LCD_Obj
  3416  0F7E  0850               	movf	I2C_LCD_write_string@i,w
  3417  0F7F  074D               	addwf	I2C_LCD_write_string@str,w
  3418  0F80  0084               	movwf	4
  3419  0F81  084E               	movf	I2C_LCD_write_string@str+1,w
  3420  0F82  1803               	skipnc
  3421  0F83  0A4E               	incf	I2C_LCD_write_string@str+1,w
  3422  0F84  00FF               	movwf	btemp+1
  3423  0F85  120A  118A  2012  120A  158A  	fcall	stringtab
  3424  0F8A  00CF               	movwf	??_I2C_LCD_write_string
  3425  0F8B  084F               	movf	??_I2C_LCD_write_string,w
  3426  0F8C  00FD               	movwf	I2C_LCD_write_char@chr
  3427  0F8D  120A  158A  2586  120A  158A  	fcall	_I2C_LCD_write_char
  3428  0F92                     l1840:	
  3429                           
  3430                           ;I2C_LCD_v2.0.c: 46:         }
  3431  0F92  3001               	movlw	1
  3432  0F93  1283               	bcf	3,5	;RP0=0, select bank0
  3433  0F94  1303               	bcf	3,6	;RP1=0, select bank0
  3434  0F95  00CF               	movwf	??_I2C_LCD_write_string
  3435  0F96  084F               	movf	??_I2C_LCD_write_string,w
  3436  0F97  07D0               	addwf	I2C_LCD_write_string@i,f
  3437  0F98                     l1842:	
  3438  0F98  0850               	movf	I2C_LCD_write_string@i,w
  3439  0F99  074D               	addwf	I2C_LCD_write_string@str,w
  3440  0F9A  0084               	movwf	4
  3441  0F9B  084E               	movf	I2C_LCD_write_string@str+1,w
  3442  0F9C  1803               	skipnc
  3443  0F9D  0A4E               	incf	I2C_LCD_write_string@str+1,w
  3444  0F9E  00FF               	movwf	btemp+1
  3445  0F9F  120A  118A  2012  120A  158A  	fcall	stringtab
  3446  0FA4  3A00               	xorlw	0
  3447  0FA5  1D03               	skipz
  3448  0FA6  2FA8               	goto	u1211
  3449  0FA7  2FA9               	goto	u1210
  3450  0FA8                     u1211:	
  3451  0FA8  2F5A               	goto	l1834
  3452  0FA9                     u1210:	
  3453  0FA9                     l118:	
  3454  0FA9  0008               	return
  3455  0FAA                     __end_of_I2C_LCD_write_string:	
  3456                           
  3457                           	psect	text8
  3458  0D86                     __ptext8:	
  3459 ;; *************** function _I2C_LCD_write_char *****************
  3460 ;; Defined at:
  3461 ;;		line 36 in file "I2C_LCD_v2.0.c"
  3462 ;; Parameters:    Size  Location     Type
  3463 ;;  LCD_Obj         2   11[COMMON] struct I2C_LCD
  3464 ;;  chr             1   13[COMMON] unsigned char 
  3465 ;; Auto vars:     Size  Location     Type
  3466 ;;		None
  3467 ;; Return value:  Size  Location     Type
  3468 ;;                  1    wreg      void 
  3469 ;; Registers used:
  3470 ;;		wreg, status,2, status,0, pclath, cstack
  3471 ;; Tracked objects:
  3472 ;;		On entry : 0/0
  3473 ;;		On exit  : 0/0
  3474 ;;		Unchanged: 0/0
  3475 ;; Data sizes:     COMMON   BANK0   BANK1   BANK3   BANK2
  3476 ;;      Params:         3       0       0       0       0
  3477 ;;      Locals:         0       0       0       0       0
  3478 ;;      Temps:          0       2       0       0       0
  3479 ;;      Totals:         3       2       0       0       0
  3480 ;;Total ram usage:        5 bytes
  3481 ;; Hardware stack levels used:    1
  3482 ;; Hardware stack levels required when called:    4
  3483 ;; This function calls:
  3484 ;;		_LCD_data_sender
  3485 ;; This function is called by:
  3486 ;;		_I2C_LCD_write_string
  3487 ;; This function uses a non-reentrant model
  3488 ;;
  3489                           
  3490                           
  3491                           ;psect for function _I2C_LCD_write_char
  3492  0D86                     _I2C_LCD_write_char:	
  3493  0D86                     l1664:	
  3494                           ;incstack = 0
  3495                           ; Regs used in _I2C_LCD_write_char: [wreg+status,2+status,0+pclath+cstack]
  3496                           
  3497                           
  3498                           ;I2C_LCD_v2.0.c: 37:         Lcd_RS_State = 0x01;
  3499  0D86  1283               	bcf	3,5	;RP0=0, select bank0
  3500  0D87  1303               	bcf	3,6	;RP1=0, select bank0
  3501  0D88  01A4               	clrf	_Lcd_RS_State
  3502  0D89  0AA4               	incf	_Lcd_RS_State,f
  3503  0D8A                     l1666:	
  3504                           
  3505                           ;I2C_LCD_v2.0.c: 38:         p_LCD_data_sender(LCD_Obj, chr, p_I2C_IO_Expander_Writer);
  3506  0D8A  087C               	movf	I2C_LCD_write_char@LCD_Obj+1,w
  3507  0D8B  00F5               	movwf	LCD_data_sender@LCD_Obj+1
  3508  0D8C  087B               	movf	I2C_LCD_write_char@LCD_Obj,w
  3509  0D8D  00F4               	movwf	LCD_data_sender@LCD_Obj
  3510  0D8E  087D               	movf	I2C_LCD_write_char@chr,w
  3511  0D8F  00C9               	movwf	??_I2C_LCD_write_char
  3512  0D90  0849               	movf	??_I2C_LCD_write_char,w
  3513  0D91  00F6               	movwf	LCD_data_sender@data
  3514  0D92  3001               	movlw	(low (fp__I2C_IO_Expander_Writer-fpbase))& (0+255)
  3515  0D93  00CA               	movwf	??_I2C_LCD_write_char+1
  3516  0D94  084A               	movf	??_I2C_LCD_write_char+1,w
  3517  0D95  00F7               	movwf	LCD_data_sender@callback_function
  3518  0D96  120A  118A  20DD  120A  158A  	fcall	_LCD_data_sender
  3519  0D9B                     l111:	
  3520  0D9B  0008               	return
  3521  0D9C                     __end_of_I2C_LCD_write_char:	
  3522                           
  3523                           	psect	text9
  3524  0FAA                     __ptext9:	
  3525 ;; *************** function _I2C_LCD_set_cursor *****************
  3526 ;; Defined at:
  3527 ;;		line 86 in file "I2C_LCD_v2.0.c"
  3528 ;; Parameters:    Size  Location     Type
  3529 ;;  LCD_Obj         2    2[BANK0 ] struct I2C_LCD
  3530 ;;  row             1    4[BANK0 ] unsigned char 
  3531 ;;  colomn          1    5[BANK0 ] unsigned char 
  3532 ;; Auto vars:     Size  Location     Type
  3533 ;;		None
  3534 ;; Return value:  Size  Location     Type
  3535 ;;                  1    wreg      void 
  3536 ;; Registers used:
  3537 ;;		wreg, fsr0l, fsr0h, status,2, status,0, pclath, cstack
  3538 ;; Tracked objects:
  3539 ;;		On entry : 0/0
  3540 ;;		On exit  : 0/0
  3541 ;;		Unchanged: 0/0
  3542 ;; Data sizes:     COMMON   BANK0   BANK1   BANK3   BANK2
  3543 ;;      Params:         0       4       0       0       0
  3544 ;;      Locals:         0       0       0       0       0
  3545 ;;      Temps:          0       2       0       0       0
  3546 ;;      Totals:         0       6       0       0       0
  3547 ;;Total ram usage:        6 bytes
  3548 ;; Hardware stack levels used:    1
  3549 ;; Hardware stack levels required when called:    5
  3550 ;; This function calls:
  3551 ;;		_LCD_send_commad
  3552 ;; This function is called by:
  3553 ;;		_main
  3554 ;; This function uses a non-reentrant model
  3555 ;;
  3556                           
  3557                           
  3558                           ;psect for function _I2C_LCD_set_cursor
  3559  0FAA                     _I2C_LCD_set_cursor:	
  3560  0FAA                     l1814:	
  3561                           ;incstack = 0
  3562                           ; Regs used in _I2C_LCD_set_cursor: [wreg-fsr0h+status,2+status,0+pclath+cstack]
  3563                           
  3564                           
  3565                           ;I2C_LCD_v2.0.c: 87:         switch(row){
  3566  0FAA  2FE7               	goto	l1826
  3567  0FAB                     l1816:	
  3568                           
  3569                           ;I2C_LCD_v2.0.c: 89:                 p_LCD_send_commad(LCD_Obj, 0x80 + colomn-1); break;
  3570  0FAB  084C               	movf	I2C_LCD_set_cursor@LCD_Obj+1,w
  3571  0FAC  00FC               	movwf	LCD_send_commad@LCD_Obj+1
  3572  0FAD  084B               	movf	I2C_LCD_set_cursor@LCD_Obj,w
  3573  0FAE  00FB               	movwf	LCD_send_commad@LCD_Obj
  3574  0FAF  084E               	movf	I2C_LCD_set_cursor@colomn,w
  3575  0FB0  3E7F               	addlw	127
  3576  0FB1  00CF               	movwf	??_I2C_LCD_set_cursor
  3577  0FB2  084F               	movf	??_I2C_LCD_set_cursor,w
  3578  0FB3  00FD               	movwf	LCD_send_commad@cmd
  3579  0FB4  120A  158A  2571  120A  158A  	fcall	_LCD_send_commad
  3580  0FB9  2FFF               	goto	l145
  3581  0FBA                     l1818:	
  3582                           
  3583                           ;I2C_LCD_v2.0.c: 91:                 p_LCD_send_commad(LCD_Obj, 0xC0 + colomn-1); break;
  3584  0FBA  084C               	movf	I2C_LCD_set_cursor@LCD_Obj+1,w
  3585  0FBB  00FC               	movwf	LCD_send_commad@LCD_Obj+1
  3586  0FBC  084B               	movf	I2C_LCD_set_cursor@LCD_Obj,w
  3587  0FBD  00FB               	movwf	LCD_send_commad@LCD_Obj
  3588  0FBE  084E               	movf	I2C_LCD_set_cursor@colomn,w
  3589  0FBF  3EBF               	addlw	191
  3590  0FC0  00CF               	movwf	??_I2C_LCD_set_cursor
  3591  0FC1  084F               	movf	??_I2C_LCD_set_cursor,w
  3592  0FC2  00FD               	movwf	LCD_send_commad@cmd
  3593  0FC3  120A  158A  2571  120A  158A  	fcall	_LCD_send_commad
  3594  0FC8  2FFF               	goto	l145
  3595  0FC9                     l1820:	
  3596                           
  3597                           ;I2C_LCD_v2.0.c: 93:                 p_LCD_send_commad(LCD_Obj, 0x94 + colomn-1); break;
  3598  0FC9  084C               	movf	I2C_LCD_set_cursor@LCD_Obj+1,w
  3599  0FCA  00FC               	movwf	LCD_send_commad@LCD_Obj+1
  3600  0FCB  084B               	movf	I2C_LCD_set_cursor@LCD_Obj,w
  3601  0FCC  00FB               	movwf	LCD_send_commad@LCD_Obj
  3602  0FCD  084E               	movf	I2C_LCD_set_cursor@colomn,w
  3603  0FCE  3E93               	addlw	147
  3604  0FCF  00CF               	movwf	??_I2C_LCD_set_cursor
  3605  0FD0  084F               	movf	??_I2C_LCD_set_cursor,w
  3606  0FD1  00FD               	movwf	LCD_send_commad@cmd
  3607  0FD2  120A  158A  2571  120A  158A  	fcall	_LCD_send_commad
  3608  0FD7  2FFF               	goto	l145
  3609  0FD8                     l1822:	
  3610                           
  3611                           ;I2C_LCD_v2.0.c: 95:                 p_LCD_send_commad(LCD_Obj, 0xD4 + colomn-1); break;
  3612  0FD8  084C               	movf	I2C_LCD_set_cursor@LCD_Obj+1,w
  3613  0FD9  00FC               	movwf	LCD_send_commad@LCD_Obj+1
  3614  0FDA  084B               	movf	I2C_LCD_set_cursor@LCD_Obj,w
  3615  0FDB  00FB               	movwf	LCD_send_commad@LCD_Obj
  3616  0FDC  084E               	movf	I2C_LCD_set_cursor@colomn,w
  3617  0FDD  3ED3               	addlw	211
  3618  0FDE  00CF               	movwf	??_I2C_LCD_set_cursor
  3619  0FDF  084F               	movf	??_I2C_LCD_set_cursor,w
  3620  0FE0  00FD               	movwf	LCD_send_commad@cmd
  3621  0FE1  120A  158A  2571  120A  158A  	fcall	_LCD_send_commad
  3622  0FE6  2FFF               	goto	l145
  3623  0FE7                     l1826:	
  3624  0FE7  1283               	bcf	3,5	;RP0=0, select bank0
  3625  0FE8  1303               	bcf	3,6	;RP1=0, select bank0
  3626  0FE9  084D               	movf	I2C_LCD_set_cursor@row,w
  3627  0FEA  00CF               	movwf	??_I2C_LCD_set_cursor
  3628  0FEB  01D0               	clrf	??_I2C_LCD_set_cursor+1
  3629                           
  3630                           ; Switch on 2 bytes has been partitioned into a top level switch of size 1, and 1 sub-sw
      +                          itches
  3631                           ; Switch size 1, requested type "simple"
  3632                           ; Number of cases is 1, Range of values is 0 to 0
  3633                           ; switch strategies available:
  3634                           ; Name         Instructions Cycles
  3635                           ; simple_byte            4     3 (average)
  3636                           ; direct_byte           11     8 (fixed)
  3637                           ; jumptable            260     6 (fixed)
  3638                           ;	Chosen strategy is simple_byte
  3639  0FEC  0850               	movf	??_I2C_LCD_set_cursor+1,w
  3640  0FED  3A00               	xorlw	0	; case 0
  3641  0FEE  1903               	skipnz
  3642  0FEF  2FF1               	goto	l2256
  3643  0FF0  2FFF               	goto	l145
  3644  0FF1                     l2256:	
  3645                           
  3646                           ; Switch size 1, requested type "simple"
  3647                           ; Number of cases is 4, Range of values is 1 to 4
  3648                           ; switch strategies available:
  3649                           ; Name         Instructions Cycles
  3650                           ; simple_byte           13     7 (average)
  3651                           ; direct_byte           23    11 (fixed)
  3652                           ; jumptable            263     9 (fixed)
  3653                           ;	Chosen strategy is simple_byte
  3654  0FF1  084F               	movf	??_I2C_LCD_set_cursor,w
  3655  0FF2  3A01               	xorlw	1	; case 1
  3656  0FF3  1903               	skipnz
  3657  0FF4  2FAB               	goto	l1816
  3658  0FF5  3A03               	xorlw	3	; case 2
  3659  0FF6  1903               	skipnz
  3660  0FF7  2FBA               	goto	l1818
  3661  0FF8  3A01               	xorlw	1	; case 3
  3662  0FF9  1903               	skipnz
  3663  0FFA  2FC9               	goto	l1820
  3664  0FFB  3A07               	xorlw	7	; case 4
  3665  0FFC  1903               	skipnz
  3666  0FFD  2FD8               	goto	l1822
  3667  0FFE  2FFF               	goto	l145
  3668  0FFF                     l145:	
  3669  0FFF  0008               	return
  3670  1000                     __end_of_I2C_LCD_set_cursor:	
  3671                           
  3672                           	psect	text10
  3673  0209                     __ptext10:	
  3674 ;; *************** function _I2C_LCD_init *****************
  3675 ;; Defined at:
  3676 ;;		line 74 in file "I2C_LCD_v2.0.c"
  3677 ;; Parameters:    Size  Location     Type
  3678 ;;  LCD_Obj_Add     1    wreg     PTR struct I2C_LCD
  3679 ;;		 -> LCD1(2), 
  3680 ;;  I2C_LCD_Addr    1    9[BANK0 ] unsigned char 
  3681 ;;  N               1   10[BANK0 ] unsigned char 
  3682 ;;  F               1   11[BANK0 ] unsigned char 
  3683 ;; Auto vars:     Size  Location     Type
  3684 ;;  LCD_Obj_Add     1   14[BANK0 ] PTR struct I2C_LCD
  3685 ;;		 -> LCD1(2), 
  3686 ;; Return value:  Size  Location     Type
  3687 ;;                  1    wreg      void 
  3688 ;; Registers used:
  3689 ;;		wreg, fsr0l, fsr0h, status,2, status,0, pclath, cstack
  3690 ;; Tracked objects:
  3691 ;;		On entry : 0/0
  3692 ;;		On exit  : 0/0
  3693 ;;		Unchanged: 0/0
  3694 ;; Data sizes:     COMMON   BANK0   BANK1   BANK3   BANK2
  3695 ;;      Params:         0       3       0       0       0
  3696 ;;      Locals:         0       1       0       0       0
  3697 ;;      Temps:          0       2       0       0       0
  3698 ;;      Totals:         0       6       0       0       0
  3699 ;;Total ram usage:        6 bytes
  3700 ;; Hardware stack levels used:    1
  3701 ;; Hardware stack levels required when called:    6
  3702 ;; This function calls:
  3703 ;;		_I2C_LCD_display_on_off_control
  3704 ;;		_I2C_LCD_entry_mode
  3705 ;;		_LCD_send_commad
  3706 ;; This function is called by:
  3707 ;;		_main
  3708 ;; This function uses a non-reentrant model
  3709 ;;
  3710                           
  3711                           
  3712                           ;psect for function _I2C_LCD_init
  3713  0209                     _I2C_LCD_init:	
  3714                           
  3715                           ;incstack = 0
  3716                           ; Regs used in _I2C_LCD_init: [wreg-fsr0h+status,2+status,0+pclath+cstack]
  3717                           ;I2C_LCD_init@LCD_Obj_Add stored from wreg
  3718  0209  1283               	bcf	3,5	;RP0=0, select bank0
  3719  020A  1303               	bcf	3,6	;RP1=0, select bank0
  3720  020B  00D7               	movwf	I2C_LCD_init@LCD_Obj_Add
  3721  020C                     l1796:	
  3722                           
  3723                           ;I2C_LCD_v2.0.c: 75:         LCD_Obj_Add->Address = I2C_LCD_Address;
  3724  020C  0852               	movf	I2C_LCD_init@I2C_LCD_Address,w
  3725  020D  00D5               	movwf	??_I2C_LCD_init
  3726  020E  0857               	movf	I2C_LCD_init@LCD_Obj_Add,w
  3727  020F  0084               	movwf	4
  3728  0210  0855               	movf	??_I2C_LCD_init,w
  3729  0211  1383               	bcf	3,7	;select IRP bank0
  3730  0212  0080               	movwf	0
  3731                           
  3732                           ;I2C_LCD_v2.0.c: 76:         LCD_Obj_Add->BackLight_State = 0x08;
  3733  0213  3008               	movlw	8
  3734  0214  00D5               	movwf	??_I2C_LCD_init
  3735  0215  0A57               	incf	I2C_LCD_init@LCD_Obj_Add,w
  3736  0216  0084               	movwf	4
  3737  0217  0855               	movf	??_I2C_LCD_init,w
  3738  0218  0080               	movwf	0
  3739  0219                     l1798:	
  3740                           
  3741                           ;I2C_LCD_v2.0.c: 78:         p_LCD_send_commad(*LCD_Obj_Add, 0x32);
  3742  0219  0857               	movf	I2C_LCD_init@LCD_Obj_Add,w
  3743  021A  0084               	movwf	4
  3744  021B  0800               	movf	0,w
  3745  021C  00FB               	movwf	LCD_send_commad@LCD_Obj
  3746  021D  0A84               	incf	4,f
  3747  021E  0800               	movf	0,w
  3748  021F  00FC               	movwf	LCD_send_commad@LCD_Obj+1
  3749  0220  3032               	movlw	50
  3750  0221  00D5               	movwf	??_I2C_LCD_init
  3751  0222  0855               	movf	??_I2C_LCD_init,w
  3752  0223  00FD               	movwf	LCD_send_commad@cmd
  3753  0224  120A  158A  2571  120A  118A  	fcall	_LCD_send_commad
  3754  0229                     l1800:	
  3755                           
  3756                           ;I2C_LCD_v2.0.c: 79:         _delay((unsigned long)((1550)*(20000000UL/4000000.0)));
  3757  0229  300B               	movlw	11
  3758  022A  1283               	bcf	3,5	;RP0=0, select bank0
  3759  022B  1303               	bcf	3,6	;RP1=0, select bank0
  3760  022C  00D6               	movwf	??_I2C_LCD_init+1
  3761  022D  300E               	movlw	14
  3762  022E  00D5               	movwf	??_I2C_LCD_init
  3763  022F                     u1707:	
  3764  022F  0BD5               	decfsz	??_I2C_LCD_init,f
  3765  0230  2A2F               	goto	u1707
  3766  0231  0BD6               	decfsz	??_I2C_LCD_init+1,f
  3767  0232  2A2F               	goto	u1707
  3768  0233  0000               	nop
  3769  0234                     l1802:	
  3770                           
  3771                           ;I2C_LCD_v2.0.c: 80:         p_LCD_send_commad(*LCD_Obj_Add, 0x20 | 0x00 | N | F);
  3772  0234  1283               	bcf	3,5	;RP0=0, select bank0
  3773  0235  1303               	bcf	3,6	;RP1=0, select bank0
  3774  0236  0857               	movf	I2C_LCD_init@LCD_Obj_Add,w
  3775  0237  0084               	movwf	4
  3776  0238  1383               	bcf	3,7	;select IRP bank0
  3777  0239  0800               	movf	0,w
  3778  023A  00FB               	movwf	LCD_send_commad@LCD_Obj
  3779  023B  0A84               	incf	4,f
  3780  023C  0800               	movf	0,w
  3781  023D  00FC               	movwf	LCD_send_commad@LCD_Obj+1
  3782  023E  0853               	movf	I2C_LCD_init@N,w
  3783  023F  0454               	iorwf	I2C_LCD_init@F,w
  3784  0240  3820               	iorlw	32
  3785  0241  00D5               	movwf	??_I2C_LCD_init
  3786  0242  0855               	movf	??_I2C_LCD_init,w
  3787  0243  00FD               	movwf	LCD_send_commad@cmd
  3788  0244  120A  158A  2571  120A  118A  	fcall	_LCD_send_commad
  3789  0249                     l1804:	
  3790                           
  3791                           ;I2C_LCD_v2.0.c: 81:         I2C_LCD_display_on_off_control(*LCD_Obj_Add, 0x04, 0x00, 0x
      +                          00);
  3792  0249  1283               	bcf	3,5	;RP0=0, select bank0
  3793  024A  1303               	bcf	3,6	;RP1=0, select bank0
  3794  024B  0857               	movf	I2C_LCD_init@LCD_Obj_Add,w
  3795  024C  0084               	movwf	4
  3796  024D  1383               	bcf	3,7	;select IRP bank0
  3797  024E  0800               	movf	0,w
  3798  024F  00CB               	movwf	I2C_LCD_display_on_off_control@LCD_Obj
  3799  0250  0A84               	incf	4,f
  3800  0251  0800               	movf	0,w
  3801  0252  00CC               	movwf	I2C_LCD_display_on_off_control@LCD_Obj+1
  3802  0253  3004               	movlw	4
  3803  0254  00D5               	movwf	??_I2C_LCD_init
  3804  0255  0855               	movf	??_I2C_LCD_init,w
  3805  0256  00CD               	movwf	I2C_LCD_display_on_off_control@D
  3806  0257  01CE               	clrf	I2C_LCD_display_on_off_control@C
  3807  0258  01CF               	clrf	I2C_LCD_display_on_off_control@B
  3808  0259  120A  158A  2638  120A  118A  	fcall	_I2C_LCD_display_on_off_control
  3809  025E                     l1806:	
  3810                           
  3811                           ;I2C_LCD_v2.0.c: 82:         I2C_LCD_entry_mode(*LCD_Obj_Add, 0x02, 0x00);
  3812  025E  1283               	bcf	3,5	;RP0=0, select bank0
  3813  025F  1303               	bcf	3,6	;RP1=0, select bank0
  3814  0260  0857               	movf	I2C_LCD_init@LCD_Obj_Add,w
  3815  0261  0084               	movwf	4
  3816  0262  1383               	bcf	3,7	;select IRP bank0
  3817  0263  0800               	movf	0,w
  3818  0264  00CB               	movwf	I2C_LCD_entry_mode@LCD_Obj
  3819  0265  0A84               	incf	4,f
  3820  0266  0800               	movf	0,w
  3821  0267  00CC               	movwf	I2C_LCD_entry_mode@LCD_Obj+1
  3822  0268  3002               	movlw	2
  3823  0269  00D5               	movwf	??_I2C_LCD_init
  3824  026A  0855               	movf	??_I2C_LCD_init,w
  3825  026B  00CD               	movwf	I2C_LCD_entry_mode@I_or_D
  3826  026C  01CE               	clrf	I2C_LCD_entry_mode@S
  3827  026D  120A  158A  261B  120A  118A  	fcall	_I2C_LCD_entry_mode
  3828  0272                     l1808:	
  3829                           
  3830                           ;I2C_LCD_v2.0.c: 83:         p_LCD_send_commad(*LCD_Obj_Add, 0x80);
  3831  0272  1283               	bcf	3,5	;RP0=0, select bank0
  3832  0273  1303               	bcf	3,6	;RP1=0, select bank0
  3833  0274  0857               	movf	I2C_LCD_init@LCD_Obj_Add,w
  3834  0275  0084               	movwf	4
  3835  0276  1383               	bcf	3,7	;select IRP bank0
  3836  0277  0800               	movf	0,w
  3837  0278  00FB               	movwf	LCD_send_commad@LCD_Obj
  3838  0279  0A84               	incf	4,f
  3839  027A  0800               	movf	0,w
  3840  027B  00FC               	movwf	LCD_send_commad@LCD_Obj+1
  3841  027C  3080               	movlw	128
  3842  027D  00D5               	movwf	??_I2C_LCD_init
  3843  027E  0855               	movf	??_I2C_LCD_init,w
  3844  027F  00FD               	movwf	LCD_send_commad@cmd
  3845  0280  120A  158A  2571  120A  118A  	fcall	_LCD_send_commad
  3846  0285                     l136:	
  3847  0285  0008               	return
  3848  0286                     __end_of_I2C_LCD_init:	
  3849                           
  3850                           	psect	text11
  3851  0E1B                     __ptext11:	
  3852 ;; *************** function _I2C_LCD_entry_mode *****************
  3853 ;; Defined at:
  3854 ;;		line 59 in file "I2C_LCD_v2.0.c"
  3855 ;; Parameters:    Size  Location     Type
  3856 ;;  LCD_Obj         2    2[BANK0 ] struct I2C_LCD
  3857 ;;  I_or_D          1    4[BANK0 ] unsigned char 
  3858 ;;  S               1    5[BANK0 ] unsigned char 
  3859 ;; Auto vars:     Size  Location     Type
  3860 ;;		None
  3861 ;; Return value:  Size  Location     Type
  3862 ;;                  1    wreg      void 
  3863 ;; Registers used:
  3864 ;;		wreg, status,2, status,0, pclath, cstack
  3865 ;; Tracked objects:
  3866 ;;		On entry : 0/0
  3867 ;;		On exit  : 0/0
  3868 ;;		Unchanged: 0/0
  3869 ;; Data sizes:     COMMON   BANK0   BANK1   BANK3   BANK2
  3870 ;;      Params:         0       4       0       0       0
  3871 ;;      Locals:         0       0       0       0       0
  3872 ;;      Temps:          0       2       0       0       0
  3873 ;;      Totals:         0       6       0       0       0
  3874 ;;Total ram usage:        6 bytes
  3875 ;; Hardware stack levels used:    1
  3876 ;; Hardware stack levels required when called:    5
  3877 ;; This function calls:
  3878 ;;		_LCD_send_commad
  3879 ;; This function is called by:
  3880 ;;		_I2C_LCD_init
  3881 ;; This function uses a non-reentrant model
  3882 ;;
  3883                           
  3884                           
  3885                           ;psect for function _I2C_LCD_entry_mode
  3886  0E1B                     _I2C_LCD_entry_mode:	
  3887  0E1B                     l1668:	
  3888                           ;incstack = 0
  3889                           ; Regs used in _I2C_LCD_entry_mode: [wreg+status,2+status,0+pclath+cstack]
  3890                           
  3891                           
  3892                           ;I2C_LCD_v2.0.c: 60:         p_LCD_send_commad(LCD_Obj, 0x04 | I_or_D | S);
  3893  0E1B  1283               	bcf	3,5	;RP0=0, select bank0
  3894  0E1C  1303               	bcf	3,6	;RP1=0, select bank0
  3895  0E1D  084C               	movf	I2C_LCD_entry_mode@LCD_Obj+1,w
  3896  0E1E  00FC               	movwf	LCD_send_commad@LCD_Obj+1
  3897  0E1F  084B               	movf	I2C_LCD_entry_mode@LCD_Obj,w
  3898  0E20  00FB               	movwf	LCD_send_commad@LCD_Obj
  3899  0E21  084D               	movf	I2C_LCD_entry_mode@I_or_D,w
  3900  0E22  044E               	iorwf	I2C_LCD_entry_mode@S,w
  3901  0E23  3804               	iorlw	4
  3902  0E24  00CF               	movwf	??_I2C_LCD_entry_mode
  3903  0E25  084F               	movf	??_I2C_LCD_entry_mode,w
  3904  0E26  00FD               	movwf	LCD_send_commad@cmd
  3905  0E27  120A  158A  2571  120A  158A  	fcall	_LCD_send_commad
  3906  0E2C                     l1670:	
  3907                           
  3908                           ;I2C_LCD_v2.0.c: 61:         _delay((unsigned long)((1550)*(20000000UL/4000000.0)));
  3909  0E2C  300B               	movlw	11
  3910  0E2D  1283               	bcf	3,5	;RP0=0, select bank0
  3911  0E2E  1303               	bcf	3,6	;RP1=0, select bank0
  3912  0E2F  00D0               	movwf	??_I2C_LCD_entry_mode+1
  3913  0E30  300E               	movlw	14
  3914  0E31  00CF               	movwf	??_I2C_LCD_entry_mode
  3915  0E32                     u1717:	
  3916  0E32  0BCF               	decfsz	??_I2C_LCD_entry_mode,f
  3917  0E33  2E32               	goto	u1717
  3918  0E34  0BD0               	decfsz	??_I2C_LCD_entry_mode+1,f
  3919  0E35  2E32               	goto	u1717
  3920  0E36  0000               	nop
  3921  0E37                     l127:	
  3922  0E37  0008               	return
  3923  0E38                     __end_of_I2C_LCD_entry_mode:	
  3924                           
  3925                           	psect	text12
  3926  0E38                     __ptext12:	
  3927 ;; *************** function _I2C_LCD_display_on_off_control *****************
  3928 ;; Defined at:
  3929 ;;		line 64 in file "I2C_LCD_v2.0.c"
  3930 ;; Parameters:    Size  Location     Type
  3931 ;;  LCD_Obj         2    2[BANK0 ] struct I2C_LCD
  3932 ;;  D               1    4[BANK0 ] unsigned char 
  3933 ;;  C               1    5[BANK0 ] unsigned char 
  3934 ;;  B               1    6[BANK0 ] unsigned char 
  3935 ;; Auto vars:     Size  Location     Type
  3936 ;;		None
  3937 ;; Return value:  Size  Location     Type
  3938 ;;                  1    wreg      void 
  3939 ;; Registers used:
  3940 ;;		wreg, status,2, status,0, pclath, cstack
  3941 ;; Tracked objects:
  3942 ;;		On entry : 0/0
  3943 ;;		On exit  : 0/0
  3944 ;;		Unchanged: 0/0
  3945 ;; Data sizes:     COMMON   BANK0   BANK1   BANK3   BANK2
  3946 ;;      Params:         0       5       0       0       0
  3947 ;;      Locals:         0       0       0       0       0
  3948 ;;      Temps:          0       2       0       0       0
  3949 ;;      Totals:         0       7       0       0       0
  3950 ;;Total ram usage:        7 bytes
  3951 ;; Hardware stack levels used:    1
  3952 ;; Hardware stack levels required when called:    5
  3953 ;; This function calls:
  3954 ;;		_LCD_send_commad
  3955 ;; This function is called by:
  3956 ;;		_I2C_LCD_init
  3957 ;; This function uses a non-reentrant model
  3958 ;;
  3959                           
  3960                           
  3961                           ;psect for function _I2C_LCD_display_on_off_control
  3962  0E38                     _I2C_LCD_display_on_off_control:	
  3963  0E38                     l1672:	
  3964                           ;incstack = 0
  3965                           ; Regs used in _I2C_LCD_display_on_off_control: [wreg+status,2+status,0+pclath+cstack]
  3966                           
  3967                           
  3968                           ;I2C_LCD_v2.0.c: 65:         p_LCD_send_commad(LCD_Obj, 0x08 | D | C | B);
  3969  0E38  1283               	bcf	3,5	;RP0=0, select bank0
  3970  0E39  1303               	bcf	3,6	;RP1=0, select bank0
  3971  0E3A  084C               	movf	I2C_LCD_display_on_off_control@LCD_Obj+1,w
  3972  0E3B  00FC               	movwf	LCD_send_commad@LCD_Obj+1
  3973  0E3C  084B               	movf	I2C_LCD_display_on_off_control@LCD_Obj,w
  3974  0E3D  00FB               	movwf	LCD_send_commad@LCD_Obj
  3975  0E3E  084D               	movf	I2C_LCD_display_on_off_control@D,w
  3976  0E3F  044E               	iorwf	I2C_LCD_display_on_off_control@C,w
  3977  0E40  044F               	iorwf	I2C_LCD_display_on_off_control@B,w
  3978  0E41  3808               	iorlw	8
  3979  0E42  00D0               	movwf	??_I2C_LCD_display_on_off_control
  3980  0E43  0850               	movf	??_I2C_LCD_display_on_off_control,w
  3981  0E44  00FD               	movwf	LCD_send_commad@cmd
  3982  0E45  120A  158A  2571  120A  158A  	fcall	_LCD_send_commad
  3983  0E4A                     l1674:	
  3984                           
  3985                           ;I2C_LCD_v2.0.c: 66:         _delay((unsigned long)((1550)*(20000000UL/4000000.0)));
  3986  0E4A  300B               	movlw	11
  3987  0E4B  1283               	bcf	3,5	;RP0=0, select bank0
  3988  0E4C  1303               	bcf	3,6	;RP1=0, select bank0
  3989  0E4D  00D1               	movwf	??_I2C_LCD_display_on_off_control+1
  3990  0E4E  300E               	movlw	14
  3991  0E4F  00D0               	movwf	??_I2C_LCD_display_on_off_control
  3992  0E50                     u1727:	
  3993  0E50  0BD0               	decfsz	??_I2C_LCD_display_on_off_control,f
  3994  0E51  2E50               	goto	u1727
  3995  0E52  0BD1               	decfsz	??_I2C_LCD_display_on_off_control+1,f
  3996  0E53  2E50               	goto	u1727
  3997  0E54  0000               	nop
  3998  0E55                     l130:	
  3999  0E55  0008               	return
  4000  0E56                     __end_of_I2C_LCD_display_on_off_control:	
  4001                           
  4002                           	psect	text13
  4003  0DCA                     __ptext13:	
  4004 ;; *************** function _I2C_LCD_clear *****************
  4005 ;; Defined at:
  4006 ;;		line 49 in file "I2C_LCD_v2.0.c"
  4007 ;; Parameters:    Size  Location     Type
  4008 ;;  LCD_Obj         2    2[BANK0 ] struct I2C_LCD
  4009 ;; Auto vars:     Size  Location     Type
  4010 ;;		None
  4011 ;; Return value:  Size  Location     Type
  4012 ;;                  1    wreg      void 
  4013 ;; Registers used:
  4014 ;;		wreg, status,2, status,0, pclath, cstack
  4015 ;; Tracked objects:
  4016 ;;		On entry : 0/0
  4017 ;;		On exit  : 0/0
  4018 ;;		Unchanged: 0/0
  4019 ;; Data sizes:     COMMON   BANK0   BANK1   BANK3   BANK2
  4020 ;;      Params:         0       2       0       0       0
  4021 ;;      Locals:         0       0       0       0       0
  4022 ;;      Temps:          0       2       0       0       0
  4023 ;;      Totals:         0       4       0       0       0
  4024 ;;Total ram usage:        4 bytes
  4025 ;; Hardware stack levels used:    1
  4026 ;; Hardware stack levels required when called:    5
  4027 ;; This function calls:
  4028 ;;		_LCD_send_commad
  4029 ;; This function is called by:
  4030 ;;		_main
  4031 ;; This function uses a non-reentrant model
  4032 ;;
  4033                           
  4034                           
  4035                           ;psect for function _I2C_LCD_clear
  4036  0DCA                     _I2C_LCD_clear:	
  4037  0DCA                     l1810:	
  4038                           ;incstack = 0
  4039                           ; Regs used in _I2C_LCD_clear: [wreg+status,2+status,0+pclath+cstack]
  4040                           
  4041                           
  4042                           ;I2C_LCD_v2.0.c: 50:         p_LCD_send_commad(LCD_Obj, 0x01);
  4043  0DCA  1283               	bcf	3,5	;RP0=0, select bank0
  4044  0DCB  1303               	bcf	3,6	;RP1=0, select bank0
  4045  0DCC  084C               	movf	I2C_LCD_clear@LCD_Obj+1,w
  4046  0DCD  00FC               	movwf	LCD_send_commad@LCD_Obj+1
  4047  0DCE  084B               	movf	I2C_LCD_clear@LCD_Obj,w
  4048  0DCF  00FB               	movwf	LCD_send_commad@LCD_Obj
  4049  0DD0  01FD               	clrf	LCD_send_commad@cmd
  4050  0DD1  0AFD               	incf	LCD_send_commad@cmd,f
  4051  0DD2  120A  158A  2571  120A  158A  	fcall	_LCD_send_commad
  4052  0DD7                     l1812:	
  4053                           
  4054                           ;I2C_LCD_v2.0.c: 51:         _delay((unsigned long)((1550)*(20000000UL/4000000.0)));
  4055  0DD7  300B               	movlw	11
  4056  0DD8  1283               	bcf	3,5	;RP0=0, select bank0
  4057  0DD9  1303               	bcf	3,6	;RP1=0, select bank0
  4058  0DDA  00CE               	movwf	??_I2C_LCD_clear+1
  4059  0DDB  300E               	movlw	14
  4060  0DDC  00CD               	movwf	??_I2C_LCD_clear
  4061  0DDD                     u1737:	
  4062  0DDD  0BCD               	decfsz	??_I2C_LCD_clear,f
  4063  0DDE  2DDD               	goto	u1737
  4064  0DDF  0BCE               	decfsz	??_I2C_LCD_clear+1,f
  4065  0DE0  2DDD               	goto	u1737
  4066  0DE1  0000               	nop
  4067  0DE2                     l121:	
  4068  0DE2  0008               	return
  4069  0DE3                     __end_of_I2C_LCD_clear:	
  4070                           
  4071                           	psect	text14
  4072  0D71                     __ptext14:	
  4073 ;; *************** function _LCD_send_commad *****************
  4074 ;; Defined at:
  4075 ;;		line 30 in file "I2C_LCD_v2.0.c"
  4076 ;; Parameters:    Size  Location     Type
  4077 ;;  LCD_Obj         2   11[COMMON] struct I2C_LCD
  4078 ;;  cmd             1   13[COMMON] unsigned char 
  4079 ;; Auto vars:     Size  Location     Type
  4080 ;;		None
  4081 ;; Return value:  Size  Location     Type
  4082 ;;                  1    wreg      void 
  4083 ;; Registers used:
  4084 ;;		wreg, status,2, status,0, pclath, cstack
  4085 ;; Tracked objects:
  4086 ;;		On entry : 0/0
  4087 ;;		On exit  : 0/0
  4088 ;;		Unchanged: 0/0
  4089 ;; Data sizes:     COMMON   BANK0   BANK1   BANK3   BANK2
  4090 ;;      Params:         3       0       0       0       0
  4091 ;;      Locals:         0       0       0       0       0
  4092 ;;      Temps:          0       2       0       0       0
  4093 ;;      Totals:         3       2       0       0       0
  4094 ;;Total ram usage:        5 bytes
  4095 ;; Hardware stack levels used:    1
  4096 ;; Hardware stack levels required when called:    4
  4097 ;; This function calls:
  4098 ;;		_LCD_data_sender
  4099 ;; This function is called by:
  4100 ;;		_I2C_LCD_write_string
  4101 ;;		_I2C_LCD_clear
  4102 ;;		_I2C_LCD_entry_mode
  4103 ;;		_I2C_LCD_display_on_off_control
  4104 ;;		_I2C_LCD_init
  4105 ;;		_I2C_LCD_set_cursor
  4106 ;;		_I2C_LCD_return_home
  4107 ;;		_I2C_LCD_cursor_or_display_shift
  4108 ;; This function uses a non-reentrant model
  4109 ;;
  4110                           
  4111                           
  4112                           ;psect for function _LCD_send_commad
  4113  0D71                     _LCD_send_commad:	
  4114  0D71                     l1660:	
  4115                           ;incstack = 0
  4116                           ; Regs used in _LCD_send_commad: [wreg+status,2+status,0+pclath+cstack]
  4117                           
  4118                           
  4119                           ;I2C_LCD_v2.0.c: 31:         Lcd_RS_State = 0x00;
  4120  0D71  1283               	bcf	3,5	;RP0=0, select bank0
  4121  0D72  1303               	bcf	3,6	;RP1=0, select bank0
  4122  0D73  01A4               	clrf	_Lcd_RS_State
  4123  0D74                     l1662:	
  4124                           
  4125                           ;I2C_LCD_v2.0.c: 32:         p_LCD_data_sender(LCD_Obj, cmd, p_I2C_IO_Expander_Writer);
  4126  0D74  087C               	movf	LCD_send_commad@LCD_Obj+1,w
  4127  0D75  00F5               	movwf	LCD_data_sender@LCD_Obj+1
  4128  0D76  087B               	movf	LCD_send_commad@LCD_Obj,w
  4129  0D77  00F4               	movwf	LCD_data_sender@LCD_Obj
  4130  0D78  087D               	movf	LCD_send_commad@cmd,w
  4131  0D79  00C9               	movwf	??_LCD_send_commad
  4132  0D7A  0849               	movf	??_LCD_send_commad,w
  4133  0D7B  00F6               	movwf	LCD_data_sender@data
  4134  0D7C  3001               	movlw	(low (fp__I2C_IO_Expander_Writer-fpbase))& (0+255)
  4135  0D7D  00CA               	movwf	??_LCD_send_commad+1
  4136  0D7E  084A               	movf	??_LCD_send_commad+1,w
  4137  0D7F  00F7               	movwf	LCD_data_sender@callback_function
  4138  0D80  120A  118A  20DD  120A  158A  	fcall	_LCD_data_sender
  4139  0D85                     l108:	
  4140  0D85  0008               	return
  4141  0D86                     __end_of_LCD_send_commad:	
  4142                           
  4143                           	psect	text15
  4144  00DD                     __ptext15:	
  4145 ;; *************** function _LCD_data_sender *****************
  4146 ;; Defined at:
  4147 ;;		line 23 in file "I2C_LCD_v2.0.c"
  4148 ;; Parameters:    Size  Location     Type
  4149 ;;  LCD_Obj         2    4[COMMON] struct I2C_LCD
  4150 ;;  data            1    6[COMMON] unsigned char 
  4151 ;;  callback_fun    1    7[COMMON] PTR FTN(unsigned char ,u
  4152 ;;		 -> I2C_IO_Expander_Writer(1), 
  4153 ;; Auto vars:     Size  Location     Type
  4154 ;;		None
  4155 ;; Return value:  Size  Location     Type
  4156 ;;                  1    wreg      void 
  4157 ;; Registers used:
  4158 ;;		wreg, status,2, status,0, pclath, cstack
  4159 ;; Tracked objects:
  4160 ;;		On entry : 0/0
  4161 ;;		On exit  : 0/0
  4162 ;;		Unchanged: 0/0
  4163 ;; Data sizes:     COMMON   BANK0   BANK1   BANK3   BANK2
  4164 ;;      Params:         4       0       0       0       0
  4165 ;;      Locals:         0       0       0       0       0
  4166 ;;      Temps:          3       0       0       0       0
  4167 ;;      Totals:         7       0       0       0       0
  4168 ;;Total ram usage:        7 bytes
  4169 ;; Hardware stack levels used:    1
  4170 ;; Hardware stack levels required when called:    3
  4171 ;; This function calls:
  4172 ;;		_I2C_IO_Expander_Writer
  4173 ;; This function is called by:
  4174 ;;		_LCD_send_commad
  4175 ;;		_I2C_LCD_write_char
  4176 ;; This function uses a non-reentrant model
  4177 ;;
  4178                           
  4179                           
  4180                           ;psect for function _LCD_data_sender
  4181  00DD                     _LCD_data_sender:	
  4182  00DD                     l1658:	
  4183                           ;incstack = 0
  4184                           ; Regs used in _LCD_data_sender: [wreg+status,2+status,0+pclath+cstack]
  4185                           
  4186                           
  4187                           ;I2C_LCD_v2.0.c: 24:         callback_function(LCD_Obj.Address, (data&0xF0) | Lcd_RS_Sta
      +                          te | Lcd_RW_State | 0x04 | LCD_Obj.BackLight_State);
  4188  00DD  0874               	movf	LCD_data_sender@LCD_Obj,w
  4189  00DE  00F8               	movwf	??_LCD_data_sender
  4190  00DF  0878               	movf	??_LCD_data_sender,w
  4191  00E0  00F2               	movwf	I2C_IO_Expander_Writer@I2C_Address
  4192  00E1  0876               	movf	LCD_data_sender@data,w
  4193  00E2  39F0               	andlw	240
  4194  00E3  0475               	iorwf	LCD_data_sender@LCD_Obj+1,w
  4195  00E4  1283               	bcf	3,5	;RP0=0, select bank0
  4196  00E5  1303               	bcf	3,6	;RP1=0, select bank0
  4197  00E6  0424               	iorwf	_Lcd_RS_State,w
  4198  00E7  3804               	iorlw	4
  4199  00E8  00F9               	movwf	??_LCD_data_sender+1
  4200  00E9  0879               	movf	??_LCD_data_sender+1,w
  4201  00EA  00F3               	movwf	I2C_IO_Expander_Writer@I2C_Data
  4202  00EB  0877               	movf	LCD_data_sender@callback_function,w
  4203  00EC  120A  118A  2003  120A  118A  	fcall	fptable
  4204                           
  4205                           ;I2C_LCD_v2.0.c: 25:         callback_function(LCD_Obj.Address, (data&0xF0) | Lcd_RS_Sta
      +                          te | Lcd_RW_State | 0x00 | LCD_Obj.BackLight_State);
  4206  00F1  0874               	movf	LCD_data_sender@LCD_Obj,w
  4207  00F2  00F8               	movwf	??_LCD_data_sender
  4208  00F3  0878               	movf	??_LCD_data_sender,w
  4209  00F4  00F2               	movwf	I2C_IO_Expander_Writer@I2C_Address
  4210  00F5  0876               	movf	LCD_data_sender@data,w
  4211  00F6  39F0               	andlw	240
  4212  00F7  0475               	iorwf	LCD_data_sender@LCD_Obj+1,w
  4213  00F8  1283               	bcf	3,5	;RP0=0, select bank0
  4214  00F9  1303               	bcf	3,6	;RP1=0, select bank0
  4215  00FA  0424               	iorwf	_Lcd_RS_State,w
  4216  00FB  00F9               	movwf	??_LCD_data_sender+1
  4217  00FC  0879               	movf	??_LCD_data_sender+1,w
  4218  00FD  00F3               	movwf	I2C_IO_Expander_Writer@I2C_Data
  4219  00FE  0877               	movf	LCD_data_sender@callback_function,w
  4220  00FF  120A  118A  2003  120A  118A  	fcall	fptable
  4221                           
  4222                           ;I2C_LCD_v2.0.c: 26:         callback_function(LCD_Obj.Address, ((data<<4)&0xF0) | Lcd_R
      +                          S_State | Lcd_RW_State |0x04 | LCD_Obj.BackLight_State);
  4223  0104  0874               	movf	LCD_data_sender@LCD_Obj,w
  4224  0105  00F8               	movwf	??_LCD_data_sender
  4225  0106  0878               	movf	??_LCD_data_sender,w
  4226  0107  00F2               	movwf	I2C_IO_Expander_Writer@I2C_Address
  4227  0108  0876               	movf	LCD_data_sender@data,w
  4228  0109  00F9               	movwf	??_LCD_data_sender+1
  4229  010A  3003               	movlw	3
  4230  010B                     u945:	
  4231  010B  1003               	clrc
  4232  010C  0DF9               	rlf	??_LCD_data_sender+1,f
  4233  010D  3EFF               	addlw	-1
  4234  010E  1D03               	skipz
  4235  010F  290B               	goto	u945
  4236  0110  1003               	clrc
  4237  0111  0D79               	rlf	??_LCD_data_sender+1,w
  4238  0112  39F0               	andlw	240
  4239  0113  0475               	iorwf	LCD_data_sender@LCD_Obj+1,w
  4240  0114  1283               	bcf	3,5	;RP0=0, select bank0
  4241  0115  1303               	bcf	3,6	;RP1=0, select bank0
  4242  0116  0424               	iorwf	_Lcd_RS_State,w
  4243  0117  3804               	iorlw	4
  4244  0118  00FA               	movwf	??_LCD_data_sender+2
  4245  0119  087A               	movf	??_LCD_data_sender+2,w
  4246  011A  00F3               	movwf	I2C_IO_Expander_Writer@I2C_Data
  4247  011B  0877               	movf	LCD_data_sender@callback_function,w
  4248  011C  120A  118A  2003  120A  118A  	fcall	fptable
  4249                           
  4250                           ;I2C_LCD_v2.0.c: 27:         callback_function(LCD_Obj.Address, ((data<<4)&0xF0) | Lcd_R
      +                          S_State | Lcd_RW_State |0x00 | LCD_Obj.BackLight_State);
  4251  0121  0874               	movf	LCD_data_sender@LCD_Obj,w
  4252  0122  00F8               	movwf	??_LCD_data_sender
  4253  0123  0878               	movf	??_LCD_data_sender,w
  4254  0124  00F2               	movwf	I2C_IO_Expander_Writer@I2C_Address
  4255  0125  0876               	movf	LCD_data_sender@data,w
  4256  0126  00F9               	movwf	??_LCD_data_sender+1
  4257  0127  3003               	movlw	3
  4258  0128                     u955:	
  4259  0128  1003               	clrc
  4260  0129  0DF9               	rlf	??_LCD_data_sender+1,f
  4261  012A  3EFF               	addlw	-1
  4262  012B  1D03               	skipz
  4263  012C  2928               	goto	u955
  4264  012D  1003               	clrc
  4265  012E  0D79               	rlf	??_LCD_data_sender+1,w
  4266  012F  39F0               	andlw	240
  4267  0130  0475               	iorwf	LCD_data_sender@LCD_Obj+1,w
  4268  0131  1283               	bcf	3,5	;RP0=0, select bank0
  4269  0132  1303               	bcf	3,6	;RP1=0, select bank0
  4270  0133  0424               	iorwf	_Lcd_RS_State,w
  4271  0134  00FA               	movwf	??_LCD_data_sender+2
  4272  0135  087A               	movf	??_LCD_data_sender+2,w
  4273  0136  00F3               	movwf	I2C_IO_Expander_Writer@I2C_Data
  4274  0137  0877               	movf	LCD_data_sender@callback_function,w
  4275  0138  120A  118A  2003  120A  118A  	fcall	fptable
  4276  013D                     l105:	
  4277  013D  0008               	return
  4278  013E                     __end_of_LCD_data_sender:	
  4279                           
  4280                           	psect	text16
  4281  0DB3                     __ptext16:	
  4282 ;; *************** function _I2C_IO_Expander_Writer *****************
  4283 ;; Defined at:
  4284 ;;		line 14 in file "PCF8574_IO_Expander_v1.0.c"
  4285 ;; Parameters:    Size  Location     Type
  4286 ;;  I2C_Address     1    2[COMMON] unsigned char 
  4287 ;;  I2C_Data        1    3[COMMON] unsigned char 
  4288 ;; Auto vars:     Size  Location     Type
  4289 ;;		None
  4290 ;; Return value:  Size  Location     Type
  4291 ;;                  1    wreg      void 
  4292 ;; Registers used:
  4293 ;;		wreg, status,2, status,0, pclath, cstack
  4294 ;; Tracked objects:
  4295 ;;		On entry : 0/0
  4296 ;;		On exit  : 0/0
  4297 ;;		Unchanged: 0/0
  4298 ;; Data sizes:     COMMON   BANK0   BANK1   BANK3   BANK2
  4299 ;;      Params:         2       0       0       0       0
  4300 ;;      Locals:         0       0       0       0       0
  4301 ;;      Temps:          0       0       0       0       0
  4302 ;;      Totals:         2       0       0       0       0
  4303 ;;Total ram usage:        2 bytes
  4304 ;; Hardware stack levels used:    1
  4305 ;; Hardware stack levels required when called:    2
  4306 ;; This function calls:
  4307 ;;		_I2C_Master_Start
  4308 ;;		_I2C_Master_Stop
  4309 ;;		_I2C_Master_Write
  4310 ;; This function is called by:
  4311 ;;		_LCD_send_commad
  4312 ;;		_I2C_LCD_write_char
  4313 ;;		_LCD_data_sender
  4314 ;; This function uses a non-reentrant model
  4315 ;;
  4316                           
  4317                           
  4318                           ;psect for function _I2C_IO_Expander_Writer
  4319  0DB3                     _I2C_IO_Expander_Writer:	
  4320  0DB3                     l1652:	
  4321                           ;incstack = 0
  4322                           ; Regs used in _I2C_IO_Expander_Writer: [wreg+status,2+status,0+pclath+cstack]
  4323                           
  4324                           
  4325                           ;PCF8574_IO_Expander_v1.0.c: 15:         I2C_Master_Start();
  4326  0DB3  120A  158A  2524  120A  158A  	fcall	_I2C_Master_Start
  4327  0DB8                     l1654:	
  4328                           
  4329                           ;PCF8574_IO_Expander_v1.0.c: 16:         I2C_Master_Write(I2C_Address);
  4330  0DB8  0872               	movf	I2C_IO_Expander_Writer@I2C_Address,w
  4331  0DB9  120A  158A  259C  120A  158A  	fcall	_I2C_Master_Write
  4332  0DBE                     l1656:	
  4333                           
  4334                           ;PCF8574_IO_Expander_v1.0.c: 17:         I2C_Master_Write(I2C_Data);
  4335  0DBE  0873               	movf	I2C_IO_Expander_Writer@I2C_Data,w
  4336  0DBF  120A  158A  259C  120A  158A  	fcall	_I2C_Master_Write
  4337                           
  4338                           ;PCF8574_IO_Expander_v1.0.c: 18:         I2C_Master_Stop();
  4339  0DC4  120A  158A  2532  120A  158A  	fcall	_I2C_Master_Stop
  4340  0DC9                     l244:	
  4341  0DC9  0008               	return
  4342  0DCA                     __end_of_I2C_IO_Expander_Writer:	
  4343                           
  4344                           	psect	text17
  4345  0286                     __ptext17:	
  4346 ;; *************** function _I2C_EEPROM_Sequential_Read *****************
  4347 ;; Defined at:
  4348 ;;		line 81 in file "24C64_EEPROM_v1.0.c"
  4349 ;; Parameters:    Size  Location     Type
  4350 ;;  I2C_Address     1    wreg     unsigned char 
  4351 ;;  EEPROM_Addre    2    3[COMMON] unsigned int 
  4352 ;;  Data_Buffer     1    5[COMMON] PTR unsigned char 
  4353 ;;		 -> reader_data_buffer_H(17), reader_data_buffer_L(17), 
  4354 ;;  Length_of_Da    2    6[COMMON] unsigned int 
  4355 ;; Auto vars:     Size  Location     Type
  4356 ;;  I2C_Address     1    0[BANK0 ] unsigned char 
  4357 ;;  i               2    3[BANK0 ] unsigned int 
  4358 ;;  c               2    1[BANK0 ] int 
  4359 ;; Return value:  Size  Location     Type
  4360 ;;                  1    wreg      void 
  4361 ;; Registers used:
  4362 ;;		wreg, fsr0l, fsr0h, status,2, status,0, btemp+1, pclath, cstack
  4363 ;; Tracked objects:
  4364 ;;		On entry : 0/0
  4365 ;;		On exit  : 0/0
  4366 ;;		Unchanged: 0/0
  4367 ;; Data sizes:     COMMON   BANK0   BANK1   BANK3   BANK2
  4368 ;;      Params:         5       0       0       0       0
  4369 ;;      Locals:         0       5       0       0       0
  4370 ;;      Temps:          2       0       0       0       0
  4371 ;;      Totals:         7       5       0       0       0
  4372 ;;Total ram usage:       12 bytes
  4373 ;; Hardware stack levels used:    1
  4374 ;; Hardware stack levels required when called:    2
  4375 ;; This function calls:
  4376 ;;		_I2C_Master_Read
  4377 ;;		_I2C_Master_RepeatedStart
  4378 ;;		_I2C_Master_Send_ACK
  4379 ;;		_I2C_Master_Send_NACK
  4380 ;;		_I2C_Master_Start
  4381 ;;		_I2C_Master_Stop
  4382 ;;		_I2C_Master_Write
  4383 ;; This function is called by:
  4384 ;;		_main
  4385 ;; This function uses a non-reentrant model
  4386 ;;
  4387                           
  4388                           
  4389                           ;psect for function _I2C_EEPROM_Sequential_Read
  4390  0286                     _I2C_EEPROM_Sequential_Read:	
  4391                           
  4392                           ;incstack = 0
  4393                           ; Regs used in _I2C_EEPROM_Sequential_Read: [wreg-fsr0h+status,2+status,0+btemp+1+pclath
      +                          +cstack]
  4394                           ;I2C_EEPROM_Sequential_Read@I2C_Address stored from wreg
  4395  0286  1283               	bcf	3,5	;RP0=0, select bank0
  4396  0287  1303               	bcf	3,6	;RP1=0, select bank0
  4397  0288  00C9               	movwf	I2C_EEPROM_Sequential_Read@I2C_Address
  4398  0289                     l1904:	
  4399  0289  120A  158A  2524  120A  118A  	fcall	_I2C_Master_Start
  4400  028E                     l1906:	
  4401  028E  1283               	bcf	3,5	;RP0=0, select bank0
  4402  028F  1303               	bcf	3,6	;RP1=0, select bank0
  4403  0290  01CA               	clrf	I2C_EEPROM_Sequential_Read@c
  4404  0291  01CB               	clrf	I2C_EEPROM_Sequential_Read@c+1
  4405  0292                     l1912:	
  4406  0292  1283               	bcf	3,5	;RP0=0, select bank0
  4407  0293  1303               	bcf	3,6	;RP1=0, select bank0
  4408  0294  0849               	movf	I2C_EEPROM_Sequential_Read@I2C_Address,w
  4409  0295  120A  158A  259C  120A  118A  	fcall	_I2C_Master_Write
  4410  029A  3A00               	xorlw	0
  4411  029B  1D03               	skipz
  4412  029C  2A9E               	goto	u1291
  4413  029D  2A9F               	goto	u1290
  4414  029E                     u1291:	
  4415  029E  2AFE               	goto	l1936
  4416  029F                     u1290:	
  4417  029F                     l1914:	
  4418  029F  0874               	movf	I2C_EEPROM_Sequential_Read@EEPROM_Address+1,w
  4419  02A0  120A  158A  259C  120A  118A  	fcall	_I2C_Master_Write
  4420  02A5  0873               	movf	I2C_EEPROM_Sequential_Read@EEPROM_Address,w
  4421  02A6  120A  158A  259C  120A  118A  	fcall	_I2C_Master_Write
  4422  02AB                     l1916:	
  4423  02AB  120A  158A  2516  120A  118A  	fcall	_I2C_Master_RepeatedStart
  4424  02B0                     l1918:	
  4425  02B0  1283               	bcf	3,5	;RP0=0, select bank0
  4426  02B1  1303               	bcf	3,6	;RP1=0, select bank0
  4427  02B2  0849               	movf	I2C_EEPROM_Sequential_Read@I2C_Address,w
  4428  02B3  3801               	iorlw	1
  4429  02B4  120A  158A  259C  120A  118A  	fcall	_I2C_Master_Write
  4430  02B9                     l1920:	
  4431  02B9  1283               	bcf	3,5	;RP0=0, select bank0
  4432  02BA  1303               	bcf	3,6	;RP1=0, select bank0
  4433  02BB  01CC               	clrf	I2C_EEPROM_Sequential_Read@i
  4434  02BC  01CD               	clrf	I2C_EEPROM_Sequential_Read@i+1
  4435  02BD  2AF3               	goto	l1932
  4436  02BE                     l1922:	
  4437  02BE  120A  158A  25FE  120A  118A  	fcall	_I2C_Master_Read
  4438  02C3  00F8               	movwf	??_I2C_EEPROM_Sequential_Read
  4439  02C4  1283               	bcf	3,5	;RP0=0, select bank0
  4440  02C5  1303               	bcf	3,6	;RP1=0, select bank0
  4441  02C6  084C               	movf	I2C_EEPROM_Sequential_Read@i,w
  4442  02C7  0775               	addwf	I2C_EEPROM_Sequential_Read@Data_Buffer,w
  4443  02C8  00F9               	movwf	??_I2C_EEPROM_Sequential_Read+1
  4444  02C9  0879               	movf	??_I2C_EEPROM_Sequential_Read+1,w
  4445  02CA  0084               	movwf	4
  4446  02CB  0878               	movf	??_I2C_EEPROM_Sequential_Read,w
  4447  02CC  1383               	bcf	3,7	;select IRP bank0
  4448  02CD  0080               	movwf	0
  4449  02CE                     l1924:	
  4450  02CE  0876               	movf	I2C_EEPROM_Sequential_Read@Length_of_Data,w
  4451  02CF  3EFF               	addlw	255
  4452  02D0  00F8               	movwf	??_I2C_EEPROM_Sequential_Read
  4453  02D1  0877               	movf	I2C_EEPROM_Sequential_Read@Length_of_Data+1,w
  4454  02D2  1803               	skipnc
  4455  02D3  3E01               	addlw	1
  4456  02D4  3EFF               	addlw	255
  4457  02D5  00F9               	movwf	??_I2C_EEPROM_Sequential_Read+1
  4458  02D6  084D               	movf	I2C_EEPROM_Sequential_Read@i+1,w
  4459  02D7  0679               	xorwf	??_I2C_EEPROM_Sequential_Read+1,w
  4460  02D8  1D03               	skipz
  4461  02D9  2ADC               	goto	u1305
  4462  02DA  084C               	movf	I2C_EEPROM_Sequential_Read@i,w
  4463  02DB  0678               	xorwf	??_I2C_EEPROM_Sequential_Read,w
  4464  02DC                     u1305:	
  4465  02DC  1D03               	skipz
  4466  02DD  2ADF               	goto	u1301
  4467  02DE  2AE0               	goto	u1300
  4468  02DF                     u1301:	
  4469  02DF  2AE6               	goto	l1928
  4470  02E0                     u1300:	
  4471  02E0                     l1926:	
  4472  02E0  120A  158A  254F  120A  118A  	fcall	_I2C_Master_Send_NACK
  4473  02E5  2AEB               	goto	l1930
  4474  02E6                     l1928:	
  4475  02E6  120A  158A  2540  120A  118A  	fcall	_I2C_Master_Send_ACK
  4476  02EB                     l1930:	
  4477  02EB  3001               	movlw	1
  4478  02EC  1283               	bcf	3,5	;RP0=0, select bank0
  4479  02ED  1303               	bcf	3,6	;RP1=0, select bank0
  4480  02EE  07CC               	addwf	I2C_EEPROM_Sequential_Read@i,f
  4481  02EF  1803               	skipnc
  4482  02F0  0ACD               	incf	I2C_EEPROM_Sequential_Read@i+1,f
  4483  02F1  3000               	movlw	0
  4484  02F2  07CD               	addwf	I2C_EEPROM_Sequential_Read@i+1,f
  4485  02F3                     l1932:	
  4486  02F3  0877               	movf	I2C_EEPROM_Sequential_Read@Length_of_Data+1,w
  4487  02F4  024D               	subwf	I2C_EEPROM_Sequential_Read@i+1,w
  4488  02F5  1D03               	skipz
  4489  02F6  2AF9               	goto	u1315
  4490  02F7  0876               	movf	I2C_EEPROM_Sequential_Read@Length_of_Data,w
  4491  02F8  024C               	subwf	I2C_EEPROM_Sequential_Read@i,w
  4492  02F9                     u1315:	
  4493  02F9  1C03               	skipc
  4494  02FA  2AFC               	goto	u1311
  4495  02FB  2AFD               	goto	u1310
  4496  02FC                     u1311:	
  4497  02FC  2ABE               	goto	l1922
  4498  02FD                     u1310:	
  4499  02FD  2B22               	goto	l1946
  4500  02FE                     l1936:	
  4501  02FE  3002               	movlw	2
  4502  02FF  1283               	bcf	3,5	;RP0=0, select bank0
  4503  0300  1303               	bcf	3,6	;RP1=0, select bank0
  4504  0301  064A               	xorwf	I2C_EEPROM_Sequential_Read@c,w
  4505  0302  044B               	iorwf	I2C_EEPROM_Sequential_Read@c+1,w
  4506  0303  1D03               	btfss	3,2
  4507  0304  2B06               	goto	u1321
  4508  0305  2B07               	goto	u1320
  4509  0306                     u1321:	
  4510  0306  2B08               	goto	l1940
  4511  0307                     u1320:	
  4512  0307  2B22               	goto	l1946
  4513  0308                     l1940:	
  4514  0308  120A  158A  2516  120A  118A  	fcall	_I2C_Master_RepeatedStart
  4515  030D                     l1942:	
  4516  030D  3001               	movlw	1
  4517  030E  1283               	bcf	3,5	;RP0=0, select bank0
  4518  030F  1303               	bcf	3,6	;RP1=0, select bank0
  4519  0310  07CA               	addwf	I2C_EEPROM_Sequential_Read@c,f
  4520  0311  1803               	skipnc
  4521  0312  0ACB               	incf	I2C_EEPROM_Sequential_Read@c+1,f
  4522  0313  3000               	movlw	0
  4523  0314  07CB               	addwf	I2C_EEPROM_Sequential_Read@c+1,f
  4524  0315                     l1944:	
  4525  0315  084B               	movf	I2C_EEPROM_Sequential_Read@c+1,w
  4526  0316  3A80               	xorlw	128
  4527  0317  00FF               	movwf	btemp+1
  4528  0318  3080               	movlw	128
  4529  0319  027F               	subwf	btemp+1,w
  4530  031A  1D03               	skipz
  4531  031B  2B1E               	goto	u1335
  4532  031C  3003               	movlw	3
  4533  031D  024A               	subwf	I2C_EEPROM_Sequential_Read@c,w
  4534  031E                     u1335:	
  4535  031E  1C03               	skipc
  4536  031F  2B21               	goto	u1331
  4537  0320  2B22               	goto	u1330
  4538  0321                     u1331:	
  4539  0321  2A92               	goto	l1912
  4540  0322                     u1330:	
  4541  0322                     l1946:	
  4542  0322  120A  158A  2532  120A  118A  	fcall	_I2C_Master_Stop
  4543  0327                     l306:	
  4544  0327  0008               	return
  4545  0328                     __end_of_I2C_EEPROM_Sequential_Read:	
  4546                           
  4547                           	psect	text18
  4548  0D4F                     __ptext18:	
  4549 ;; *************** function _I2C_Master_Send_NACK *****************
  4550 ;; Defined at:
  4551 ;;		line 52 in file "I2C_v1.1.c"
  4552 ;; Parameters:    Size  Location     Type
  4553 ;;		None
  4554 ;; Auto vars:     Size  Location     Type
  4555 ;;		None
  4556 ;; Return value:  Size  Location     Type
  4557 ;;                  1    wreg      void 
  4558 ;; Registers used:
  4559 ;;		status,2, status,0, pclath, cstack
  4560 ;; Tracked objects:
  4561 ;;		On entry : 0/0
  4562 ;;		On exit  : 0/0
  4563 ;;		Unchanged: 0/0
  4564 ;; Data sizes:     COMMON   BANK0   BANK1   BANK3   BANK2
  4565 ;;      Params:         0       0       0       0       0
  4566 ;;      Locals:         0       0       0       0       0
  4567 ;;      Temps:          0       0       0       0       0
  4568 ;;      Totals:         0       0       0       0       0
  4569 ;;Total ram usage:        0 bytes
  4570 ;; Hardware stack levels used:    1
  4571 ;; Hardware stack levels required when called:    1
  4572 ;; This function calls:
  4573 ;;		_I2C_Master_Check_Idle
  4574 ;; This function is called by:
  4575 ;;		_I2C_EEPROM_Sequential_Read
  4576 ;;		_I2C_EEPROM_CurrentAdd_Read
  4577 ;;		_I2C_EEPROM_Random_Read
  4578 ;; This function uses a non-reentrant model
  4579 ;;
  4580                           
  4581                           
  4582                           ;psect for function _I2C_Master_Send_NACK
  4583  0D4F                     _I2C_Master_Send_NACK:	
  4584  0D4F                     l1686:	
  4585                           ;incstack = 0
  4586                           ; Regs used in _I2C_Master_Send_NACK: [status,2+status,0+pclath+cstack]
  4587                           
  4588                           
  4589                           ;I2C_v1.1.c: 53:         I2C_Master_Check_Idle();
  4590  0D4F  120A  158A  25E3  120A  158A  	fcall	_I2C_Master_Check_Idle
  4591  0D54                     l1688:	
  4592                           
  4593                           ;I2C_v1.1.c: 54:         SSPCON2bits.ACKDT = 1;
  4594  0D54  1683               	bsf	3,5	;RP0=1, select bank1
  4595  0D55  1303               	bcf	3,6	;RP1=0, select bank1
  4596  0D56  1691               	bsf	17,5	;volatile
  4597  0D57                     l1690:	
  4598                           
  4599                           ;I2C_v1.1.c: 55:         SSPCON2bits.ACKEN = 1;
  4600  0D57  1611               	bsf	17,4	;volatile
  4601                           
  4602                           ;I2C_v1.1.c: 56:         I2C_Master_Check_Idle();
  4603  0D58  120A  158A  25E3  120A  158A  	fcall	_I2C_Master_Check_Idle
  4604  0D5D                     l197:	
  4605  0D5D  0008               	return
  4606  0D5E                     __end_of_I2C_Master_Send_NACK:	
  4607                           
  4608                           	psect	text19
  4609  0D40                     __ptext19:	
  4610 ;; *************** function _I2C_Master_Send_ACK *****************
  4611 ;; Defined at:
  4612 ;;		line 45 in file "I2C_v1.1.c"
  4613 ;; Parameters:    Size  Location     Type
  4614 ;;		None
  4615 ;; Auto vars:     Size  Location     Type
  4616 ;;		None
  4617 ;; Return value:  Size  Location     Type
  4618 ;;                  1    wreg      void 
  4619 ;; Registers used:
  4620 ;;		status,2, status,0, pclath, cstack
  4621 ;; Tracked objects:
  4622 ;;		On entry : 0/0
  4623 ;;		On exit  : 0/0
  4624 ;;		Unchanged: 0/0
  4625 ;; Data sizes:     COMMON   BANK0   BANK1   BANK3   BANK2
  4626 ;;      Params:         0       0       0       0       0
  4627 ;;      Locals:         0       0       0       0       0
  4628 ;;      Temps:          0       0       0       0       0
  4629 ;;      Totals:         0       0       0       0       0
  4630 ;;Total ram usage:        0 bytes
  4631 ;; Hardware stack levels used:    1
  4632 ;; Hardware stack levels required when called:    1
  4633 ;; This function calls:
  4634 ;;		_I2C_Master_Check_Idle
  4635 ;; This function is called by:
  4636 ;;		_I2C_EEPROM_Sequential_Read
  4637 ;; This function uses a non-reentrant model
  4638 ;;
  4639                           
  4640                           
  4641                           ;psect for function _I2C_Master_Send_ACK
  4642  0D40                     _I2C_Master_Send_ACK:	
  4643  0D40                     l1680:	
  4644                           ;incstack = 0
  4645                           ; Regs used in _I2C_Master_Send_ACK: [status,2+status,0+pclath+cstack]
  4646                           
  4647                           
  4648                           ;I2C_v1.1.c: 46:         I2C_Master_Check_Idle();
  4649  0D40  120A  158A  25E3  120A  158A  	fcall	_I2C_Master_Check_Idle
  4650  0D45                     l1682:	
  4651                           
  4652                           ;I2C_v1.1.c: 47:         SSPCON2bits.ACKDT = 0;
  4653  0D45  1683               	bsf	3,5	;RP0=1, select bank1
  4654  0D46  1303               	bcf	3,6	;RP1=0, select bank1
  4655  0D47  1291               	bcf	17,5	;volatile
  4656  0D48                     l1684:	
  4657                           
  4658                           ;I2C_v1.1.c: 48:         SSPCON2bits.ACKEN = 1;
  4659  0D48  1611               	bsf	17,4	;volatile
  4660                           
  4661                           ;I2C_v1.1.c: 49:         I2C_Master_Check_Idle();
  4662  0D49  120A  158A  25E3  120A  158A  	fcall	_I2C_Master_Check_Idle
  4663  0D4E                     l194:	
  4664  0D4E  0008               	return
  4665  0D4F                     __end_of_I2C_Master_Send_ACK:	
  4666                           
  4667                           	psect	text20
  4668  0DFE                     __ptext20:	
  4669 ;; *************** function _I2C_Master_Read *****************
  4670 ;; Defined at:
  4671 ;;		line 66 in file "I2C_v1.1.c"
  4672 ;; Parameters:    Size  Location     Type
  4673 ;;		None
  4674 ;; Auto vars:     Size  Location     Type
  4675 ;;  dummy           1    0        unsigned char 
  4676 ;;  Recieved_Dat    1    2[COMMON] unsigned char 
  4677 ;; Return value:  Size  Location     Type
  4678 ;;                  1    wreg      unsigned char 
  4679 ;; Registers used:
  4680 ;;		wreg, status,2, status,0, pclath, cstack
  4681 ;; Tracked objects:
  4682 ;;		On entry : 0/0
  4683 ;;		On exit  : 0/0
  4684 ;;		Unchanged: 0/0
  4685 ;; Data sizes:     COMMON   BANK0   BANK1   BANK3   BANK2
  4686 ;;      Params:         0       0       0       0       0
  4687 ;;      Locals:         2       0       0       0       0
  4688 ;;      Temps:          1       0       0       0       0
  4689 ;;      Totals:         3       0       0       0       0
  4690 ;;Total ram usage:        3 bytes
  4691 ;; Hardware stack levels used:    1
  4692 ;; Hardware stack levels required when called:    1
  4693 ;; This function calls:
  4694 ;;		_I2C_Master_Check_Idle
  4695 ;; This function is called by:
  4696 ;;		_I2C_EEPROM_Sequential_Read
  4697 ;;		_I2C_EEPROM_CurrentAdd_Read
  4698 ;;		_I2C_EEPROM_Random_Read
  4699 ;; This function uses a non-reentrant model
  4700 ;;
  4701                           
  4702                           
  4703                           ;psect for function _I2C_Master_Read
  4704  0DFE                     _I2C_Master_Read:	
  4705  0DFE                     l1692:	
  4706                           ;incstack = 0
  4707                           ; Regs used in _I2C_Master_Read: [wreg+status,2+status,0+pclath+cstack]
  4708                           
  4709                           
  4710                           ;I2C_v1.1.c: 67:         unsigned char Recieved_Data;;I2C_v1.1.c: 69:             if(SSP
      +                          CONbits.SSPOV){
  4711  0DFE  1283               	bcf	3,5	;RP0=0, select bank0
  4712  0DFF  1303               	bcf	3,6	;RP1=0, select bank0
  4713  0E00  1F14               	btfss	20,6	;volatile
  4714  0E01  2E03               	goto	u961
  4715  0E02  2E04               	goto	u960
  4716  0E03                     u961:	
  4717  0E03  2E06               	goto	l1698
  4718  0E04                     u960:	
  4719  0E04                     l1694:	
  4720  0E04  0813               	movf	19,w	;volatile
  4721  0E05                     l1696:	
  4722                           
  4723                           ;I2C_v1.1.c: 71:                 SSPCONbits.SSPOV = 0;
  4724  0E05  1314               	bcf	20,6	;volatile
  4725  0E06                     l1698:	
  4726                           
  4727                           ;I2C_v1.1.c: 73:         I2C_Master_Check_Idle();
  4728  0E06  120A  158A  25E3  120A  158A  	fcall	_I2C_Master_Check_Idle
  4729  0E0B                     l1700:	
  4730                           
  4731                           ;I2C_v1.1.c: 74:         SSPCON2bits.RCEN = 1;
  4732  0E0B  1683               	bsf	3,5	;RP0=1, select bank1
  4733  0E0C  1303               	bcf	3,6	;RP1=0, select bank1
  4734  0E0D  1591               	bsf	17,3	;volatile
  4735  0E0E                     l1702:	
  4736                           
  4737                           ;I2C_v1.1.c: 75:         I2C_Master_Check_Idle();
  4738  0E0E  120A  158A  25E3  120A  158A  	fcall	_I2C_Master_Check_Idle
  4739                           
  4740                           ;I2C_v1.1.c: 76:         Recieved_Data = SSPBUF;
  4741  0E13  1283               	bcf	3,5	;RP0=0, select bank0
  4742  0E14  1303               	bcf	3,6	;RP1=0, select bank0
  4743  0E15  0813               	movf	19,w	;volatile
  4744  0E16  00F0               	movwf	??_I2C_Master_Read
  4745  0E17  0870               	movf	??_I2C_Master_Read,w
  4746  0E18  00F2               	movwf	I2C_Master_Read@Recieved_Data
  4747                           
  4748                           ;I2C_v1.1.c: 77:         return Recieved_Data;
  4749  0E19  0872               	movf	I2C_Master_Read@Recieved_Data,w
  4750  0E1A                     l204:	
  4751  0E1A  0008               	return
  4752  0E1B                     __end_of_I2C_Master_Read:	
  4753                           
  4754                           	psect	text21
  4755  013E                     __ptext21:	
  4756 ;; *************** function _I2C_EEPROM_Page_Write *****************
  4757 ;; Defined at:
  4758 ;;		line 29 in file "24C64_EEPROM_v1.0.c"
  4759 ;; Parameters:    Size  Location     Type
  4760 ;;  I2C_Address     1    wreg     unsigned char 
  4761 ;;  EEPROM_Addre    2    2[COMMON] unsigned int 
  4762 ;;  Data_Buffer     1    4[COMMON] PTR unsigned char 
  4763 ;;		 -> writer_data_buffer(33), 
  4764 ;;  Length_of_Da    2    5[COMMON] unsigned int 
  4765 ;; Auto vars:     Size  Location     Type
  4766 ;;  I2C_Address     1    8[COMMON] unsigned char 
  4767 ;;  i               2    9[COMMON] unsigned int 
  4768 ;;  c               2   11[COMMON] int 
  4769 ;; Return value:  Size  Location     Type
  4770 ;;                  1    wreg      void 
  4771 ;; Registers used:
  4772 ;;		wreg, fsr0l, fsr0h, status,2, status,0, btemp+1, pclath, cstack
  4773 ;; Tracked objects:
  4774 ;;		On entry : 0/0
  4775 ;;		On exit  : 0/0
  4776 ;;		Unchanged: 0/0
  4777 ;; Data sizes:     COMMON   BANK0   BANK1   BANK3   BANK2
  4778 ;;      Params:         5       0       0       0       0
  4779 ;;      Locals:         5       0       0       0       0
  4780 ;;      Temps:          1       0       0       0       0
  4781 ;;      Totals:        11       0       0       0       0
  4782 ;;Total ram usage:       11 bytes
  4783 ;; Hardware stack levels used:    1
  4784 ;; Hardware stack levels required when called:    2
  4785 ;; This function calls:
  4786 ;;		_I2C_Master_RepeatedStart
  4787 ;;		_I2C_Master_Start
  4788 ;;		_I2C_Master_Stop
  4789 ;;		_I2C_Master_Write
  4790 ;; This function is called by:
  4791 ;;		_main
  4792 ;; This function uses a non-reentrant model
  4793 ;;
  4794                           
  4795                           
  4796                           ;psect for function _I2C_EEPROM_Page_Write
  4797  013E                     _I2C_EEPROM_Page_Write:	
  4798                           
  4799                           ;incstack = 0
  4800                           ; Regs used in _I2C_EEPROM_Page_Write: [wreg-fsr0h+status,2+status,0+btemp+1+pclath+csta
      +                          ck]
  4801                           ;I2C_EEPROM_Page_Write@I2C_Address stored from wreg
  4802  013E  00F8               	movwf	I2C_EEPROM_Page_Write@I2C_Address
  4803  013F                     l1844:	
  4804  013F  120A  158A  2524  120A  118A  	fcall	_I2C_Master_Start
  4805  0144                     l1846:	
  4806  0144  01FB               	clrf	I2C_EEPROM_Page_Write@c
  4807  0145  01FC               	clrf	I2C_EEPROM_Page_Write@c+1
  4808  0146                     l1852:	
  4809  0146  0878               	movf	I2C_EEPROM_Page_Write@I2C_Address,w
  4810  0147  120A  158A  259C  120A  118A  	fcall	_I2C_Master_Write
  4811  014C  3A00               	xorlw	0
  4812  014D  1D03               	skipz
  4813  014E  2950               	goto	u1221
  4814  014F  2951               	goto	u1220
  4815  0150                     u1221:	
  4816  0150  297D               	goto	l1866
  4817  0151                     u1220:	
  4818  0151                     l1854:	
  4819  0151  0873               	movf	I2C_EEPROM_Page_Write@EEPROM_Address+1,w
  4820  0152  120A  158A  259C  120A  118A  	fcall	_I2C_Master_Write
  4821  0157  0872               	movf	I2C_EEPROM_Page_Write@EEPROM_Address,w
  4822  0158  120A  158A  259C  120A  118A  	fcall	_I2C_Master_Write
  4823  015D                     l1856:	
  4824  015D  01F9               	clrf	I2C_EEPROM_Page_Write@i
  4825  015E  01FA               	clrf	I2C_EEPROM_Page_Write@i+1
  4826  015F  2972               	goto	l1862
  4827  0160                     l1858:	
  4828  0160  0879               	movf	I2C_EEPROM_Page_Write@i,w
  4829  0161  0774               	addwf	I2C_EEPROM_Page_Write@Data_Buffer,w
  4830  0162  00F7               	movwf	??_I2C_EEPROM_Page_Write
  4831  0163  0877               	movf	??_I2C_EEPROM_Page_Write,w
  4832  0164  0084               	movwf	4
  4833  0165  1383               	bcf	3,7	;select IRP bank0
  4834  0166  0800               	movf	0,w
  4835  0167  120A  158A  259C  120A  118A  	fcall	_I2C_Master_Write
  4836  016C                     l1860:	
  4837  016C  3001               	movlw	1
  4838  016D  07F9               	addwf	I2C_EEPROM_Page_Write@i,f
  4839  016E  1803               	skipnc
  4840  016F  0AFA               	incf	I2C_EEPROM_Page_Write@i+1,f
  4841  0170  3000               	movlw	0
  4842  0171  07FA               	addwf	I2C_EEPROM_Page_Write@i+1,f
  4843  0172                     l1862:	
  4844  0172  0876               	movf	I2C_EEPROM_Page_Write@Length_of_Data+1,w
  4845  0173  027A               	subwf	I2C_EEPROM_Page_Write@i+1,w
  4846  0174  1D03               	skipz
  4847  0175  2978               	goto	u1235
  4848  0176  0875               	movf	I2C_EEPROM_Page_Write@Length_of_Data,w
  4849  0177  0279               	subwf	I2C_EEPROM_Page_Write@i,w
  4850  0178                     u1235:	
  4851  0178  1C03               	skipc
  4852  0179  297B               	goto	u1231
  4853  017A  297C               	goto	u1230
  4854  017B                     u1231:	
  4855  017B  2960               	goto	l1858
  4856  017C                     u1230:	
  4857  017C  299D               	goto	l1876
  4858  017D                     l1866:	
  4859  017D  3002               	movlw	2
  4860  017E  067B               	xorwf	I2C_EEPROM_Page_Write@c,w
  4861  017F  047C               	iorwf	I2C_EEPROM_Page_Write@c+1,w
  4862  0180  1D03               	btfss	3,2
  4863  0181  2983               	goto	u1241
  4864  0182  2984               	goto	u1240
  4865  0183                     u1241:	
  4866  0183  2985               	goto	l1870
  4867  0184                     u1240:	
  4868  0184  299D               	goto	l1876
  4869  0185                     l1870:	
  4870  0185  120A  158A  2516  120A  118A  	fcall	_I2C_Master_RepeatedStart
  4871  018A                     l1872:	
  4872  018A  3001               	movlw	1
  4873  018B  07FB               	addwf	I2C_EEPROM_Page_Write@c,f
  4874  018C  1803               	skipnc
  4875  018D  0AFC               	incf	I2C_EEPROM_Page_Write@c+1,f
  4876  018E  3000               	movlw	0
  4877  018F  07FC               	addwf	I2C_EEPROM_Page_Write@c+1,f
  4878  0190                     l1874:	
  4879  0190  087C               	movf	I2C_EEPROM_Page_Write@c+1,w
  4880  0191  3A80               	xorlw	128
  4881  0192  00FF               	movwf	btemp+1
  4882  0193  3080               	movlw	128
  4883  0194  027F               	subwf	btemp+1,w
  4884  0195  1D03               	skipz
  4885  0196  2999               	goto	u1255
  4886  0197  3003               	movlw	3
  4887  0198  027B               	subwf	I2C_EEPROM_Page_Write@c,w
  4888  0199                     u1255:	
  4889  0199  1C03               	skipc
  4890  019A  299C               	goto	u1251
  4891  019B  299D               	goto	u1250
  4892  019C                     u1251:	
  4893  019C  2946               	goto	l1852
  4894  019D                     u1250:	
  4895  019D                     l1876:	
  4896  019D  120A  158A  2532  120A  118A  	fcall	_I2C_Master_Stop
  4897  01A2                     l277:	
  4898  01A2  0008               	return
  4899  01A3                     __end_of_I2C_EEPROM_Page_Write:	
  4900                           
  4901                           	psect	text22
  4902  0EBB                     __ptext22:	
  4903 ;; *************** function _I2C_EEPROM_Byte_Write *****************
  4904 ;; Defined at:
  4905 ;;		line 15 in file "24C64_EEPROM_v1.0.c"
  4906 ;; Parameters:    Size  Location     Type
  4907 ;;  I2C_Address     1    wreg     unsigned char 
  4908 ;;  EEPROM_Addre    2    2[COMMON] unsigned int 
  4909 ;;  Data            1    4[COMMON] unsigned char 
  4910 ;; Auto vars:     Size  Location     Type
  4911 ;;  I2C_Address     1    5[COMMON] unsigned char 
  4912 ;;  c               2    6[COMMON] int 
  4913 ;; Return value:  Size  Location     Type
  4914 ;;                  1    wreg      void 
  4915 ;; Registers used:
  4916 ;;		wreg, status,2, status,0, btemp+1, pclath, cstack
  4917 ;; Tracked objects:
  4918 ;;		On entry : 0/0
  4919 ;;		On exit  : 0/0
  4920 ;;		Unchanged: 0/0
  4921 ;; Data sizes:     COMMON   BANK0   BANK1   BANK3   BANK2
  4922 ;;      Params:         3       0       0       0       0
  4923 ;;      Locals:         3       0       0       0       0
  4924 ;;      Temps:          0       0       0       0       0
  4925 ;;      Totals:         6       0       0       0       0
  4926 ;;Total ram usage:        6 bytes
  4927 ;; Hardware stack levels used:    1
  4928 ;; Hardware stack levels required when called:    2
  4929 ;; This function calls:
  4930 ;;		_I2C_Master_RepeatedStart
  4931 ;;		_I2C_Master_Start
  4932 ;;		_I2C_Master_Stop
  4933 ;;		_I2C_Master_Write
  4934 ;; This function is called by:
  4935 ;;		_main
  4936 ;; This function uses a non-reentrant model
  4937 ;;
  4938                           
  4939                           
  4940                           ;psect for function _I2C_EEPROM_Byte_Write
  4941  0EBB                     _I2C_EEPROM_Byte_Write:	
  4942                           
  4943                           ;incstack = 0
  4944                           ; Regs used in _I2C_EEPROM_Byte_Write: [wreg+status,2+status,0+btemp+1+pclath+cstack]
  4945                           ;I2C_EEPROM_Byte_Write@I2C_Address stored from wreg
  4946  0EBB  00F5               	movwf	I2C_EEPROM_Byte_Write@I2C_Address
  4947  0EBC                     l1878:	
  4948  0EBC  120A  158A  2524  120A  158A  	fcall	_I2C_Master_Start
  4949  0EC1                     l1880:	
  4950  0EC1  01F6               	clrf	I2C_EEPROM_Byte_Write@c
  4951  0EC2  01F7               	clrf	I2C_EEPROM_Byte_Write@c+1
  4952  0EC3                     l1886:	
  4953  0EC3  0875               	movf	I2C_EEPROM_Byte_Write@I2C_Address,w
  4954  0EC4  120A  158A  259C  120A  158A  	fcall	_I2C_Master_Write
  4955  0EC9  3A00               	xorlw	0
  4956  0ECA  1D03               	skipz
  4957  0ECB  2ECD               	goto	u1261
  4958  0ECC  2ECE               	goto	u1260
  4959  0ECD                     u1261:	
  4960  0ECD  2EE1               	goto	l1892
  4961  0ECE                     u1260:	
  4962  0ECE                     l1888:	
  4963  0ECE  0873               	movf	I2C_EEPROM_Byte_Write@EEPROM_Address+1,w
  4964  0ECF  120A  158A  259C  120A  158A  	fcall	_I2C_Master_Write
  4965  0ED4  0872               	movf	I2C_EEPROM_Byte_Write@EEPROM_Address,w
  4966  0ED5  120A  158A  259C  120A  158A  	fcall	_I2C_Master_Write
  4967  0EDA  0874               	movf	I2C_EEPROM_Byte_Write@Data,w
  4968  0EDB  120A  158A  259C  120A  158A  	fcall	_I2C_Master_Write
  4969  0EE0  2F01               	goto	l1902
  4970  0EE1                     l1892:	
  4971  0EE1  3002               	movlw	2
  4972  0EE2  0676               	xorwf	I2C_EEPROM_Byte_Write@c,w
  4973  0EE3  0477               	iorwf	I2C_EEPROM_Byte_Write@c+1,w
  4974  0EE4  1D03               	btfss	3,2
  4975  0EE5  2EE7               	goto	u1271
  4976  0EE6  2EE8               	goto	u1270
  4977  0EE7                     u1271:	
  4978  0EE7  2EE9               	goto	l1896
  4979  0EE8                     u1270:	
  4980  0EE8  2F01               	goto	l1902
  4981  0EE9                     l1896:	
  4982  0EE9  120A  158A  2516  120A  158A  	fcall	_I2C_Master_RepeatedStart
  4983  0EEE                     l1898:	
  4984  0EEE  3001               	movlw	1
  4985  0EEF  07F6               	addwf	I2C_EEPROM_Byte_Write@c,f
  4986  0EF0  1803               	skipnc
  4987  0EF1  0AF7               	incf	I2C_EEPROM_Byte_Write@c+1,f
  4988  0EF2  3000               	movlw	0
  4989  0EF3  07F7               	addwf	I2C_EEPROM_Byte_Write@c+1,f
  4990  0EF4                     l1900:	
  4991  0EF4  0877               	movf	I2C_EEPROM_Byte_Write@c+1,w
  4992  0EF5  3A80               	xorlw	128
  4993  0EF6  00FF               	movwf	btemp+1
  4994  0EF7  3080               	movlw	128
  4995  0EF8  027F               	subwf	btemp+1,w
  4996  0EF9  1D03               	skipz
  4997  0EFA  2EFD               	goto	u1285
  4998  0EFB  3003               	movlw	3
  4999  0EFC  0276               	subwf	I2C_EEPROM_Byte_Write@c,w
  5000  0EFD                     u1285:	
  5001  0EFD  1C03               	skipc
  5002  0EFE  2F00               	goto	u1281
  5003  0EFF  2F01               	goto	u1280
  5004  0F00                     u1281:	
  5005  0F00  2EC3               	goto	l1886
  5006  0F01                     u1280:	
  5007  0F01                     l1902:	
  5008  0F01  120A  158A  2532  120A  158A  	fcall	_I2C_Master_Stop
  5009  0F06                     l266:	
  5010  0F06  0008               	return
  5011  0F07                     __end_of_I2C_EEPROM_Byte_Write:	
  5012                           
  5013                           	psect	text23
  5014  0D9C                     __ptext23:	
  5015 ;; *************** function _I2C_Master_Write *****************
  5016 ;; Defined at:
  5017 ;;		line 59 in file "I2C_v1.1.c"
  5018 ;; Parameters:    Size  Location     Type
  5019 ;;  Master_Tx_Da    1    wreg     unsigned char 
  5020 ;; Auto vars:     Size  Location     Type
  5021 ;;  Master_Tx_Da    1    1[COMMON] unsigned char 
  5022 ;; Return value:  Size  Location     Type
  5023 ;;                  1    wreg      unsigned char 
  5024 ;; Registers used:
  5025 ;;		wreg, status,2, status,0, pclath, cstack
  5026 ;; Tracked objects:
  5027 ;;		On entry : 0/0
  5028 ;;		On exit  : 0/0
  5029 ;;		Unchanged: 0/0
  5030 ;; Data sizes:     COMMON   BANK0   BANK1   BANK3   BANK2
  5031 ;;      Params:         0       0       0       0       0
  5032 ;;      Locals:         1       0       0       0       0
  5033 ;;      Temps:          1       0       0       0       0
  5034 ;;      Totals:         2       0       0       0       0
  5035 ;;Total ram usage:        2 bytes
  5036 ;; Hardware stack levels used:    1
  5037 ;; Hardware stack levels required when called:    1
  5038 ;; This function calls:
  5039 ;;		_I2C_Master_Check_Idle
  5040 ;; This function is called by:
  5041 ;;		_I2C_IO_Expander_Writer
  5042 ;;		_I2C_EEPROM_Byte_Write
  5043 ;;		_I2C_EEPROM_Page_Write
  5044 ;;		_I2C_EEPROM_Sequential_Read
  5045 ;;		_I2C_EEPROM_CurrentAdd_Read
  5046 ;;		_I2C_EEPROM_Random_Read
  5047 ;; This function uses a non-reentrant model
  5048 ;;
  5049                           
  5050                           
  5051                           ;psect for function _I2C_Master_Write
  5052  0D9C                     _I2C_Master_Write:	
  5053                           
  5054                           ;incstack = 0
  5055                           ; Regs used in _I2C_Master_Write: [wreg+status,2+status,0+pclath+cstack]
  5056                           ;I2C_Master_Write@Master_Tx_Data stored from wreg
  5057  0D9C  00F1               	movwf	I2C_Master_Write@Master_Tx_Data
  5058  0D9D                     l1642:	
  5059                           
  5060                           ;I2C_v1.1.c: 60:         I2C_Master_Check_Idle();
  5061  0D9D  120A  158A  25E3  120A  158A  	fcall	_I2C_Master_Check_Idle
  5062  0DA2                     l1644:	
  5063                           
  5064                           ;I2C_v1.1.c: 61:         SSPBUF = Master_Tx_Data;
  5065  0DA2  0871               	movf	I2C_Master_Write@Master_Tx_Data,w
  5066  0DA3  1283               	bcf	3,5	;RP0=0, select bank0
  5067  0DA4  1303               	bcf	3,6	;RP1=0, select bank0
  5068  0DA5  0093               	movwf	19	;volatile
  5069  0DA6                     l1646:	
  5070                           
  5071                           ;I2C_v1.1.c: 62:         I2C_Master_Check_Idle();
  5072  0DA6  120A  158A  25E3  120A  158A  	fcall	_I2C_Master_Check_Idle
  5073  0DAB                     l1648:	
  5074                           
  5075                           ;I2C_v1.1.c: 63:         return SSPCON2bits.ACKSTAT;
  5076  0DAB  1683               	bsf	3,5	;RP0=1, select bank1
  5077  0DAC  1303               	bcf	3,6	;RP1=0, select bank1
  5078  0DAD  0E11               	swapf	17,w	;volatile
  5079  0DAE  00F0               	movwf	??_I2C_Master_Write
  5080  0DAF  0CF0               	rrf	??_I2C_Master_Write,f
  5081  0DB0  0C70               	rrf	??_I2C_Master_Write,w
  5082  0DB1  3901               	andlw	1
  5083  0DB2                     l200:	
  5084  0DB2  0008               	return
  5085  0DB3                     __end_of_I2C_Master_Write:	
  5086                           
  5087                           	psect	text24
  5088  0D32                     __ptext24:	
  5089 ;; *************** function _I2C_Master_Stop *****************
  5090 ;; Defined at:
  5091 ;;		line 39 in file "I2C_v1.1.c"
  5092 ;; Parameters:    Size  Location     Type
  5093 ;;		None
  5094 ;; Auto vars:     Size  Location     Type
  5095 ;;		None
  5096 ;; Return value:  Size  Location     Type
  5097 ;;                  1    wreg      void 
  5098 ;; Registers used:
  5099 ;;		status,2, status,0, pclath, cstack
  5100 ;; Tracked objects:
  5101 ;;		On entry : 0/0
  5102 ;;		On exit  : 0/0
  5103 ;;		Unchanged: 0/0
  5104 ;; Data sizes:     COMMON   BANK0   BANK1   BANK3   BANK2
  5105 ;;      Params:         0       0       0       0       0
  5106 ;;      Locals:         0       0       0       0       0
  5107 ;;      Temps:          0       0       0       0       0
  5108 ;;      Totals:         0       0       0       0       0
  5109 ;;Total ram usage:        0 bytes
  5110 ;; Hardware stack levels used:    1
  5111 ;; Hardware stack levels required when called:    1
  5112 ;; This function calls:
  5113 ;;		_I2C_Master_Check_Idle
  5114 ;; This function is called by:
  5115 ;;		_I2C_IO_Expander_Writer
  5116 ;;		_I2C_EEPROM_Byte_Write
  5117 ;;		_I2C_EEPROM_Page_Write
  5118 ;;		_I2C_EEPROM_Sequential_Read
  5119 ;;		_I2C_EEPROM_CurrentAdd_Read
  5120 ;;		_I2C_EEPROM_Random_Read
  5121 ;; This function uses a non-reentrant model
  5122 ;;
  5123                           
  5124                           
  5125                           ;psect for function _I2C_Master_Stop
  5126  0D32                     _I2C_Master_Stop:	
  5127  0D32                     l1638:	
  5128                           ;incstack = 0
  5129                           ; Regs used in _I2C_Master_Stop: [status,2+status,0+pclath+cstack]
  5130                           
  5131                           
  5132                           ;I2C_v1.1.c: 40:         I2C_Master_Check_Idle();
  5133  0D32  120A  158A  25E3  120A  158A  	fcall	_I2C_Master_Check_Idle
  5134  0D37                     l1640:	
  5135                           
  5136                           ;I2C_v1.1.c: 41:         SSPCON2bits.PEN = 1;
  5137  0D37  1683               	bsf	3,5	;RP0=1, select bank1
  5138  0D38  1303               	bcf	3,6	;RP1=0, select bank1
  5139  0D39  1511               	bsf	17,2	;volatile
  5140                           
  5141                           ;I2C_v1.1.c: 42:         I2C_Master_Check_Idle();
  5142  0D3A  120A  158A  25E3  120A  158A  	fcall	_I2C_Master_Check_Idle
  5143  0D3F                     l191:	
  5144  0D3F  0008               	return
  5145  0D40                     __end_of_I2C_Master_Stop:	
  5146                           
  5147                           	psect	text25
  5148  0D24                     __ptext25:	
  5149 ;; *************** function _I2C_Master_Start *****************
  5150 ;; Defined at:
  5151 ;;		line 27 in file "I2C_v1.1.c"
  5152 ;; Parameters:    Size  Location     Type
  5153 ;;		None
  5154 ;; Auto vars:     Size  Location     Type
  5155 ;;		None
  5156 ;; Return value:  Size  Location     Type
  5157 ;;                  1    wreg      void 
  5158 ;; Registers used:
  5159 ;;		status,2, status,0, pclath, cstack
  5160 ;; Tracked objects:
  5161 ;;		On entry : 0/0
  5162 ;;		On exit  : 0/0
  5163 ;;		Unchanged: 0/0
  5164 ;; Data sizes:     COMMON   BANK0   BANK1   BANK3   BANK2
  5165 ;;      Params:         0       0       0       0       0
  5166 ;;      Locals:         0       0       0       0       0
  5167 ;;      Temps:          0       0       0       0       0
  5168 ;;      Totals:         0       0       0       0       0
  5169 ;;Total ram usage:        0 bytes
  5170 ;; Hardware stack levels used:    1
  5171 ;; Hardware stack levels required when called:    1
  5172 ;; This function calls:
  5173 ;;		_I2C_Master_Check_Idle
  5174 ;; This function is called by:
  5175 ;;		_I2C_IO_Expander_Writer
  5176 ;;		_I2C_EEPROM_Byte_Write
  5177 ;;		_I2C_EEPROM_Page_Write
  5178 ;;		_I2C_EEPROM_Sequential_Read
  5179 ;;		_I2C_EEPROM_CurrentAdd_Read
  5180 ;;		_I2C_EEPROM_Random_Read
  5181 ;; This function uses a non-reentrant model
  5182 ;;
  5183                           
  5184                           
  5185                           ;psect for function _I2C_Master_Start
  5186  0D24                     _I2C_Master_Start:	
  5187  0D24                     l1634:	
  5188                           ;incstack = 0
  5189                           ; Regs used in _I2C_Master_Start: [status,2+status,0+pclath+cstack]
  5190                           
  5191                           
  5192                           ;I2C_v1.1.c: 28:         I2C_Master_Check_Idle();
  5193  0D24  120A  158A  25E3  120A  158A  	fcall	_I2C_Master_Check_Idle
  5194  0D29                     l1636:	
  5195                           
  5196                           ;I2C_v1.1.c: 29:         SSPCON2bits.SEN = 1;
  5197  0D29  1683               	bsf	3,5	;RP0=1, select bank1
  5198  0D2A  1303               	bcf	3,6	;RP1=0, select bank1
  5199  0D2B  1411               	bsf	17,0	;volatile
  5200                           
  5201                           ;I2C_v1.1.c: 30:         I2C_Master_Check_Idle();
  5202  0D2C  120A  158A  25E3  120A  158A  	fcall	_I2C_Master_Check_Idle
  5203  0D31                     l185:	
  5204  0D31  0008               	return
  5205  0D32                     __end_of_I2C_Master_Start:	
  5206                           
  5207                           	psect	text26
  5208  0D16                     __ptext26:	
  5209 ;; *************** function _I2C_Master_RepeatedStart *****************
  5210 ;; Defined at:
  5211 ;;		line 33 in file "I2C_v1.1.c"
  5212 ;; Parameters:    Size  Location     Type
  5213 ;;		None
  5214 ;; Auto vars:     Size  Location     Type
  5215 ;;		None
  5216 ;; Return value:  Size  Location     Type
  5217 ;;                  1    wreg      void 
  5218 ;; Registers used:
  5219 ;;		status,2, status,0, pclath, cstack
  5220 ;; Tracked objects:
  5221 ;;		On entry : 0/0
  5222 ;;		On exit  : 0/0
  5223 ;;		Unchanged: 0/0
  5224 ;; Data sizes:     COMMON   BANK0   BANK1   BANK3   BANK2
  5225 ;;      Params:         0       0       0       0       0
  5226 ;;      Locals:         0       0       0       0       0
  5227 ;;      Temps:          0       0       0       0       0
  5228 ;;      Totals:         0       0       0       0       0
  5229 ;;Total ram usage:        0 bytes
  5230 ;; Hardware stack levels used:    1
  5231 ;; Hardware stack levels required when called:    1
  5232 ;; This function calls:
  5233 ;;		_I2C_Master_Check_Idle
  5234 ;; This function is called by:
  5235 ;;		_I2C_EEPROM_Byte_Write
  5236 ;;		_I2C_EEPROM_Page_Write
  5237 ;;		_I2C_EEPROM_Sequential_Read
  5238 ;;		_I2C_EEPROM_CurrentAdd_Read
  5239 ;;		_I2C_EEPROM_Random_Read
  5240 ;; This function uses a non-reentrant model
  5241 ;;
  5242                           
  5243                           
  5244                           ;psect for function _I2C_Master_RepeatedStart
  5245  0D16                     _I2C_Master_RepeatedStart:	
  5246  0D16                     l1676:	
  5247                           ;incstack = 0
  5248                           ; Regs used in _I2C_Master_RepeatedStart: [status,2+status,0+pclath+cstack]
  5249                           
  5250                           
  5251                           ;I2C_v1.1.c: 34:         I2C_Master_Check_Idle();
  5252  0D16  120A  158A  25E3  120A  158A  	fcall	_I2C_Master_Check_Idle
  5253  0D1B                     l1678:	
  5254                           
  5255                           ;I2C_v1.1.c: 35:         SSPCON2bits.RSEN = 1;
  5256  0D1B  1683               	bsf	3,5	;RP0=1, select bank1
  5257  0D1C  1303               	bcf	3,6	;RP1=0, select bank1
  5258  0D1D  1491               	bsf	17,1	;volatile
  5259                           
  5260                           ;I2C_v1.1.c: 36:         I2C_Master_Check_Idle();
  5261  0D1E  120A  158A  25E3  120A  158A  	fcall	_I2C_Master_Check_Idle
  5262  0D23                     l188:	
  5263  0D23  0008               	return
  5264  0D24                     __end_of_I2C_Master_RepeatedStart:	
  5265                           
  5266                           	psect	text27
  5267  0DE3                     __ptext27:	
  5268 ;; *************** function _I2C_Master_Check_Idle *****************
  5269 ;; Defined at:
  5270 ;;		line 23 in file "I2C_v1.1.c"
  5271 ;; Parameters:    Size  Location     Type
  5272 ;;		None
  5273 ;; Auto vars:     Size  Location     Type
  5274 ;;		None
  5275 ;; Return value:  Size  Location     Type
  5276 ;;                  1    wreg      void 
  5277 ;; Registers used:
  5278 ;;		None
  5279 ;; Tracked objects:
  5280 ;;		On entry : 0/0
  5281 ;;		On exit  : 0/0
  5282 ;;		Unchanged: 0/0
  5283 ;; Data sizes:     COMMON   BANK0   BANK1   BANK3   BANK2
  5284 ;;      Params:         0       0       0       0       0
  5285 ;;      Locals:         0       0       0       0       0
  5286 ;;      Temps:          0       0       0       0       0
  5287 ;;      Totals:         0       0       0       0       0
  5288 ;;Total ram usage:        0 bytes
  5289 ;; Hardware stack levels used:    1
  5290 ;; This function calls:
  5291 ;;		Nothing
  5292 ;; This function is called by:
  5293 ;;		_I2C_Master_Start
  5294 ;;		_I2C_Master_RepeatedStart
  5295 ;;		_I2C_Master_Stop
  5296 ;;		_I2C_Master_Send_ACK
  5297 ;;		_I2C_Master_Send_NACK
  5298 ;;		_I2C_Master_Write
  5299 ;;		_I2C_Master_Read
  5300 ;; This function uses a non-reentrant model
  5301 ;;
  5302                           
  5303                           
  5304                           ;psect for function _I2C_Master_Check_Idle
  5305  0DE3                     _I2C_Master_Check_Idle:	
  5306  0DE3                     l1622:	
  5307                           ;incstack = 0
  5308                           ; Regs used in _I2C_Master_Check_Idle: []
  5309                           
  5310  0DE3                     l179:	
  5311                           ;I2C_v1.1.c: 24:         while((SSPSTATbits.R_nW)||(SSPCON2bits.SEN)||(SSPCON2bits.RSEN)
      +                          ||(SSPCON2bits.PEN)||(SSPCON2bits.RCEN)||(SSPCON2bits.ACKEN));
  5312                           
  5313  0DE3  1683               	bsf	3,5	;RP0=1, select bank1
  5314  0DE4  1303               	bcf	3,6	;RP1=0, select bank1
  5315  0DE5  1914               	btfsc	20,2	;volatile
  5316  0DE6  2DE8               	goto	u881
  5317  0DE7  2DE9               	goto	u880
  5318  0DE8                     u881:	
  5319  0DE8  2DE3               	goto	l179
  5320  0DE9                     u880:	
  5321  0DE9                     l1624:	
  5322  0DE9  1811               	btfsc	17,0	;volatile
  5323  0DEA  2DEC               	goto	u891
  5324  0DEB  2DED               	goto	u890
  5325  0DEC                     u891:	
  5326  0DEC  2DE3               	goto	l179
  5327  0DED                     u890:	
  5328  0DED                     l1626:	
  5329  0DED  1891               	btfsc	17,1	;volatile
  5330  0DEE  2DF0               	goto	u901
  5331  0DEF  2DF1               	goto	u900
  5332  0DF0                     u901:	
  5333  0DF0  2DE3               	goto	l179
  5334  0DF1                     u900:	
  5335  0DF1                     l1628:	
  5336  0DF1  1911               	btfsc	17,2	;volatile
  5337  0DF2  2DF4               	goto	u911
  5338  0DF3  2DF5               	goto	u910
  5339  0DF4                     u911:	
  5340  0DF4  2DE3               	goto	l179
  5341  0DF5                     u910:	
  5342  0DF5                     l1630:	
  5343  0DF5  1991               	btfsc	17,3	;volatile
  5344  0DF6  2DF8               	goto	u921
  5345  0DF7  2DF9               	goto	u920
  5346  0DF8                     u921:	
  5347  0DF8  2DE3               	goto	l179
  5348  0DF9                     u920:	
  5349  0DF9                     l1632:	
  5350  0DF9  1A11               	btfsc	17,4	;volatile
  5351  0DFA  2DFC               	goto	u931
  5352  0DFB  2DFD               	goto	u930
  5353  0DFC                     u931:	
  5354  0DFC  2DE3               	goto	l179
  5355  0DFD                     u930:	
  5356  0DFD                     l182:	
  5357  0DFD  0008               	return
  5358  0DFE                     __end_of_I2C_Master_Check_Idle:	
  5359  0008                     
  5360                           	psect	functab
  5361  0003                     __pfunctab:	
  5362  0003                     __fptable:	
  5363  0003                     fptable:	
  5364  0003  00FF               	movwf	(btemp+1)& (0+127)
  5365  0004  3000               	movlw	high fptable
  5366  0005  008A               	movwf	10
  5367  0006  087F               	movf	(btemp+1)& (0+127),w
  5368  0007  0782               	addwf	2,f
  5369  0008                     fpbase:	
  5370  0008  2808               	goto	fpbase	; Call via a null pointer and you will get stuck here.
  5371  0009                     fp__I2C_IO_Expander_Writer:	
  5372  0009  120A  158A  2DB3   	ljmp	_I2C_IO_Expander_Writer
  5373  000C                     fp__LCD_data_sender:	
  5374  000C                     entry__LCD_data_sender:	
  5375  000C  120A  118A  28DD   	ljmp	_LCD_data_sender
  5376  000F                     fp__LCD_send_commad:	
  5377  000F                     entry__LCD_send_commad:	
  5378  000F  120A  158A  2D71   	ljmp	_LCD_send_commad
  5379  0012                     __end_of__fptable:	
  5380  007E                     btemp	set	126	;btemp
  5381  007E                     wtemp0	set	126


Data Sizes:
    Strings     111
    Constant    11
    Data        37
    BSS         41
    Persistent  0
    Stack       0

Auto Spaces:
    Space          Size  Autos    Used
    COMMON           14     14      14
    BANK0            80     29      74
    BANK1            80      0      33
    BANK3            96      0       0
    BANK2            96      0       0

Pointer List with Targets:

    p_LCD_data_sender$2	PTR FTN(unsigned char ,unsigned char ,)void  size(1) Largest target is 1
		 -> I2C_IO_Expander_Writer(), 

    sprintf@f	PTR const unsigned char  size(1) Largest target is 3
		 -> STR_7(CODE[3]), 

    sprintf@sp	PTR unsigned char  size(1) Largest target is 3
		 -> main@spage_num(BANK0[3]), 

    sprintf@ap	PTR void [1] size(1) Largest target is 2
		 -> ?_sprintf(BANK0[2]), 

    I2C_EEPROM_Sequential_Read@Data_Buffer	PTR unsigned char  size(1) Largest target is 17
		 -> reader_data_buffer_H(BANK0[17]), reader_data_buffer_L(BANK0[17]), 

    I2C_EEPROM_Page_Write@Data_Buffer	PTR unsigned char  size(1) Largest target is 33
		 -> writer_data_buffer(BANK1[33]), 

    I2C_LCD_init@LCD_Obj_Add	PTR struct I2C_LCD size(1) Largest target is 2
		 -> LCD1(BANK0[2]), 

    I2C_LCD_write_string@str	PTR unsigned char  size(2) Largest target is 21
		 -> STR_10(CODE[4]), STR_9(CODE[4]), STR_8(CODE[13]), reader_data_buffer_H(BANK0[17]), 
		 -> reader_data_buffer_L(BANK0[17]), STR_6(CODE[18]), STR_5(CODE[10]), main@spage_num(BANK0[3]), 
		 -> STR_4(CODE[13]), STR_3(CODE[21]), STR_2(CODE[21]), STR_1(CODE[17]), 

    LCD_data_sender@callback_function	PTR FTN(unsigned char ,unsigned char ,)void  size(1) Largest target is 1
		 -> I2C_IO_Expander_Writer(), 

    p_LCD_send_commad	PTR FTN(struct I2C_LCD,unsigned char ,)void  size(1) Largest target is 1
		 -> LCD_send_commad(), 

    p_LCD_data_sender	PTR FTN(struct I2C_LCD,unsigned char ,PTR FTN(unsigned char ,unsigned char ,)void ,)void  size(1) Largest target is 1
		 -> LCD_data_sender(), 

    p_I2C_IO_Expander_Writer	PTR FTN(unsigned char ,unsigned char ,)void  size(1) Largest target is 1
		 -> I2C_IO_Expander_Writer(), 


Critical Paths under _main in COMMON

    _sprintf->___lwmod
    ___lwmod->___lwdiv
    _I2C_Master_Initialize->___lldiv
    _I2C_LCD_write_string->_I2C_LCD_write_char
    _I2C_LCD_write_string->_LCD_send_commad
    _I2C_LCD_write_char->_LCD_data_sender
    _I2C_LCD_set_cursor->_LCD_send_commad
    _I2C_LCD_init->_LCD_send_commad
    _I2C_LCD_entry_mode->_LCD_send_commad
    _I2C_LCD_display_on_off_control->_LCD_send_commad
    _I2C_LCD_clear->_LCD_send_commad
    _LCD_send_commad->_LCD_data_sender
    _LCD_data_sender->_I2C_IO_Expander_Writer
    _I2C_IO_Expander_Writer->_I2C_Master_Write
    _I2C_EEPROM_Sequential_Read->_I2C_Master_Read
    _I2C_EEPROM_Page_Write->_I2C_Master_Write
    _I2C_EEPROM_Byte_Write->_I2C_Master_Write

Critical Paths under _main in BANK0

    _main->_I2C_LCD_init
    _I2C_LCD_write_string->_I2C_LCD_write_char
    _I2C_LCD_write_string->_LCD_send_commad
    _I2C_LCD_set_cursor->_LCD_send_commad
    _I2C_LCD_init->_I2C_LCD_display_on_off_control
    _I2C_LCD_entry_mode->_LCD_send_commad
    _I2C_LCD_display_on_off_control->_LCD_send_commad
    _I2C_LCD_clear->_LCD_send_commad

Critical Paths under _main in BANK1

    None.

Critical Paths under _main in BANK3

    None.

Critical Paths under _main in BANK2

    None.

Call Graph Tables:

 ---------------------------------------------------------------------------------
 (Depth) Function   	        Calls       Base Space   Used Autos Params    Refs
 ---------------------------------------------------------------------------------
 (0) _main                                                14    14      0   27501
                                             15 BANK0     14    14      0
              _I2C_EEPROM_Byte_Write
              _I2C_EEPROM_Page_Write
         _I2C_EEPROM_Sequential_Read
                      _I2C_LCD_clear
                       _I2C_LCD_init
                 _I2C_LCD_set_cursor
               _I2C_LCD_write_string
              _I2C_Master_Initialize
             _Initial_Configurations
                            _sprintf
 ---------------------------------------------------------------------------------
 (1) _sprintf                                             21    18      3    1211
                                              0 BANK0     13    10      3
                            ___lwdiv
                            ___lwmod
 ---------------------------------------------------------------------------------
 (2) ___lwmod                                              6     2      4     311
                                              8 COMMON     6     2      4
                            ___lwdiv (ARG)
 ---------------------------------------------------------------------------------
 (2) ___lwdiv                                              8     4      4     314
                                              0 COMMON     8     4      4
 ---------------------------------------------------------------------------------
 (1) _Initial_Configurations                               0     0      0       0
 ---------------------------------------------------------------------------------
 (1) _I2C_Master_Initialize                               10     4      6     608
                                              0 BANK0     10     4      6
                            ___lldiv
 ---------------------------------------------------------------------------------
 (2) ___lldiv                                             14     6      8     314
                                              0 COMMON    14     6      8
 ---------------------------------------------------------------------------------
 (1) _I2C_LCD_write_string                                 6     2      4    5940
                                              2 BANK0      6     2      4
                 _I2C_LCD_write_char
                    _LCD_send_commad
 ---------------------------------------------------------------------------------
 (2) _I2C_LCD_write_char                                   5     2      3    1280
                                             11 COMMON     3     0      3
                                              0 BANK0      2     2      0
                    _LCD_data_sender
 ---------------------------------------------------------------------------------
 (1) _I2C_LCD_set_cursor                                   6     2      4    5440
                                              2 BANK0      6     2      4
                    _LCD_send_commad
 ---------------------------------------------------------------------------------
 (1) _I2C_LCD_init                                         6     3      3    8685
                                              9 BANK0      6     3      3
     _I2C_LCD_display_on_off_control
                 _I2C_LCD_entry_mode
                    _LCD_send_commad
 ---------------------------------------------------------------------------------
 (2) _I2C_LCD_entry_mode                                   6     2      4    2800
                                              2 BANK0      6     2      4
                    _LCD_send_commad
 ---------------------------------------------------------------------------------
 (2) _I2C_LCD_display_on_off_control                       7     2      5    2898
                                              2 BANK0      7     2      5
                    _LCD_send_commad
 ---------------------------------------------------------------------------------
 (1) _I2C_LCD_clear                                        4     2      2    2756
                                              2 BANK0      4     2      2
                    _LCD_send_commad
 ---------------------------------------------------------------------------------
 (2) _LCD_send_commad                                      5     2      3    2506
                                             11 COMMON     3     0      3
                                              0 BANK0      2     2      0
                    _LCD_data_sender
 ---------------------------------------------------------------------------------
 (3) _LCD_data_sender                                      7     3      4    1084
                                              4 COMMON     7     3      4
             _I2C_IO_Expander_Writer *
 ---------------------------------------------------------------------------------
 (4) _I2C_IO_Expander_Writer                               2     0      2     410
                                              2 COMMON     2     0      2
                   _I2C_Master_Start
                    _I2C_Master_Stop
                   _I2C_Master_Write
 ---------------------------------------------------------------------------------
 (1) _I2C_EEPROM_Sequential_Read                          12     7      5     792
                                              3 COMMON     7     2      5
                                              0 BANK0      5     5      0
                    _I2C_Master_Read
           _I2C_Master_RepeatedStart
                _I2C_Master_Send_ACK
               _I2C_Master_Send_NACK
                   _I2C_Master_Start
                    _I2C_Master_Stop
                   _I2C_Master_Write
 ---------------------------------------------------------------------------------
 (2) _I2C_Master_Send_NACK                                 0     0      0       0
              _I2C_Master_Check_Idle
 ---------------------------------------------------------------------------------
 (2) _I2C_Master_Send_ACK                                  0     0      0       0
              _I2C_Master_Check_Idle
 ---------------------------------------------------------------------------------
 (2) _I2C_Master_Read                                      3     3      0      24
                                              0 COMMON     3     3      0
              _I2C_Master_Check_Idle
 ---------------------------------------------------------------------------------
 (1) _I2C_EEPROM_Page_Write                               11     6      5     474
                                              2 COMMON    11     6      5
           _I2C_Master_RepeatedStart
                   _I2C_Master_Start
                    _I2C_Master_Stop
                   _I2C_Master_Write
 ---------------------------------------------------------------------------------
 (1) _I2C_EEPROM_Byte_Write                                6     3      3    1090
                                              2 COMMON     6     3      3
           _I2C_Master_RepeatedStart
                   _I2C_Master_Start
                    _I2C_Master_Stop
                   _I2C_Master_Write
 ---------------------------------------------------------------------------------
 (5) _I2C_Master_Write                                     2     2      0      22
                                              0 COMMON     2     2      0
              _I2C_Master_Check_Idle
 ---------------------------------------------------------------------------------
 (5) _I2C_Master_Stop                                      0     0      0       0
              _I2C_Master_Check_Idle
 ---------------------------------------------------------------------------------
 (5) _I2C_Master_Start                                     0     0      0       0
              _I2C_Master_Check_Idle
 ---------------------------------------------------------------------------------
 (2) _I2C_Master_RepeatedStart                             0     0      0       0
              _I2C_Master_Check_Idle
 ---------------------------------------------------------------------------------
 (6) _I2C_Master_Check_Idle                                0     0      0       0
 ---------------------------------------------------------------------------------
 Estimated maximum stack depth 6
 ---------------------------------------------------------------------------------

 Call Graph Graphs:

 _main (ROOT)
   _I2C_EEPROM_Byte_Write
     _I2C_Master_RepeatedStart
       _I2C_Master_Check_Idle
     _I2C_Master_Start
       _I2C_Master_Check_Idle
     _I2C_Master_Stop
       _I2C_Master_Check_Idle
     _I2C_Master_Write
       _I2C_Master_Check_Idle
   _I2C_EEPROM_Page_Write
     _I2C_Master_RepeatedStart
       _I2C_Master_Check_Idle
     _I2C_Master_Start
       _I2C_Master_Check_Idle
     _I2C_Master_Stop
       _I2C_Master_Check_Idle
     _I2C_Master_Write
       _I2C_Master_Check_Idle
   _I2C_EEPROM_Sequential_Read
     _I2C_Master_Read
       _I2C_Master_Check_Idle
     _I2C_Master_RepeatedStart
       _I2C_Master_Check_Idle
     _I2C_Master_Send_ACK
       _I2C_Master_Check_Idle
     _I2C_Master_Send_NACK
       _I2C_Master_Check_Idle
     _I2C_Master_Start
       _I2C_Master_Check_Idle
     _I2C_Master_Stop
       _I2C_Master_Check_Idle
     _I2C_Master_Write
       _I2C_Master_Check_Idle
   _I2C_LCD_clear
     _LCD_send_commad
       _LCD_data_sender
         _I2C_IO_Expander_Writer *
           _I2C_Master_Start
             _I2C_Master_Check_Idle
           _I2C_Master_Stop
             _I2C_Master_Check_Idle
           _I2C_Master_Write
             _I2C_Master_Check_Idle
   _I2C_LCD_init
     _I2C_LCD_display_on_off_control
       _LCD_send_commad
         _LCD_data_sender
           _I2C_IO_Expander_Writer *
             _I2C_Master_Start
               _I2C_Master_Check_Idle
             _I2C_Master_Stop
               _I2C_Master_Check_Idle
             _I2C_Master_Write
               _I2C_Master_Check_Idle
     _I2C_LCD_entry_mode
       _LCD_send_commad
         _LCD_data_sender
           _I2C_IO_Expander_Writer *
             _I2C_Master_Start
               _I2C_Master_Check_Idle
             _I2C_Master_Stop
               _I2C_Master_Check_Idle
             _I2C_Master_Write
               _I2C_Master_Check_Idle
     _LCD_send_commad
       _LCD_data_sender
         _I2C_IO_Expander_Writer *
           _I2C_Master_Start
             _I2C_Master_Check_Idle
           _I2C_Master_Stop
             _I2C_Master_Check_Idle
           _I2C_Master_Write
             _I2C_Master_Check_Idle
   _I2C_LCD_set_cursor
     _LCD_send_commad
       _LCD_data_sender
         _I2C_IO_Expander_Writer *
           _I2C_Master_Start
             _I2C_Master_Check_Idle
           _I2C_Master_Stop
             _I2C_Master_Check_Idle
           _I2C_Master_Write
             _I2C_Master_Check_Idle
   _I2C_LCD_write_string
     _I2C_LCD_write_char
       _LCD_data_sender
         _I2C_IO_Expander_Writer *
           _I2C_Master_Start
             _I2C_Master_Check_Idle
           _I2C_Master_Stop
             _I2C_Master_Check_Idle
           _I2C_Master_Write
             _I2C_Master_Check_Idle
     _LCD_send_commad
       _LCD_data_sender
         _I2C_IO_Expander_Writer *
           _I2C_Master_Start
             _I2C_Master_Check_Idle
           _I2C_Master_Stop
             _I2C_Master_Check_Idle
           _I2C_Master_Write
             _I2C_Master_Check_Idle
   _I2C_Master_Initialize
     ___lldiv
   _Initial_Configurations
   _sprintf
     ___lwdiv
     ___lwmod
       ___lwdiv (ARG)

 Address spaces:
Name               Size   Autos  Total    Cost      Usage
BANK3               60      0       0       9        0.0%
BITBANK3            60      0       0       8        0.0%
SFR3                 0      0       0       4        0.0%
BITSFR3              0      0       0       4        0.0%
BANK2               60      0       0      11        0.0%
BITBANK2            60      0       0      10        0.0%
SFR2                 0      0       0       5        0.0%
BITSFR2              0      0       0       5        0.0%
BANK1               50      0      21       7       41.3%
BITBANK1            50      0       0       6        0.0%
SFR1                 0      0       0       2        0.0%
BITSFR1              0      0       0       2        0.0%
BANK0               50     1D      4A       5       92.5%
BITBANK0            50      0       0       4        0.0%
SFR0                 0      0       0       1        0.0%
BITSFR0              0      0       0       1        0.0%
COMMON               E      E       E       1      100.0%
BITCOMMON            E      0       0       0        0.0%
CODE                 0      0       0       0        0.0%
DATA                 0      0      79      12        0.0%
ABS                  0      0      79       3        0.0%
NULL                 0      0       0       0        0.0%
STACK                0      0       0       2        0.0%
EEDATA             100      0       0       0        0.0%


Microchip Technology PIC Macro Assembler V2.10 build 88905656 
Symbol Table                                                                                   Thu Apr 08 23:30:10 2021

                                       pc 0002                    ?_I2C_Master_Check_Idle 0070  
                             __CFG_CP$OFF 0000                               _SSPSTATbits 0094  
                                      l50 05A9                                        l51 058F  
                                      l63 05CB                                        l55 06B4  
                                      l56 05C7                                        l57 05AD  
                                      l82 0D15            __end_of_Initial_Configurations 0D16  
                                      fsr 0004              __size_of_I2C_Master_Send_ACK 000F  
                                     l111 0D9B                                       l200 0DB2  
                                     l105 013D                                       l121 0DE2  
                                     l130 0E55                                       l204 0E1A  
                                     l108 0D85                                       l118 0FA9  
                                     l127 0E37                                       l136 0285  
                                     l145 0FFF                                       l306 0327  
                                     l244 0DC9                                       l182 0DFD  
                                     l191 0D3F                                       l176 0F55  
                                     l416 040F                                       l185 0D31  
                                     l266 0F06                                       l194 0D4E  
                                     l179 0DE3                                       l188 0D23  
                                     l277 01A2                                       l197 0D5D  
                                     l702 00DC                                       l456 0208  
                                     l692 0EBA               __size_of_I2C_LCD_set_cursor 0056  
                            __CFG_CPD$OFF 0000                                       u900 0DF1  
                                     u901 0DF0                                       u910 0DF5  
                                     u911 0DF4                                       u920 0DF9  
                                     u921 0DF8                                       u930 0DFD  
                                     u931 0DFC                                       u880 0DE9  
                                     u960 0E04                                       u881 0DE8  
                                     u961 0E03                                       u945 010B  
                                     u890 0DED                                       u970 01B3  
                                     u891 0DEC                                       u955 0128  
                                     u971 01B2                                       u990 01C7  
                                     u991 01C6                                       u985 01B8  
                ??_I2C_IO_Expander_Writer 0074                                       fsr0 0004  
                                     indf 0000                              __CFG_FOSC$HS 0000  
     I2C_EEPROM_Page_Write@Length_of_Data 0075             __size_of_I2C_Master_Send_NACK 000F  
                            __CFG_LVP$OFF 0000                              _I2C_LCD_init 0209  
                                    l2000 03F9                                      l2002 040B  
                                    l2010 0410                                      l2100 0690  
                                    l2020 0496                                      l2012 0427  
                                    l2110 0710                                      l2102 069F  
                                    l2030 04B9                                      l2022 04A1  
                                    l2014 0438                                      l2120 075F  
                                    l2112 071F                                      l2104 06AD  
                                    l2040 0521                                      l2032 04C4  
                                    l2016 0454                                      l2130 07B4  
                                    l2122 0772                                      l2114 0730  
                                    l2106 06B5                                      l2050 0583  
                                    l2042 0548                                      l2034 04E3  
                                    l2018 0463                                      l2132 07C3  
                                    l2124 0781                                      l2116 073F  
                                    l2108 0705                                      l2060 05A0  
                                    l2052 0587                                      l2044 0555  
                                    l2036 04F7                                      l2028 04A5  
                                    l2126 0792                                      l2118 0750  
                                    l2070 05CF                                      l2134 07C9  
                                    l2054 058B                                      l2046 0566  
                                    l2038 0516                                      l2128 07A1  
                                    l2080 061A                                      l2072 05D8  
                                    l2064 05B1                                      l2048 0575  
                                    l2090 064C                                      l2082 0629  
                                    l2074 05E7                                      l2066 05BE  
                                    l2058 0593                                      l1700 0E0B  
                                    l2092 065D                                      l2076 05F8  
                                    l1630 0DF5                                      l1622 0DE3  
                                    l1702 0E0E                                      l1710 01B6  
                                    l2254 0355                                      l2094 0668  
                                    l2078 0607                                      l1632 0DF9  
                                    l1624 0DE9                                      l1640 0D37  
                                    l1800 0229                                      l2256 0FF1  
                                    l1720 01F0                                      l1712 01C3  
                                    l2096 0670                                      l2088 062D  
                                    l1626 0DED                                      l1634 0D24  
                                    l1642 0D9D                                      l1810 0DCA  
                                    l1802 0234                                      l1722 01F1  
                                    l1714 01C7                                      l1706 01A3  
                                    l1730 0E77                                      l2098 067D  
                                    l1628 0DF1                                      l1636 0D29  
                                    l1644 0DA2                                      l1900 0EF4  
                                    l1652 0DB3                                      l1660 0D71  
                                    l1812 0DD7                                      l1804 0249  
                                    l1820 0FC9                                      l1724 01FA  
                                    l1716 01D0                                      l1708 01B3  
                                    l1740 0E8D                                      l1732 0E79  
                                    l1638 0D32                                      l1646 0DA6  
                                    l1902 0F01                                      l1654 0DB8  
                                    l1662 0D74                                      l1670 0E2C  
                                    l1806 025E                                      l1822 0FD8  
                                    l1814 0FAA                                      l1718 01E2  
                                    l1726 0200                                      l1750 0EB0  
                                    l1742 0E91                                      l1734 0E7F  
                                    l1648 0DAB                                      l1680 0D40  
                                    l1920 02B9                                      l1912 0292  
                                    l1904 0289                                      l1656 0DBE  
                                    l1672 0E38                                      l1808 0272  
                                    l1816 0FAB                                      l1664 0D86  
                                    l1840 0F92                                      l1832 0F56  
                                    l1744 0EA2                                      l1736 0E82  
                                    l1752 0EB6                                      l1760 00AC  
                                    l1682 0D45                                      l1690 0D57  
                                    l1930 02EB                                      l1922 02BE  
                                    l1914 029F                                      l1906 028E  
                                    l1658 00DD                                      l1674 0E4A  
                                    l1818 0FBA                                      l1826 0FE7  
                                    l1666 0D8A                                      l1834 0F5A  
                                    l1842 0F98                                      l1746 0EA8  
                                    l1738 0E89                                      l1770 00CB  
                                    l1762 00B3                                      l1676 0D16  
                                    l1860 016C                                      l1852 0146  
                                    l1844 013F                                      l1692 0DFE  
                                    l1684 0D48                                      l1940 0308  
                                    l1924 02CE                                      l1932 02F3  
                                    l1916 02AB                                      l1668 0E1B  
                                    l1836 0F6B                                      l1780 0D0E  
                                    l1748 0EA9                                      l1772 00D2  
                                    l1764 00B7                                      l1756 00A3  
                                    l1678 0D1B                                      l1870 0185  
                                    l1862 0172                                      l1854 0151  
                                    l1846 0144                                      l1694 0E04  
                                    l1686 0D4F                                      l1942 030D  
                                    l1926 02E0                                      l1918 02B0  
                                    l1838 0F78                                      l1790 0F26  
                                    l1782 0D12                                      l1766 00BB  
                                    l1758 00A9                                      l1774 00D8  
                                    l1950 0330                                      l1880 0EC1  
                                    l1872 018A                                      l1856 015D  
                                    l1696 0E05                                      l1688 0D54  
                                    l1944 0315                                      l1928 02E6  
                                    l1936 02FE                                      l1792 0F53  
                                    l1784 0F07                                      l1768 00C5  
                                    l1960 0343                                      l1952 0336  
                                    l1874 0190                                      l1858 0160  
                                    l1866 017D                                      l1698 0E06  
                                    l1946 0322                                      l1794 0F54  
                                    l1786 0F1F                                      l1778 0D0C  
                                    l1970 0374                                      l1962 0360  
                                    l1954 033D                                      l1892 0EE1  
                                    l1876 019D                                      l1796 020C  
                                    l1788 0F23                                      l1972 0379  
                                    l1964 0368                                      l1956 0342  
                                    l1948 032B                                      l1886 0EC3  
                                    l1878 0EBC                                      l1798 0219  
                                    l1990 03B2                                      l1982 0397  
                                    l1966 036C                                      l1896 0EE9  
                                    l1888 0ECE                                      l1992 03B7  
                                    l1984 03A1                                      l1968 0370  
                                    l1898 0EEE                                      l1994 03E5  
                                    l1986 03A7                                      l1978 037B  
                                    l1996 03EC                                      l1988 03AE  
                                    l1998 03F0                                      STR_1 0069  
                                    STR_2 0042                                      STR_3 002D  
                                    STR_4 007A                                      STR_5 0087  
                                    STR_6 0057                                      STR_7 0099  
                                    STR_8 007A                                      STR_9 0091  
                                    _LCD1 0047                                      u1010 01E2  
                                    u1011 01E1                                      u1100 0EB6  
                                    u1005 01C9                                      u1101 0EB5  
                                    u1030 0200                                      u1110 00A9  
                                    u1031 01FF                                      u1015 01DE  
                                    u1111 00A8                                      u1200 0F6B  
                                    u1040 0E7F                                      u1201 0F6A  
                                    u1025 01F2                                      u1041 0E7E  
                                    u1210 0FA9                                      u1130 00BB  
                                    u1211 0FA8                                      u1131 00BA  
                                    u1220 0151                                      u1300 02E0  
                                    u1060 0E91                                      u1140 00C5  
                                    u1221 0150                                      u1301 02DF  
                                    u1061 0E90                                      u1141 00C4  
                                    u1125 00AD                                      u1230 017C  
                                    u1310 02FD                                      u1231 017B  
                                    u1311 02FC                                      u1055 0E83  
                                    u1240 0184                                      u1320 0307  
                                    u1080 0EA2                                      u1160 00D8  
                                    u1400 040B                                      u1241 0183  
                                    u1321 0306                                      u1305 02DC  
                                    u1081 0EA1                                      u1161 00D7  
                                    u1145 00C1                                      u1401 040A  
                                    u1250 019D                                      u1330 0322  
                                    u1410 0555                                      u1251 019C  
                                    u1235 0178                                      u1331 0321  
                                    u1315 02F9                                      u1075 0E92  
                                    u1155 00CC                                      u1411 0554  
                                    u1260 0ECE                                      u1340 0336  
                                    u1420 058F                                      u1261 0ECD  
                                    u1085 0E9E                                      u1341 0335  
                                    u1421 058E                                      u1270 0EE8  
                                    u1190 0F36                                      u1350 0370  
                                    u1510 067D                                      u1430 0593  
                                    u1271 0EE7                                      u1255 0199  
                                    u1335 031E                                      u1175 0F0C  
                                    u1095 0EAA                                      u1351 036F  
                                    u1511 067C                                      u1431 0592  
                                    u1415 0551                                      u1280 0F01  
                                    u1360 0396                                      u1440 05A0  
                                    u1281 0F00                                      u1185 0F14  
                                    u1361 0395                                      u1505 0635  
                                    u1441 059F                                      u1290 029F  
                                    u1370 03A1                                      u1450 05AD  
                                    u1291 029E                                      u1195 0F31  
                                    u1371 03A0                                      u1515 0679  
                                    u1451 05AC                                      u1380 03A7  
                                    u1540 07D5                                      u1460 05B1  
                                    u1285 0EFD                                      u1381 03A6  
                                    u1365 0392                                      u1541 07D4  
                                    u1525 06BB                                      u1461 05B0  
                                    u1445 059C                                      u1390 03F9  
                                    u1470 05BE                                      u1391 03F8  
                                    u1535 06DA                                      u1471 05BD  
                                    u1480 05CB                                      u1545 07D1  
                                    u1481 05CA                                      u1617 049C  
                                    u1490 05CF                                      u1707 022F  
                                    u1491 05CE                                      u1475 05BA  
                                    u1627 04BF                                      u1717 0E32  
                                    u1637 04DE                                      u1727 0E50  
                                    u1647 04FD                                      u1737 0DDD  
                                    u1657 051C                                      u1667 053B  
                                    u1677 057D                                      u1687 0663  
                                    u1697 06A7                              __CFG_WRT$OFF 0000  
        __end_of_I2C_Master_RepeatedStart 0D24                                      _main 0410  
                                    btemp 007E                             __CFG_BOREN$ON 0000  
                                    start 0000                      __end_of_Lcd_RW_State 002D  
                    _reader_data_buffer_H 0036                      _reader_data_buffer_L 0025  
     I2C_EEPROM_Page_Write@EEPROM_Address 0072                             _I2C_LCD_clear 0DCA  
                        ?_I2C_Master_Read 0070                          ?_I2C_Master_Stop 0070  
                  ??_I2C_LCD_write_string 004F                                     ?_main 0070  
                                   STR_10 0095                             __CFG_WDTE$OFF 0000  
                         __end_of___lldiv 0209              I2C_Master_Read@Recieved_Data 0072  
                         __end_of___lwdiv 0EBB                           __end_of___lwmod 00DD  
                            main@page_num 0064                                     _PORTB 0006  
                                   _TRISB 0086               __size_of_I2C_LCD_write_char 0016  
             ?_I2C_EEPROM_Sequential_Read 0073                           __end_of_dpowers 002C  
                                   main@i 0062                                     fpbase 0008  
       I2C_IO_Expander_Writer@I2C_Address 0072                                     pclath 000A  
                  ?_I2C_Master_Initialize 0049                                     status 0003  
                       ??_LCD_data_sender 0078                                     wtemp0 007E  
                         __end_of_sprintf 0410                 I2C_LCD_entry_mode@LCD_Obj 004B  
                         __initialization 07D9                              __end_of_main 07D9  
        I2C_EEPROM_Page_Write@Data_Buffer 0074                            ?_I2C_LCD_clear 004B  
                                  ??_main 0058     I2C_LCD_display_on_off_control@LCD_Obj 004B  
          I2C_Master_Write@Master_Tx_Data 0071           __size_of_I2C_IO_Expander_Writer 0017  
                       ?_I2C_Master_Start 0070                         ?_I2C_Master_Write 0070  
                      ??_I2C_Master_Start 0070                        ??_I2C_Master_Write 0070  
             I2C_LCD_init@I2C_LCD_Address 0052                                    _EE_Add 0022  
                                  _SSPADD 0093                                    _SSPCON 0014  
                                  _SSPBUF 0013                          __end_of__fptable 0012  
        ??_I2C_LCD_display_on_off_control 0050           ?_I2C_LCD_display_on_off_control 004B  
                          __CFG_PWRTE$OFF 0000                  _I2C_Master_RepeatedStart 0D16  
                  LCD_data_sender@LCD_Obj 0074        I2C_Master_Initialize@I2C_CKE_OnOff 004E  
                               ??___lldiv 0078                                 ??___lwdiv 0074  
                               ??___lwmod 007C                             main@spage_num 005D  
                                  fptable 0003                                    fptotal 0008  
                __size_of_LCD_send_commad 0015                        fp__LCD_send_commad 000F  
                               ??_sprintf 004C                   __end_of__initialization 07FC  
                     _I2C_Master_Send_ACK 0D40                     entry__LCD_send_commad 000F  
                  _I2C_IO_Expander_Writer 0DB3                   ??_I2C_Master_Check_Idle 0070  
                         ??_I2C_LCD_clear 004D                            __pcstackCOMMON 0070  
                            __pidataBANK0 009F                              __pidataBANK1 0E56  
                    ?_I2C_Master_Send_ACK 0070        I2C_Master_Initialize@I2C_SMP_OnOff 004D  
              __end_of_I2C_LCD_entry_mode 0E38                              _Lcd_RS_State 0024  
                            _Lcd_RW_State 002C                     _I2C_EEPROM_Page_Write 013E  
                              __pbssBANK0 0020                     _I2C_EEPROM_Byte_Write 0EBB  
   I2C_EEPROM_Sequential_Read@I2C_Address 0049                                __pmaintext 0410  
            __end_of_I2C_Master_Send_NACK 0D5E           I2C_LCD_display_on_off_control@B 004F  
         I2C_LCD_display_on_off_control@C 004E           I2C_LCD_display_on_off_control@D 004D  
              __end_of_I2C_LCD_set_cursor 1000                     ??_I2C_Master_Send_ACK 0070  
                      _writer_data_buffer 00A0         I2C_Master_Initialize@I2C_BaudRate 0049  
                         _LCD_data_sender 00DD                     I2C_LCD_set_cursor@row 004D  
                 ??_I2C_Master_Initialize 004F                                   _SSPCON2 0091  
                                 _SSPSTAT 0094                                __stringtab 0012  
                       ??_LCD_send_commad 0049                                   ___lldiv 01A3  
                                 ___lwdiv 0E77                                   ___lwmod 00A3  
                                 __ptext1 0328                                   __ptext2 00A3  
                                 __ptext3 0E77                                   __ptext4 0D0C  
                                 __ptext5 0F07                                   __ptext6 01A3  
                                 __ptext7 0F56                                   __ptext8 0D86  
                                 __ptext9 0FAA                                   _counter 0020  
           __size_of_I2C_LCD_write_string 0054                                   _dpowers 0022  
              __end_of_I2C_LCD_write_char 0D9C                             I2C_LCD_init@F 0054  
                           I2C_LCD_init@N 0053                  __size_of_I2C_Master_Read 001D  
                  ?_I2C_EEPROM_Page_Write 0072                  __size_of_I2C_Master_Stop 000E  
                                 _sprintf 0328                                   clrloop0 0D05  
                    end_of_initialization 07FC                    ?_I2C_EEPROM_Byte_Write 0072  
              ??_I2C_Master_RepeatedStart 0070                 __size_of_I2C_Master_Start 000E  
               __size_of_I2C_Master_Write 0017                 I2C_LCD_set_cursor@LCD_Obj 004B  
                         ___lldiv@divisor 0070                           ___lldiv@counter 007D  
                ??_Initial_Configurations 0070                 fp__I2C_IO_Expander_Writer 0009  
                    I2C_LCD_clear@LCD_Obj 004B  I2C_EEPROM_Sequential_Read@Length_of_Data 0076  
                 __end_of_LCD_data_sender 013E                                 _PORTBbits 0006  
                               _TRISCbits 0087                      _I2C_Master_Send_NACK 0D4F  
                  I2C_EEPROM_Page_Write@c 007B                    I2C_EEPROM_Page_Write@i 0079  
                 ?_I2C_IO_Expander_Writer 0072  I2C_EEPROM_Sequential_Read@EEPROM_Address 0073  
             I2C_LCD_write_string@LCD_Obj 004B                    LCD_send_commad@LCD_Obj 007B  
          __size_of_I2C_Master_Check_Idle 001B             __end_of_I2C_Master_Check_Idle 0DFE  
                       _p_LCD_data_sender 0067                    I2C_EEPROM_Byte_Write@c 0076  
                     start_initialization 07D9                     ?_I2C_Master_Send_NACK 0070  
                           ?_I2C_LCD_init 0052            __end_of_I2C_IO_Expander_Writer 0DCA  
                        main@old_page_num 005B                        _I2C_LCD_entry_mode 0E1B  
                       ??_I2C_Master_Read 0070                         ??_I2C_Master_Stop 0070  
                     ?_I2C_LCD_entry_mode 004B          I2C_EEPROM_Page_Write@I2C_Address 0078  
         __size_of_Initial_Configurations 000A                                init_fetch0 0D5E  
                   __end_of_I2C_LCD_clear 0DE3                               __pdataBANK0 0066  
                             __pdataBANK1 00A0                          ?_LCD_data_sender 0074  
                     I2C_LCD_entry_mode@S 004E                           _LCD_send_commad 0D71  
                               ___latbits 0002                      ??_I2C_LCD_entry_mode 004F  
                           __pcstackBANK0 0049                            ??_I2C_LCD_init 0055  
                       __size_of__fptable 000F                        _I2C_LCD_set_cursor 0FAA  
            ??_I2C_EEPROM_Sequential_Read 0078            __size_of_I2C_Master_Initialize 004F  
           __end_of_I2C_Master_Initialize 0F56                     I2C_LCD_write_char@chr 007D  
                             sprintf@flag 0050                               sprintf@prec 0051  
                     ?_I2C_LCD_set_cursor 004B                          _I2C_Master_Start 0D24  
                        _I2C_Master_Write 0D9C                        LCD_send_commad@cmd 007D  
                        ___lwdiv@dividend 0072               __end_of_I2C_Master_Send_ACK 0D4F  
                               __pfunctab 0003                                  ?___lldiv 0070  
                                ?___lwdiv 0070                                  ?___lwmod 0078  
                               __pstrings 0012                      ??_I2C_LCD_set_cursor 004F  
     __size_of_I2C_EEPROM_Sequential_Read 00A2                   ??_I2C_EEPROM_Page_Write 0077  
          I2C_IO_Expander_Writer@I2C_Data 0073                    ??_I2C_Master_Send_NACK 0070  
                  _Initial_Configurations 0D0C                   ??_I2C_EEPROM_Byte_Write 0075  
                        ___lwdiv@quotient 0075                     I2C_LCD_write_string@i 0050  
                                ?_sprintf 0049                        _I2C_LCD_write_char 0D86  
            __end_of_I2C_LCD_write_string 0FAA                                 clear_ram0 0D04  
                                _PIE1bits 008C                                  _PIR1bits 000C  
                     ?_I2C_LCD_write_char 007B          LCD_data_sender@callback_function 0077  
                 __end_of_LCD_send_commad 0D86                               __stringbase 0021  
                               main@i_151 0060       I2C_EEPROM_Byte_Write@EEPROM_Address 0072  
                    ??_I2C_LCD_write_char 0049                  I2C_LCD_entry_mode@I_or_D 004D  
                       _p_LCD_send_commad 0066                      __end_of_I2C_LCD_init 0286  
       __size_of_I2C_Master_RepeatedStart 000E                 ?_I2C_Master_RepeatedStart 0070  
                        __size_of___lldiv 0066                          __size_of___lwdiv 0044  
                        __size_of___lwmod 003A                  _p_I2C_IO_Expander_Writer 0068  
                      __end_of__stringtab 0022                                sprintf@val 0052  
                                __fptable 0003                   I2C_LCD_write_string@str 004D  
                         _I2C_Master_Read 0DFE                           _I2C_Master_Stop 0D32  
                         ___lwdiv@divisor 0070        __end_of_I2C_EEPROM_Sequential_Read 0328  
              _I2C_EEPROM_Sequential_Read 0286                           ___lwdiv@counter 0077  
                                __ptext10 0209                                  __ptext11 0E1B  
                                __ptext20 0DFE                                  __ptext12 0E38  
                                __ptext21 013E                                  __ptext13 0DCA  
                                __ptext22 0EBB                                  __ptext14 0D71  
                                __ptext23 0D9C                                  __ptext15 00DD  
                                __ptext24 0D32                                  __ptext16 0DB3  
                                __ptext25 0D24                                  __ptext17 0286  
                                __ptext26 0D16                                  __ptext18 0D4F  
                                __ptext27 0DE3                                  __ptext19 0D40  
                        __size_of_sprintf 00E8                           _BackLight_State 0069  
                           __size_of_main 03C9     I2C_EEPROM_Sequential_Read@Data_Buffer 0075  
                        ?_LCD_send_commad 007B                     _I2C_Master_Check_Idle 0DE3  
                    _I2C_LCD_write_string 0F56                  __end_of_I2C_Master_Start 0D32  
  __end_of_I2C_LCD_display_on_off_control 0E56   __size_of_I2C_LCD_display_on_off_control 001E  
          _I2C_LCD_display_on_off_control 0E38                  __end_of_I2C_Master_Write 0DB3  
                              _INTCONbits 000B                                  init_ram0 0D62  
                 I2C_LCD_init@LCD_Obj_Add 0057                       LCD_data_sender@data 0076  
               I2C_LCD_write_char@LCD_Obj 007B                                 sprintf@ap 004F  
                               sprintf@sp 0054                          ___lwmod@dividend 007A  
                        ___lldiv@dividend 0074                                 stringcode 001C  
        I2C_EEPROM_Byte_Write@I2C_Address 0075                   __end_of_I2C_Master_Read 0E1B  
                 __end_of_I2C_Master_Stop 0D40                   ?_Initial_Configurations 0070  
                   ?_I2C_LCD_write_string 004B                                  sprintf@c 0055  
                                sprintf@f 0049                          ___lldiv@quotient 0079  
                         ___lwmod@divisor 0078            __size_of_I2C_EEPROM_Page_Write 0065  
                         ___lwmod@counter 007D                 I2C_EEPROM_Byte_Write@Data 0074  
           __end_of_I2C_EEPROM_Page_Write 01A3                                  stringdir 001C  
                                stringtab 0012                  I2C_LCD_set_cursor@colomn 004E  
             __size_of_I2C_LCD_entry_mode 001D                  __size_of_LCD_data_sender 0061  
                             _SSPCON2bits 0091                        fp__LCD_data_sender 000C  
          __size_of_I2C_EEPROM_Byte_Write 004C             __end_of_I2C_EEPROM_Byte_Write 0F07  
                  __size_of_I2C_LCD_clear 0019               I2C_EEPROM_Sequential_Read@c 004A  
             I2C_EEPROM_Sequential_Read@i 004C                     _I2C_Master_Initialize 0F07  
                   __size_of_I2C_LCD_init 007D                                _SSPCONbits 0014  
                   entry__LCD_data_sender 000C  
