

Microchip MPLAB XC8 Assembler V2.10 build 88905656 
                                                                                               Thu Apr 08 23:18:53 2021

Microchip MPLAB XC8 C Compiler v2.10 (Free license) build 20190730164152 Og1 
     1                           	processor	16F877A
     2                           	opt	pw 120
     3                           	opt	flic
     4                           	psect	idataBANK0,global,class=CODE,delta=2
     5                           	psect	strings,global,class=STRING,delta=2
     6                           	psect	cinit,global,class=CODE,merge=1,delta=2
     7                           	psect	bssBANK0,global,class=BANK0,space=1,delta=1
     8                           	psect	dataBANK0,global,class=BANK0,space=1,delta=1
     9                           	psect	cstackCOMMON,global,class=COMMON,space=1,delta=1
    10                           	psect	cstackBANK0,global,class=BANK0,space=1,delta=1
    11                           	psect	maintext,global,class=CODE,split=1,delta=2
    12                           	psect	text1,local,class=CODE,merge=1,delta=2
    13                           	psect	text2,local,class=CODE,merge=1,delta=2
    14                           	psect	text3,local,class=CODE,merge=1,delta=2,group=1
    15                           	psect	text4,local,class=CODE,merge=1,delta=2
    16                           	psect	text5,local,class=CODE,merge=1,delta=2
    17                           	psect	text6,local,class=CODE,merge=1,delta=2
    18                           	psect	text7,local,class=CODE,merge=1,delta=2
    19                           	psect	text8,local,class=CODE,merge=1,delta=2
    20                           	psect	text9,local,class=CODE,merge=1,delta=2
    21                           	psect	text10,local,class=CODE,merge=1,delta=2
    22                           	psect	text11,local,class=CODE,merge=1,delta=2
    23                           	psect	text12,local,class=CODE,merge=1,delta=2
    24                           	psect	text13,local,class=CODE,merge=1,delta=2
    25                           	psect	text14,local,class=CODE,merge=1,delta=2
    26                           	psect	text15,local,class=CODE,merge=1,delta=2
    27                           	psect	text16,local,class=CODE,merge=1,delta=2
    28                           	psect	text17,local,class=CODE,merge=1,delta=2
    29                           	psect	text18,local,class=CODE,merge=1,inline,delta=2
    30                           	psect	text19,local,class=CODE,merge=1,delta=2
    31                           	psect	functab,global,class=ENTRY,delta=2
    32                           	dabs	1,0x7E,2
    33  0000                     
    34                           ; Version 2.10
    35                           ; Generated 31/07/2019 GMT
    36                           ; 
    37                           ; Copyright © 2019, Microchip Technology Inc. and its subsidiaries ("Microchip")
    38                           ; All rights reserved.
    39                           ; 
    40                           ; This software is developed by Microchip Technology Inc. and its subsidiaries ("Microch
      +                          ip").
    41                           ; 
    42                           ; Redistribution and use in source and binary forms, with or without modification, are
    43                           ; permitted provided that the following conditions are met:
    44                           ; 
    45                           ;     1. Redistributions of source code must retain the above copyright notice, this lis
      +                          t of
    46                           ;        conditions and the following disclaimer.
    47                           ; 
    48                           ;     2. Redistributions in binary form must reproduce the above copyright notice, this 
      +                          list
    49                           ;        of conditions and the following disclaimer in the documentation and/or other
    50                           ;        materials provided with the distribution.
    51                           ; 
    52                           ;     3. Microchip's name may not be used to endorse or promote products derived from th
      +                          is
    53                           ;        software without specific prior written permission.
    54                           ; 
    55                           ; THIS SOFTWARE IS PROVIDED BY MICROCHIP "AS IS" AND ANY EXPRESS OR IMPLIED WARRANTIES,
    56                           ; INCLUDING, BUT NOT LIMITED TO, THE IMPLIED WARRANTIES OF MERCHANTABILITY AND FITNESS F
      +                          OR
    57                           ; PURPOSE ARE DISCLAIMED.  IN NO EVENT SHALL MICROCHIP BE LIABLE FOR ANY DIRECT, INDIREC
      +                          T,
    58                           ; INCIDENTAL, SPECIAL, EXEMPLARY, OR CONSEQUENTIAL DAMAGES (INCLUDING BUT NOT LIMITED TO
    59                           ; PROCUREMENT OF SUBSTITUTE GOODS OR SERVICES; LOSS OF USE, DATA OR PROFITS; OR BUSINESS
    60                           ; INTERRUPTION) HOWSOEVER CAUSED AND ON ANY THEORY OF LIABILITY, WHETHER IN CONTRACT, ST
      +                          RICT
    61                           ; LIABILITY, OR TORT (INCLUDING NEGLIGENCE OR OTHERWISE) ARISING IN ANY WAY OUT OF THE U
      +                          SE OF
    62                           ; THIS SOFTWARE, EVEN IF ADVISED OF THE POSSIBILITY OF SUCH DAMAGE.
    63                           ; 
    64                           ; 
    65                           ; Code-generator required, PIC16F877A Definitions
    66                           ; 
    67                           ; SFR Addresses
    68  0000                     	;# 
    69  0001                     	;# 
    70  0002                     	;# 
    71  0003                     	;# 
    72  0004                     	;# 
    73  0005                     	;# 
    74  0006                     	;# 
    75  0007                     	;# 
    76  0008                     	;# 
    77  0009                     	;# 
    78  000A                     	;# 
    79  000B                     	;# 
    80  000C                     	;# 
    81  000D                     	;# 
    82  000E                     	;# 
    83  000E                     	;# 
    84  000F                     	;# 
    85  0010                     	;# 
    86  0011                     	;# 
    87  0012                     	;# 
    88  0013                     	;# 
    89  0014                     	;# 
    90  0015                     	;# 
    91  0015                     	;# 
    92  0016                     	;# 
    93  0017                     	;# 
    94  0018                     	;# 
    95  0019                     	;# 
    96  001A                     	;# 
    97  001B                     	;# 
    98  001B                     	;# 
    99  001C                     	;# 
   100  001D                     	;# 
   101  001E                     	;# 
   102  001F                     	;# 
   103  0081                     	;# 
   104  0085                     	;# 
   105  0086                     	;# 
   106  0087                     	;# 
   107  0088                     	;# 
   108  0089                     	;# 
   109  008C                     	;# 
   110  008D                     	;# 
   111  008E                     	;# 
   112  0091                     	;# 
   113  0092                     	;# 
   114  0093                     	;# 
   115  0094                     	;# 
   116  0098                     	;# 
   117  0099                     	;# 
   118  009C                     	;# 
   119  009D                     	;# 
   120  009E                     	;# 
   121  009F                     	;# 
   122  010C                     	;# 
   123  010D                     	;# 
   124  010E                     	;# 
   125  010F                     	;# 
   126  018C                     	;# 
   127  018D                     	;# 
   128  0000                     	;# 
   129  0001                     	;# 
   130  0002                     	;# 
   131  0003                     	;# 
   132  0004                     	;# 
   133  0005                     	;# 
   134  0006                     	;# 
   135  0007                     	;# 
   136  0008                     	;# 
   137  0009                     	;# 
   138  000A                     	;# 
   139  000B                     	;# 
   140  000C                     	;# 
   141  000D                     	;# 
   142  000E                     	;# 
   143  000E                     	;# 
   144  000F                     	;# 
   145  0010                     	;# 
   146  0011                     	;# 
   147  0012                     	;# 
   148  0013                     	;# 
   149  0014                     	;# 
   150  0015                     	;# 
   151  0015                     	;# 
   152  0016                     	;# 
   153  0017                     	;# 
   154  0018                     	;# 
   155  0019                     	;# 
   156  001A                     	;# 
   157  001B                     	;# 
   158  001B                     	;# 
   159  001C                     	;# 
   160  001D                     	;# 
   161  001E                     	;# 
   162  001F                     	;# 
   163  0081                     	;# 
   164  0085                     	;# 
   165  0086                     	;# 
   166  0087                     	;# 
   167  0088                     	;# 
   168  0089                     	;# 
   169  008C                     	;# 
   170  008D                     	;# 
   171  008E                     	;# 
   172  0091                     	;# 
   173  0092                     	;# 
   174  0093                     	;# 
   175  0094                     	;# 
   176  0098                     	;# 
   177  0099                     	;# 
   178  009C                     	;# 
   179  009D                     	;# 
   180  009E                     	;# 
   181  009F                     	;# 
   182  010C                     	;# 
   183  010D                     	;# 
   184  010E                     	;# 
   185  010F                     	;# 
   186  018C                     	;# 
   187  018D                     	;# 
   188  0000                     	;# 
   189  0001                     	;# 
   190  0002                     	;# 
   191  0003                     	;# 
   192  0004                     	;# 
   193  0005                     	;# 
   194  0006                     	;# 
   195  0007                     	;# 
   196  0008                     	;# 
   197  0009                     	;# 
   198  000A                     	;# 
   199  000B                     	;# 
   200  000C                     	;# 
   201  000D                     	;# 
   202  000E                     	;# 
   203  000E                     	;# 
   204  000F                     	;# 
   205  0010                     	;# 
   206  0011                     	;# 
   207  0012                     	;# 
   208  0013                     	;# 
   209  0014                     	;# 
   210  0015                     	;# 
   211  0015                     	;# 
   212  0016                     	;# 
   213  0017                     	;# 
   214  0018                     	;# 
   215  0019                     	;# 
   216  001A                     	;# 
   217  001B                     	;# 
   218  001B                     	;# 
   219  001C                     	;# 
   220  001D                     	;# 
   221  001E                     	;# 
   222  001F                     	;# 
   223  0081                     	;# 
   224  0085                     	;# 
   225  0086                     	;# 
   226  0087                     	;# 
   227  0088                     	;# 
   228  0089                     	;# 
   229  008C                     	;# 
   230  008D                     	;# 
   231  008E                     	;# 
   232  0091                     	;# 
   233  0092                     	;# 
   234  0093                     	;# 
   235  0094                     	;# 
   236  0098                     	;# 
   237  0099                     	;# 
   238  009C                     	;# 
   239  009D                     	;# 
   240  009E                     	;# 
   241  009F                     	;# 
   242  010C                     	;# 
   243  010D                     	;# 
   244  010E                     	;# 
   245  010F                     	;# 
   246  018C                     	;# 
   247  018D                     	;# 
   248  0000                     	;# 
   249  0001                     	;# 
   250  0002                     	;# 
   251  0003                     	;# 
   252  0004                     	;# 
   253  0005                     	;# 
   254  0006                     	;# 
   255  0007                     	;# 
   256  0008                     	;# 
   257  0009                     	;# 
   258  000A                     	;# 
   259  000B                     	;# 
   260  000C                     	;# 
   261  000D                     	;# 
   262  000E                     	;# 
   263  000E                     	;# 
   264  000F                     	;# 
   265  0010                     	;# 
   266  0011                     	;# 
   267  0012                     	;# 
   268  0013                     	;# 
   269  0014                     	;# 
   270  0015                     	;# 
   271  0015                     	;# 
   272  0016                     	;# 
   273  0017                     	;# 
   274  0018                     	;# 
   275  0019                     	;# 
   276  001A                     	;# 
   277  001B                     	;# 
   278  001B                     	;# 
   279  001C                     	;# 
   280  001D                     	;# 
   281  001E                     	;# 
   282  001F                     	;# 
   283  0081                     	;# 
   284  0085                     	;# 
   285  0086                     	;# 
   286  0087                     	;# 
   287  0088                     	;# 
   288  0089                     	;# 
   289  008C                     	;# 
   290  008D                     	;# 
   291  008E                     	;# 
   292  0091                     	;# 
   293  0092                     	;# 
   294  0093                     	;# 
   295  0094                     	;# 
   296  0098                     	;# 
   297  0099                     	;# 
   298  009C                     	;# 
   299  009D                     	;# 
   300  009E                     	;# 
   301  009F                     	;# 
   302  010C                     	;# 
   303  010D                     	;# 
   304  010E                     	;# 
   305  010F                     	;# 
   306  018C                     	;# 
   307  018D                     	;# 
   308  0000                     	;# 
   309  0001                     	;# 
   310  0002                     	;# 
   311  0003                     	;# 
   312  0004                     	;# 
   313  0005                     	;# 
   314  0006                     	;# 
   315  0007                     	;# 
   316  0008                     	;# 
   317  0009                     	;# 
   318  000A                     	;# 
   319  000B                     	;# 
   320  000C                     	;# 
   321  000D                     	;# 
   322  000E                     	;# 
   323  000E                     	;# 
   324  000F                     	;# 
   325  0010                     	;# 
   326  0011                     	;# 
   327  0012                     	;# 
   328  0013                     	;# 
   329  0014                     	;# 
   330  0015                     	;# 
   331  0015                     	;# 
   332  0016                     	;# 
   333  0017                     	;# 
   334  0018                     	;# 
   335  0019                     	;# 
   336  001A                     	;# 
   337  001B                     	;# 
   338  001B                     	;# 
   339  001C                     	;# 
   340  001D                     	;# 
   341  001E                     	;# 
   342  001F                     	;# 
   343  0081                     	;# 
   344  0085                     	;# 
   345  0086                     	;# 
   346  0087                     	;# 
   347  0088                     	;# 
   348  0089                     	;# 
   349  008C                     	;# 
   350  008D                     	;# 
   351  008E                     	;# 
   352  0091                     	;# 
   353  0092                     	;# 
   354  0093                     	;# 
   355  0094                     	;# 
   356  0098                     	;# 
   357  0099                     	;# 
   358  009C                     	;# 
   359  009D                     	;# 
   360  009E                     	;# 
   361  009F                     	;# 
   362  010C                     	;# 
   363  010D                     	;# 
   364  010E                     	;# 
   365  010F                     	;# 
   366  018C                     	;# 
   367  018D                     	;# 
   368  0000                     	;# 
   369  0001                     	;# 
   370  0002                     	;# 
   371  0003                     	;# 
   372  0004                     	;# 
   373  0005                     	;# 
   374  0006                     	;# 
   375  0007                     	;# 
   376  0008                     	;# 
   377  0009                     	;# 
   378  000A                     	;# 
   379  000B                     	;# 
   380  000C                     	;# 
   381  000D                     	;# 
   382  000E                     	;# 
   383  000E                     	;# 
   384  000F                     	;# 
   385  0010                     	;# 
   386  0011                     	;# 
   387  0012                     	;# 
   388  0013                     	;# 
   389  0014                     	;# 
   390  0015                     	;# 
   391  0015                     	;# 
   392  0016                     	;# 
   393  0017                     	;# 
   394  0018                     	;# 
   395  0019                     	;# 
   396  001A                     	;# 
   397  001B                     	;# 
   398  001B                     	;# 
   399  001C                     	;# 
   400  001D                     	;# 
   401  001E                     	;# 
   402  001F                     	;# 
   403  0081                     	;# 
   404  0085                     	;# 
   405  0086                     	;# 
   406  0087                     	;# 
   407  0088                     	;# 
   408  0089                     	;# 
   409  008C                     	;# 
   410  008D                     	;# 
   411  008E                     	;# 
   412  0091                     	;# 
   413  0092                     	;# 
   414  0093                     	;# 
   415  0094                     	;# 
   416  0098                     	;# 
   417  0099                     	;# 
   418  009C                     	;# 
   419  009D                     	;# 
   420  009E                     	;# 
   421  009F                     	;# 
   422  010C                     	;# 
   423  010D                     	;# 
   424  010E                     	;# 
   425  010F                     	;# 
   426  018C                     	;# 
   427  018D                     	;# 
   428                           
   429                           	psect	idataBANK0
   430  027A                     __pidataBANK0:	
   431                           
   432                           ;initializer for _p_LCD_send_commad
   433  027A  3407               	retlw	low (fp__LCD_send_commad-fpbase)
   434                           
   435                           ;initializer for _p_LCD_data_sender
   436  027B  3404               	retlw	low (fp__LCD_data_sender-fpbase)
   437                           
   438                           ;initializer for _BackLight_State
   439  027C  3408               	retlw	8
   440                           
   441                           ;initializer for _p_I2C_IO_Expander_Writer
   442  027D  3401               	retlw	low (fp__I2C_IO_Expander_Writer-fpbase)
   443                           
   444                           	psect	strings
   445  0012                     __pstrings:	
   446  0012                     stringtab:	
   447  0012                     __stringtab:	
   448  0012                     stringcode:	
   449                           ;	String table - string pointers are 1 byte each
   450                           
   451  0012                     stringdir:	
   452  0012  3000               	movlw	high stringdir
   453  0013  008A               	movwf	10
   454  0014  0804               	movf	4,w
   455  0015  0A84               	incf	4,f
   456  0016  0782               	addwf	2,f
   457  0017                     __stringbase:	
   458  0017  3400               	retlw	0
   459  0018                     __end_of__stringtab:	
   460  0018                     _Lcd_RW_State:	
   461  0018  3400               	retlw	0
   462  0019                     __end_of_Lcd_RW_State:	
   463  0008                     _PORTD	set	8
   464  0006                     _PORTB	set	6
   465  0005                     _PORTA	set	5
   466  000B                     _INTCONbits	set	11
   467  000C                     _PIR1bits	set	12
   468  0014                     _SSPCONbits	set	20
   469  0013                     _SSPBUF	set	19
   470  0014                     _SSPCON	set	20
   471  0088                     _TRISD	set	136
   472  0086                     _TRISB	set	134
   473  0085                     _TRISA	set	133
   474  008C                     _PIE1bits	set	140
   475  0091                     _SSPCON2bits	set	145
   476  0094                     _SSPSTATbits	set	148
   477  0087                     _TRISCbits	set	135
   478  0093                     _SSPADD	set	147
   479  0091                     _SSPCON2	set	145
   480  0094                     _SSPSTAT	set	148
   481  0019                     STR_3:	
   482  0019  3448               	retlw	72	;'H'
   483  001A  3445               	retlw	69	;'E'
   484  001B  344C               	retlw	76	;'L'
   485  001C  344C               	retlw	76	;'L'
   486  001D  344F               	retlw	79	;'O'
   487  001E  3420               	retlw	32	;' '
   488  001F  3457               	retlw	87	;'W'
   489  0020  344F               	retlw	79	;'O'
   490  0021  3452               	retlw	82	;'R'
   491  0022  3444               	retlw	68	;'D'
   492  0023  3400               	retlw	0
   493  0024                     STR_4:	
   494  0024  3420               	retlw	32	;' '
   495  0025  3445               	retlw	69	;'E'
   496  0026  344D               	retlw	77	;'M'
   497  0027  3452               	retlw	82	;'R'
   498  0028  3445               	retlw	69	;'E'
   499  0029  3400               	retlw	0
   500  002A                     STR_5:	
   501  002A  3445               	retlw	69	;'E'
   502  002B  3452               	retlw	82	;'R'
   503  002C  3447               	retlw	71	;'G'
   504  002D  3455               	retlw	85	;'U'
   505  002E  344C               	retlw	76	;'L'
   506  002F  3400               	retlw	0
   507  0030                     STR_1:	
   508  0030  344C               	retlw	76	;'L'
   509  0031  3443               	retlw	67	;'C'
   510  0032  3444               	retlw	68	;'D'
   511  0033  3431               	retlw	49	;'1'
   512  0034  3400               	retlw	0
   513  0035                     STR_2:	
   514  0035  344C               	retlw	76	;'L'
   515  0036  3443               	retlw	67	;'C'
   516  0037  3444               	retlw	68	;'D'
   517  0038  3432               	retlw	50	;'2'
   518  0039  3400               	retlw	0
   519                           
   520                           ; #config settings
   521  0000                     
   522                           	psect	cinit
   523  07DF                     start_initialization:	
   524  07DF                     __initialization:	
   525                           
   526                           ; Initialize objects allocated to BANK0
   527  07DF  120A  118A  227A  120A  118A  	fcall	__pidataBANK0	;fetch initializer
   528  07E4  00BA               	movwf	__pdataBANK0& (0+127)
   529  07E5  120A  118A  227B  120A  118A  	fcall	__pidataBANK0+1	;fetch initializer
   530  07EA  00BB               	movwf	(__pdataBANK0+1)& (0+127)
   531  07EB  120A  118A  227C  120A  118A  	fcall	__pidataBANK0+2	;fetch initializer
   532  07F0  00BC               	movwf	(__pdataBANK0+2)& (0+127)
   533  07F1  120A  118A  227D  120A  118A  	fcall	__pidataBANK0+3	;fetch initializer
   534  07F6  00BD               	movwf	(__pdataBANK0+3)& (0+127)
   535                           
   536                           ; Clear objects allocated to BANK0
   537  07F7  01B5               	clrf	__pbssBANK0& (0+127)
   538  07F8  01B6               	clrf	(__pbssBANK0+1)& (0+127)
   539  07F9  01B7               	clrf	(__pbssBANK0+2)& (0+127)
   540  07FA  01B8               	clrf	(__pbssBANK0+3)& (0+127)
   541  07FB  01B9               	clrf	(__pbssBANK0+4)& (0+127)
   542  07FC                     end_of_initialization:	
   543                           ;End of C runtime variable initialization code
   544                           
   545  07FC                     __end_of__initialization:	
   546  07FC  0183               	clrf	3
   547  07FD  120A  118A  2DBF   	ljmp	_main	;jump to C main() function
   548                           
   549                           	psect	bssBANK0
   550  0035                     __pbssBANK0:	
   551  0035                     _Lcd_RS_State:	
   552  0035                     	ds	1
   553  0036                     _LCD2:	
   554  0036                     	ds	2
   555  0038                     _LCD1:	
   556  0038                     	ds	2
   557                           
   558                           	psect	dataBANK0
   559  003A                     __pdataBANK0:	
   560  003A                     _p_LCD_send_commad:	
   561  003A                     	ds	1
   562  003B                     _p_LCD_data_sender:	
   563  003B                     	ds	1
   564  003C                     _BackLight_State:	
   565  003C                     	ds	1
   566  003D                     _p_I2C_IO_Expander_Writer:	
   567  003D                     	ds	1
   568                           
   569                           	psect	cstackCOMMON
   570  0070                     __pcstackCOMMON:	
   571  0070                     ?_I2C_Master_Check_Idle:	
   572  0070                     ??_I2C_Master_Check_Idle:	
   573                           ; 1 bytes @ 0x0
   574                           
   575  0070                     ?_I2C_Master_Start:	
   576                           ; 1 bytes @ 0x0
   577                           
   578  0070                     ??_I2C_Master_Start:	
   579                           ; 1 bytes @ 0x0
   580                           
   581  0070                     ?_I2C_Master_Stop:	
   582                           ; 1 bytes @ 0x0
   583                           
   584  0070                     ??_I2C_Master_Stop:	
   585                           ; 1 bytes @ 0x0
   586                           
   587  0070                     ?_I2C_Master_Write:	
   588                           ; 1 bytes @ 0x0
   589                           
   590  0070                     ??_I2C_Master_Write:	
   591                           ; 1 bytes @ 0x0
   592                           
   593  0070                     ?_Initial_Configurations:	
   594                           ; 1 bytes @ 0x0
   595                           
   596  0070                     ??_Initial_Configurations:	
   597                           ; 1 bytes @ 0x0
   598                           
   599  0070                     ?_I2C_LCD_BackLight_OFF:	
   600                           ; 1 bytes @ 0x0
   601                           
   602  0070                     ??_I2C_LCD_BackLight_OFF:	
   603                           ; 1 bytes @ 0x0
   604                           
   605  0070                     ?_main:	
   606                           ; 1 bytes @ 0x0
   607                           
   608  0070                     ?___lldiv:	
   609                           ; 1 bytes @ 0x0
   610                           
   611  0070                     I2C_Master_Write@Master_Tx_Data:	
   612                           ; 4 bytes @ 0x0
   613                           
   614  0070                     I2C_LCD_BackLight_OFF@LCD_Obj_Add:	
   615                           ; 1 bytes @ 0x0
   616                           
   617  0070                     ___lldiv@divisor:	
   618                           ; 1 bytes @ 0x0
   619                           
   620                           
   621                           ; 4 bytes @ 0x0
   622  0070                     	ds	1
   623  0071                     ?_I2C_IO_Expander_Writer:	
   624  0071                     I2C_IO_Expander_Writer@I2C_Address:	
   625                           ; 1 bytes @ 0x1
   626                           
   627                           
   628                           ; 1 bytes @ 0x1
   629  0071                     	ds	1
   630  0072                     I2C_IO_Expander_Writer@I2C_Data:	
   631                           
   632                           ; 1 bytes @ 0x2
   633  0072                     	ds	1
   634  0073                     ??_I2C_IO_Expander_Writer:	
   635  0073                     ?_LCD_data_sender:	
   636                           ; 1 bytes @ 0x3
   637                           
   638  0073                     LCD_data_sender@LCD_Obj:	
   639                           ; 1 bytes @ 0x3
   640                           
   641                           
   642                           ; 2 bytes @ 0x3
   643  0073                     	ds	1
   644  0074                     ___lldiv@dividend:	
   645                           
   646                           ; 4 bytes @ 0x4
   647  0074                     	ds	1
   648  0075                     LCD_data_sender@data:	
   649                           
   650                           ; 1 bytes @ 0x5
   651  0075                     	ds	1
   652  0076                     LCD_data_sender@callback_function:	
   653                           
   654                           ; 1 bytes @ 0x6
   655  0076                     	ds	1
   656  0077                     ??_LCD_data_sender:	
   657                           
   658                           ; 1 bytes @ 0x7
   659  0077                     	ds	1
   660  0078                     ??___lldiv:	
   661                           
   662                           ; 1 bytes @ 0x8
   663  0078                     	ds	1
   664  0079                     ___lldiv@quotient:	
   665                           
   666                           ; 4 bytes @ 0x9
   667  0079                     	ds	1
   668  007A                     ?_LCD_send_commad:	
   669  007A                     ?_I2C_LCD_write_char:	
   670                           ; 1 bytes @ 0xA
   671                           
   672  007A                     LCD_send_commad@LCD_Obj:	
   673                           ; 1 bytes @ 0xA
   674                           
   675  007A                     I2C_LCD_write_char@LCD_Obj:	
   676                           ; 2 bytes @ 0xA
   677                           
   678                           
   679                           ; 2 bytes @ 0xA
   680  007A                     	ds	2
   681  007C                     LCD_send_commad@cmd:	
   682  007C                     I2C_LCD_write_char@chr:	
   683                           ; 1 bytes @ 0xC
   684                           
   685                           
   686                           ; 1 bytes @ 0xC
   687  007C                     	ds	1
   688  007D                     ??_I2C_LCD_write_string:	
   689  007D                     I2C_LCD_init@LCD_Obj_Add:	
   690                           ; 1 bytes @ 0xD
   691                           
   692  007D                     ___lldiv@counter:	
   693                           ; 1 bytes @ 0xD
   694                           
   695                           
   696                           ; 1 bytes @ 0xD
   697  007D                     	ds	1
   698                           
   699                           	psect	cstackBANK0
   700  0020                     __pcstackBANK0:	
   701  0020                     ??_LCD_send_commad:	
   702  0020                     ?_I2C_Master_Initialize:	
   703                           ; 1 bytes @ 0x0
   704                           
   705  0020                     ??_I2C_LCD_write_char:	
   706                           ; 1 bytes @ 0x0
   707                           
   708  0020                     I2C_Master_Initialize@I2C_BaudRate:	
   709                           ; 1 bytes @ 0x0
   710                           
   711                           
   712                           ; 4 bytes @ 0x0
   713  0020                     	ds	2
   714  0022                     ?_I2C_LCD_write_string:	
   715  0022                     ?_I2C_LCD_clear:	
   716                           ; 1 bytes @ 0x2
   717                           
   718  0022                     ?_I2C_LCD_entry_mode:	
   719                           ; 1 bytes @ 0x2
   720                           
   721  0022                     ?_I2C_LCD_display_on_off_control:	
   722                           ; 1 bytes @ 0x2
   723                           
   724  0022                     ?_I2C_LCD_cursor_or_display_shift:	
   725                           ; 1 bytes @ 0x2
   726                           
   727  0022                     ?_I2C_LCD_set_cursor:	
   728                           ; 1 bytes @ 0x2
   729                           
   730  0022                     I2C_LCD_write_string@LCD_Obj:	
   731                           ; 1 bytes @ 0x2
   732                           
   733  0022                     I2C_LCD_clear@LCD_Obj:	
   734                           ; 2 bytes @ 0x2
   735                           
   736  0022                     I2C_LCD_entry_mode@LCD_Obj:	
   737                           ; 2 bytes @ 0x2
   738                           
   739  0022                     I2C_LCD_display_on_off_control@LCD_Obj:	
   740                           ; 2 bytes @ 0x2
   741                           
   742  0022                     I2C_LCD_cursor_or_display_shift@LCD_Obj:	
   743                           ; 2 bytes @ 0x2
   744                           
   745  0022                     I2C_LCD_set_cursor@LCD_Obj:	
   746                           ; 2 bytes @ 0x2
   747                           
   748                           
   749                           ; 2 bytes @ 0x2
   750  0022                     	ds	2
   751  0024                     ??_I2C_LCD_clear:	
   752  0024                     I2C_Master_Initialize@I2C_SMP_OnOff:	
   753                           ; 1 bytes @ 0x4
   754                           
   755  0024                     I2C_LCD_write_string@str:	
   756                           ; 1 bytes @ 0x4
   757                           
   758  0024                     I2C_LCD_entry_mode@I_or_D:	
   759                           ; 1 bytes @ 0x4
   760                           
   761  0024                     I2C_LCD_display_on_off_control@D:	
   762                           ; 1 bytes @ 0x4
   763                           
   764  0024                     I2C_LCD_cursor_or_display_shift@S_or_C:	
   765                           ; 1 bytes @ 0x4
   766                           
   767  0024                     I2C_LCD_set_cursor@row:	
   768                           ; 1 bytes @ 0x4
   769                           
   770                           
   771                           ; 1 bytes @ 0x4
   772  0024                     	ds	1
   773  0025                     I2C_Master_Initialize@I2C_CKE_OnOff:	
   774  0025                     I2C_LCD_write_string@i:	
   775                           ; 1 bytes @ 0x5
   776                           
   777  0025                     I2C_LCD_entry_mode@S:	
   778                           ; 1 bytes @ 0x5
   779                           
   780  0025                     I2C_LCD_display_on_off_control@C:	
   781                           ; 1 bytes @ 0x5
   782                           
   783  0025                     I2C_LCD_cursor_or_display_shift@R_or_L:	
   784                           ; 1 bytes @ 0x5
   785                           
   786  0025                     I2C_LCD_set_cursor@colomn:	
   787                           ; 1 bytes @ 0x5
   788                           
   789                           
   790                           ; 1 bytes @ 0x5
   791  0025                     	ds	1
   792  0026                     ??_I2C_Master_Initialize:	
   793  0026                     ??_I2C_LCD_entry_mode:	
   794                           ; 1 bytes @ 0x6
   795                           
   796  0026                     ??_I2C_LCD_cursor_or_display_shift:	
   797                           ; 1 bytes @ 0x6
   798                           
   799  0026                     ??_I2C_LCD_set_cursor:	
   800                           ; 1 bytes @ 0x6
   801                           
   802  0026                     I2C_LCD_display_on_off_control@B:	
   803                           ; 1 bytes @ 0x6
   804                           
   805                           
   806                           ; 1 bytes @ 0x6
   807  0026                     	ds	1
   808  0027                     ??_I2C_LCD_display_on_off_control:	
   809                           
   810                           ; 1 bytes @ 0x7
   811  0027                     	ds	2
   812  0029                     ?_I2C_LCD_init:	
   813  0029                     I2C_LCD_init@I2C_LCD_Address:	
   814                           ; 1 bytes @ 0x9
   815                           
   816                           
   817                           ; 1 bytes @ 0x9
   818  0029                     	ds	1
   819  002A                     I2C_LCD_init@N:	
   820                           
   821                           ; 1 bytes @ 0xA
   822  002A                     	ds	1
   823  002B                     I2C_LCD_init@F:	
   824                           
   825                           ; 1 bytes @ 0xB
   826  002B                     	ds	1
   827  002C                     ??_I2C_LCD_init:	
   828                           
   829                           ; 1 bytes @ 0xC
   830  002C                     	ds	2
   831  002E                     ??_main:	
   832                           
   833                           ; 1 bytes @ 0xE
   834  002E                     	ds	3
   835  0031                     main@i:	
   836                           
   837                           ; 2 bytes @ 0x11
   838  0031                     	ds	2
   839  0033                     main@i_547:	
   840                           
   841                           ; 2 bytes @ 0x13
   842  0033                     	ds	2
   843                           
   844                           	psect	maintext
   845  05BF                     __pmaintext:	
   846 ;;
   847 ;;Main: autosize = 0, tempsize = 3, incstack = 0, save=0
   848 ;;
   849 ;; *************** function _main *****************
   850 ;; Defined at:
   851 ;;		line 16 in file "I2C_LCD_v2.0_DISPLA_Firmware.c"
   852 ;; Parameters:    Size  Location     Type
   853 ;;		None
   854 ;; Auto vars:     Size  Location     Type
   855 ;;  i               2   19[BANK0 ] int 
   856 ;;  i               2   17[BANK0 ] int 
   857 ;; Return value:  Size  Location     Type
   858 ;;                  1    wreg      void 
   859 ;; Registers used:
   860 ;;		wreg, fsr0l, fsr0h, status,2, status,0, btemp+1, pclath, cstack
   861 ;; Tracked objects:
   862 ;;		On entry : B00/0
   863 ;;		On exit  : 0/0
   864 ;;		Unchanged: 0/0
   865 ;; Data sizes:     COMMON   BANK0   BANK1   BANK3   BANK2
   866 ;;      Params:         0       0       0       0       0
   867 ;;      Locals:         0       4       0       0       0
   868 ;;      Temps:          0       3       0       0       0
   869 ;;      Totals:         0       7       0       0       0
   870 ;;Total ram usage:        7 bytes
   871 ;; Hardware stack levels required when called:    7
   872 ;; This function calls:
   873 ;;		_I2C_LCD_BackLight_OFF
   874 ;;		_I2C_LCD_clear
   875 ;;		_I2C_LCD_cursor_or_display_shift
   876 ;;		_I2C_LCD_init
   877 ;;		_I2C_LCD_set_cursor
   878 ;;		_I2C_LCD_write_char
   879 ;;		_I2C_LCD_write_string
   880 ;;		_I2C_Master_Initialize
   881 ;;		_Initial_Configurations
   882 ;; This function is called by:
   883 ;;		Startup code after reset
   884 ;; This function uses a non-reentrant model
   885 ;;
   886                           
   887                           
   888                           ;psect for function _main
   889  05BF                     _main:	
   890  05BF                     l1351:	
   891                           ;incstack = 0
   892                           ; Regs used in _main: [wreg-fsr0h+status,2+status,0+btemp+1+pclath+cstack]
   893                           
   894                           
   895                           ;I2C_LCD_v2.0_DISPLA_Firmware.c: 17:     Initial_Configurations();
   896  05BF  120A  118A  22EB  120A  118A  	fcall	_Initial_Configurations
   897                           
   898                           ;I2C_LCD_v2.0_DISPLA_Firmware.c: 18:     I2C_Master_Initialize(((I2C_BaudRate_t)100000),
      +                           ((Slew_Rate_t)1), ((SMBus_t)0));
   899  05C4  3000               	movlw	0
   900  05C5  1283               	bcf	3,5	;RP0=0, select bank0
   901  05C6  1303               	bcf	3,6	;RP1=0, select bank0
   902  05C7  00A3               	movwf	I2C_Master_Initialize@I2C_BaudRate+3
   903  05C8  3001               	movlw	1
   904  05C9  00A2               	movwf	I2C_Master_Initialize@I2C_BaudRate+2
   905  05CA  3086               	movlw	134
   906  05CB  00A1               	movwf	I2C_Master_Initialize@I2C_BaudRate+1
   907  05CC  30A0               	movlw	160
   908  05CD  00A0               	movwf	I2C_Master_Initialize@I2C_BaudRate
   909  05CE  01A4               	clrf	I2C_Master_Initialize@I2C_SMP_OnOff
   910  05CF  0AA4               	incf	I2C_Master_Initialize@I2C_SMP_OnOff,f
   911  05D0  01A5               	clrf	I2C_Master_Initialize@I2C_CKE_OnOff
   912  05D1  120A  118A  23D6  120A  118A  	fcall	_I2C_Master_Initialize
   913  05D6                     l1353:	
   914                           
   915                           ;I2C_LCD_v2.0_DISPLA_Firmware.c: 20:     I2C_LCD_init(&LCD1, 0x40, 0x08, 0x00);
   916  05D6  3040               	movlw	64
   917  05D7  1283               	bcf	3,5	;RP0=0, select bank0
   918  05D8  1303               	bcf	3,6	;RP1=0, select bank0
   919  05D9  00AE               	movwf	??_main
   920  05DA  082E               	movf	??_main,w
   921  05DB  00A9               	movwf	I2C_LCD_init@I2C_LCD_Address
   922  05DC  3008               	movlw	8
   923  05DD  00AF               	movwf	??_main+1
   924  05DE  082F               	movf	??_main+1,w
   925  05DF  00AA               	movwf	I2C_LCD_init@N
   926  05E0  01AB               	clrf	I2C_LCD_init@F
   927  05E1  3038               	movlw	(low (_LCD1| 0))& (0+255)
   928  05E2  120A  118A  2542  120A  118A  	fcall	_I2C_LCD_init
   929  05E7                     l1355:	
   930                           
   931                           ;I2C_LCD_v2.0_DISPLA_Firmware.c: 21:     I2C_LCD_init(&LCD2, 0x4E, 0x08, 0x00);
   932  05E7  304E               	movlw	78
   933  05E8  1283               	bcf	3,5	;RP0=0, select bank0
   934  05E9  1303               	bcf	3,6	;RP1=0, select bank0
   935  05EA  00AE               	movwf	??_main
   936  05EB  082E               	movf	??_main,w
   937  05EC  00A9               	movwf	I2C_LCD_init@I2C_LCD_Address
   938  05ED  3008               	movlw	8
   939  05EE  00AF               	movwf	??_main+1
   940  05EF  082F               	movf	??_main+1,w
   941  05F0  00AA               	movwf	I2C_LCD_init@N
   942  05F1  01AB               	clrf	I2C_LCD_init@F
   943  05F2  3036               	movlw	(low (_LCD2| 0))& (0+255)
   944  05F3  120A  118A  2542  120A  118A  	fcall	_I2C_LCD_init
   945  05F8                     l1357:	
   946                           
   947                           ;I2C_LCD_v2.0_DISPLA_Firmware.c: 23:     I2C_LCD_set_cursor(LCD1,1,1);
   948  05F8  1283               	bcf	3,5	;RP0=0, select bank0
   949  05F9  1303               	bcf	3,6	;RP1=0, select bank0
   950  05FA  0839               	movf	_LCD1+1,w
   951  05FB  00A3               	movwf	I2C_LCD_set_cursor@LCD_Obj+1
   952  05FC  0838               	movf	_LCD1,w
   953  05FD  00A2               	movwf	I2C_LCD_set_cursor@LCD_Obj
   954  05FE  01A4               	clrf	I2C_LCD_set_cursor@row
   955  05FF  0AA4               	incf	I2C_LCD_set_cursor@row,f
   956  0600  01A5               	clrf	I2C_LCD_set_cursor@colomn
   957  0601  0AA5               	incf	I2C_LCD_set_cursor@colomn,f
   958  0602  120A  118A  2425  120A  118A  	fcall	_I2C_LCD_set_cursor
   959  0607                     l1359:	
   960                           
   961                           ;I2C_LCD_v2.0_DISPLA_Firmware.c: 24:     I2C_LCD_write_string(LCD1,"LCD1");
   962  0607  1283               	bcf	3,5	;RP0=0, select bank0
   963  0608  1303               	bcf	3,6	;RP1=0, select bank0
   964  0609  0839               	movf	_LCD1+1,w
   965  060A  00A3               	movwf	I2C_LCD_write_string@LCD_Obj+1
   966  060B  0838               	movf	_LCD1,w
   967  060C  00A2               	movwf	I2C_LCD_write_string@LCD_Obj
   968  060D  3019               	movlw	(low ((STR_1-__stringbase)| (0+32768)))& (0+255)
   969  060E  00AE               	movwf	??_main
   970  060F  082E               	movf	??_main,w
   971  0610  00A4               	movwf	I2C_LCD_write_string@str
   972  0611  120A  118A  238E  120A  118A  	fcall	_I2C_LCD_write_string
   973  0616                     l1361:	
   974                           
   975                           ;I2C_LCD_v2.0_DISPLA_Firmware.c: 25:     I2C_LCD_set_cursor(LCD2,1,1);
   976  0616  1283               	bcf	3,5	;RP0=0, select bank0
   977  0617  1303               	bcf	3,6	;RP1=0, select bank0
   978  0618  0837               	movf	_LCD2+1,w
   979  0619  00A3               	movwf	I2C_LCD_set_cursor@LCD_Obj+1
   980  061A  0836               	movf	_LCD2,w
   981  061B  00A2               	movwf	I2C_LCD_set_cursor@LCD_Obj
   982  061C  01A4               	clrf	I2C_LCD_set_cursor@row
   983  061D  0AA4               	incf	I2C_LCD_set_cursor@row,f
   984  061E  01A5               	clrf	I2C_LCD_set_cursor@colomn
   985  061F  0AA5               	incf	I2C_LCD_set_cursor@colomn,f
   986  0620  120A  118A  2425  120A  118A  	fcall	_I2C_LCD_set_cursor
   987  0625                     l1363:	
   988                           
   989                           ;I2C_LCD_v2.0_DISPLA_Firmware.c: 26:     I2C_LCD_write_string(LCD2,"LCD2");
   990  0625  1283               	bcf	3,5	;RP0=0, select bank0
   991  0626  1303               	bcf	3,6	;RP1=0, select bank0
   992  0627  0837               	movf	_LCD2+1,w
   993  0628  00A3               	movwf	I2C_LCD_write_string@LCD_Obj+1
   994  0629  0836               	movf	_LCD2,w
   995  062A  00A2               	movwf	I2C_LCD_write_string@LCD_Obj
   996  062B  301E               	movlw	(low ((STR_2-__stringbase)| (0+32768)))& (0+255)
   997  062C  00AE               	movwf	??_main
   998  062D  082E               	movf	??_main,w
   999  062E  00A4               	movwf	I2C_LCD_write_string@str
  1000  062F  120A  118A  238E  120A  118A  	fcall	_I2C_LCD_write_string
  1001  0634                     l1365:	
  1002                           
  1003                           ;I2C_LCD_v2.0_DISPLA_Firmware.c: 27:     _delay((unsigned long)((1000)*(20000000UL/4000.
      +                          0)));
  1004  0634  301A               	movlw	26
  1005  0635  1283               	bcf	3,5	;RP0=0, select bank0
  1006  0636  1303               	bcf	3,6	;RP1=0, select bank0
  1007  0637  00B0               	movwf	??_main+2
  1008  0638  305E               	movlw	94
  1009  0639  00AF               	movwf	??_main+1
  1010  063A  306D               	movlw	109
  1011  063B  00AE               	movwf	??_main
  1012  063C                     u617:	
  1013  063C  0BAE               	decfsz	??_main,f
  1014  063D  2E3C               	goto	u617
  1015  063E  0BAF               	decfsz	??_main+1,f
  1016  063F  2E3C               	goto	u617
  1017  0640  0BB0               	decfsz	??_main+2,f
  1018  0641  2E3C               	goto	u617
  1019  0642  2E43               	nop2
  1020  0643                     l1367:	
  1021                           
  1022                           ;I2C_LCD_v2.0_DISPLA_Firmware.c: 29:     I2C_LCD_BackLight_OFF(&LCD1);
  1023  0643  3038               	movlw	(low (_LCD1| 0))& (0+255)
  1024  0644  120A  118A  227E  120A  118A  	fcall	_I2C_LCD_BackLight_OFF
  1025  0649                     l1369:	
  1026                           
  1027                           ;I2C_LCD_v2.0_DISPLA_Firmware.c: 31:     I2C_LCD_set_cursor(LCD2,2,4);
  1028  0649  1283               	bcf	3,5	;RP0=0, select bank0
  1029  064A  1303               	bcf	3,6	;RP1=0, select bank0
  1030  064B  0837               	movf	_LCD2+1,w
  1031  064C  00A3               	movwf	I2C_LCD_set_cursor@LCD_Obj+1
  1032  064D  0836               	movf	_LCD2,w
  1033  064E  00A2               	movwf	I2C_LCD_set_cursor@LCD_Obj
  1034  064F  3002               	movlw	2
  1035  0650  00AE               	movwf	??_main
  1036  0651  082E               	movf	??_main,w
  1037  0652  00A4               	movwf	I2C_LCD_set_cursor@row
  1038  0653  3004               	movlw	4
  1039  0654  00AF               	movwf	??_main+1
  1040  0655  082F               	movf	??_main+1,w
  1041  0656  00A5               	movwf	I2C_LCD_set_cursor@colomn
  1042  0657  120A  118A  2425  120A  118A  	fcall	_I2C_LCD_set_cursor
  1043  065C                     l1371:	
  1044                           
  1045                           ;I2C_LCD_v2.0_DISPLA_Firmware.c: 32:     I2C_LCD_write_string(LCD2,"HELLO WORD");
  1046  065C  1283               	bcf	3,5	;RP0=0, select bank0
  1047  065D  1303               	bcf	3,6	;RP1=0, select bank0
  1048  065E  0837               	movf	_LCD2+1,w
  1049  065F  00A3               	movwf	I2C_LCD_write_string@LCD_Obj+1
  1050  0660  0836               	movf	_LCD2,w
  1051  0661  00A2               	movwf	I2C_LCD_write_string@LCD_Obj
  1052  0662  3002               	movlw	(low ((STR_3-__stringbase)| (0+32768)))& (0+255)
  1053  0663  00AE               	movwf	??_main
  1054  0664  082E               	movf	??_main,w
  1055  0665  00A4               	movwf	I2C_LCD_write_string@str
  1056  0666  120A  118A  238E  120A  118A  	fcall	_I2C_LCD_write_string
  1057  066B                     l1373:	
  1058                           
  1059                           ;I2C_LCD_v2.0_DISPLA_Firmware.c: 33:     I2C_LCD_clear(LCD1);
  1060  066B  1283               	bcf	3,5	;RP0=0, select bank0
  1061  066C  1303               	bcf	3,6	;RP1=0, select bank0
  1062  066D  0839               	movf	_LCD1+1,w
  1063  066E  00A3               	movwf	I2C_LCD_clear@LCD_Obj+1
  1064  066F  0838               	movf	_LCD1,w
  1065  0670  00A2               	movwf	I2C_LCD_clear@LCD_Obj
  1066  0671  120A  118A  2302  120A  118A  	fcall	_I2C_LCD_clear
  1067  0676                     l1375:	
  1068                           
  1069                           ;I2C_LCD_v2.0_DISPLA_Firmware.c: 36:     I2C_LCD_set_cursor(LCD1,2,3);
  1070  0676  1283               	bcf	3,5	;RP0=0, select bank0
  1071  0677  1303               	bcf	3,6	;RP1=0, select bank0
  1072  0678  0839               	movf	_LCD1+1,w
  1073  0679  00A3               	movwf	I2C_LCD_set_cursor@LCD_Obj+1
  1074  067A  0838               	movf	_LCD1,w
  1075  067B  00A2               	movwf	I2C_LCD_set_cursor@LCD_Obj
  1076  067C  3002               	movlw	2
  1077  067D  00AE               	movwf	??_main
  1078  067E  082E               	movf	??_main,w
  1079  067F  00A4               	movwf	I2C_LCD_set_cursor@row
  1080  0680  3003               	movlw	3
  1081  0681  00AF               	movwf	??_main+1
  1082  0682  082F               	movf	??_main+1,w
  1083  0683  00A5               	movwf	I2C_LCD_set_cursor@colomn
  1084  0684  120A  118A  2425  120A  118A  	fcall	_I2C_LCD_set_cursor
  1085  0689                     l1377:	
  1086                           
  1087                           ;I2C_LCD_v2.0_DISPLA_Firmware.c: 37:     I2C_LCD_write_char(LCD1,'Y');
  1088  0689  1283               	bcf	3,5	;RP0=0, select bank0
  1089  068A  1303               	bcf	3,6	;RP1=0, select bank0
  1090  068B  0839               	movf	_LCD1+1,w
  1091  068C  00FB               	movwf	I2C_LCD_write_char@LCD_Obj+1
  1092  068D  0838               	movf	_LCD1,w
  1093  068E  00FA               	movwf	I2C_LCD_write_char@LCD_Obj
  1094  068F  3059               	movlw	89
  1095  0690  00AE               	movwf	??_main
  1096  0691  082E               	movf	??_main,w
  1097  0692  00FC               	movwf	I2C_LCD_write_char@chr
  1098  0693  120A  118A  22BE  120A  118A  	fcall	_I2C_LCD_write_char
  1099  0698                     l1379:	
  1100                           
  1101                           ;I2C_LCD_v2.0_DISPLA_Firmware.c: 38:     _delay((unsigned long)((200)*(20000000UL/4000.0
      +                          )));
  1102  0698  3006               	movlw	6
  1103  0699  1283               	bcf	3,5	;RP0=0, select bank0
  1104  069A  1303               	bcf	3,6	;RP1=0, select bank0
  1105  069B  00B0               	movwf	??_main+2
  1106  069C  3013               	movlw	19
  1107  069D  00AF               	movwf	??_main+1
  1108  069E  30AD               	movlw	173
  1109  069F  00AE               	movwf	??_main
  1110  06A0                     u627:	
  1111  06A0  0BAE               	decfsz	??_main,f
  1112  06A1  2EA0               	goto	u627
  1113  06A2  0BAF               	decfsz	??_main+1,f
  1114  06A3  2EA0               	goto	u627
  1115  06A4  0BB0               	decfsz	??_main+2,f
  1116  06A5  2EA0               	goto	u627
  1117                           
  1118                           ;I2C_LCD_v2.0_DISPLA_Firmware.c: 39:     I2C_LCD_write_char(LCD1,'U');
  1119  06A6  1283               	bcf	3,5	;RP0=0, select bank0
  1120  06A7  1303               	bcf	3,6	;RP1=0, select bank0
  1121  06A8  0839               	movf	_LCD1+1,w
  1122  06A9  00FB               	movwf	I2C_LCD_write_char@LCD_Obj+1
  1123  06AA  0838               	movf	_LCD1,w
  1124  06AB  00FA               	movwf	I2C_LCD_write_char@LCD_Obj
  1125  06AC  3055               	movlw	85
  1126  06AD  00AE               	movwf	??_main
  1127  06AE  082E               	movf	??_main,w
  1128  06AF  00FC               	movwf	I2C_LCD_write_char@chr
  1129  06B0  120A  118A  22BE  120A  118A  	fcall	_I2C_LCD_write_char
  1130  06B5                     l1381:	
  1131                           
  1132                           ;I2C_LCD_v2.0_DISPLA_Firmware.c: 40:     _delay((unsigned long)((200)*(20000000UL/4000.0
      +                          )));
  1133  06B5  3006               	movlw	6
  1134  06B6  1283               	bcf	3,5	;RP0=0, select bank0
  1135  06B7  1303               	bcf	3,6	;RP1=0, select bank0
  1136  06B8  00B0               	movwf	??_main+2
  1137  06B9  3013               	movlw	19
  1138  06BA  00AF               	movwf	??_main+1
  1139  06BB  30AD               	movlw	173
  1140  06BC  00AE               	movwf	??_main
  1141  06BD                     u637:	
  1142  06BD  0BAE               	decfsz	??_main,f
  1143  06BE  2EBD               	goto	u637
  1144  06BF  0BAF               	decfsz	??_main+1,f
  1145  06C0  2EBD               	goto	u637
  1146  06C1  0BB0               	decfsz	??_main+2,f
  1147  06C2  2EBD               	goto	u637
  1148  06C3                     l1383:	
  1149                           
  1150                           ;I2C_LCD_v2.0_DISPLA_Firmware.c: 41:     I2C_LCD_write_char(LCD1,'N');
  1151  06C3  1283               	bcf	3,5	;RP0=0, select bank0
  1152  06C4  1303               	bcf	3,6	;RP1=0, select bank0
  1153  06C5  0839               	movf	_LCD1+1,w
  1154  06C6  00FB               	movwf	I2C_LCD_write_char@LCD_Obj+1
  1155  06C7  0838               	movf	_LCD1,w
  1156  06C8  00FA               	movwf	I2C_LCD_write_char@LCD_Obj
  1157  06C9  304E               	movlw	78
  1158  06CA  00AE               	movwf	??_main
  1159  06CB  082E               	movf	??_main,w
  1160  06CC  00FC               	movwf	I2C_LCD_write_char@chr
  1161  06CD  120A  118A  22BE  120A  118A  	fcall	_I2C_LCD_write_char
  1162                           
  1163                           ;I2C_LCD_v2.0_DISPLA_Firmware.c: 42:     _delay((unsigned long)((200)*(20000000UL/4000.0
      +                          )));
  1164  06D2  3006               	movlw	6
  1165  06D3  1283               	bcf	3,5	;RP0=0, select bank0
  1166  06D4  1303               	bcf	3,6	;RP1=0, select bank0
  1167  06D5  00B0               	movwf	??_main+2
  1168  06D6  3013               	movlw	19
  1169  06D7  00AF               	movwf	??_main+1
  1170  06D8  30AD               	movlw	173
  1171  06D9  00AE               	movwf	??_main
  1172  06DA                     u647:	
  1173  06DA  0BAE               	decfsz	??_main,f
  1174  06DB  2EDA               	goto	u647
  1175  06DC  0BAF               	decfsz	??_main+1,f
  1176  06DD  2EDA               	goto	u647
  1177  06DE  0BB0               	decfsz	??_main+2,f
  1178  06DF  2EDA               	goto	u647
  1179  06E0                     l1385:	
  1180                           
  1181                           ;I2C_LCD_v2.0_DISPLA_Firmware.c: 43:     I2C_LCD_write_char(LCD1,'U');
  1182  06E0  1283               	bcf	3,5	;RP0=0, select bank0
  1183  06E1  1303               	bcf	3,6	;RP1=0, select bank0
  1184  06E2  0839               	movf	_LCD1+1,w
  1185  06E3  00FB               	movwf	I2C_LCD_write_char@LCD_Obj+1
  1186  06E4  0838               	movf	_LCD1,w
  1187  06E5  00FA               	movwf	I2C_LCD_write_char@LCD_Obj
  1188  06E6  3055               	movlw	85
  1189  06E7  00AE               	movwf	??_main
  1190  06E8  082E               	movf	??_main,w
  1191  06E9  00FC               	movwf	I2C_LCD_write_char@chr
  1192  06EA  120A  118A  22BE  120A  118A  	fcall	_I2C_LCD_write_char
  1193  06EF                     l1387:	
  1194                           
  1195                           ;I2C_LCD_v2.0_DISPLA_Firmware.c: 44:     _delay((unsigned long)((200)*(20000000UL/4000.0
      +                          )));
  1196  06EF  3006               	movlw	6
  1197  06F0  1283               	bcf	3,5	;RP0=0, select bank0
  1198  06F1  1303               	bcf	3,6	;RP1=0, select bank0
  1199  06F2  00B0               	movwf	??_main+2
  1200  06F3  3013               	movlw	19
  1201  06F4  00AF               	movwf	??_main+1
  1202  06F5  30AD               	movlw	173
  1203  06F6  00AE               	movwf	??_main
  1204  06F7                     u657:	
  1205  06F7  0BAE               	decfsz	??_main,f
  1206  06F8  2EF7               	goto	u657
  1207  06F9  0BAF               	decfsz	??_main+1,f
  1208  06FA  2EF7               	goto	u657
  1209  06FB  0BB0               	decfsz	??_main+2,f
  1210  06FC  2EF7               	goto	u657
  1211                           
  1212                           ;I2C_LCD_v2.0_DISPLA_Firmware.c: 45:     I2C_LCD_write_char(LCD1,'S');
  1213  06FD  1283               	bcf	3,5	;RP0=0, select bank0
  1214  06FE  1303               	bcf	3,6	;RP1=0, select bank0
  1215  06FF  0839               	movf	_LCD1+1,w
  1216  0700  00FB               	movwf	I2C_LCD_write_char@LCD_Obj+1
  1217  0701  0838               	movf	_LCD1,w
  1218  0702  00FA               	movwf	I2C_LCD_write_char@LCD_Obj
  1219  0703  3053               	movlw	83
  1220  0704  00AE               	movwf	??_main
  1221  0705  082E               	movf	??_main,w
  1222  0706  00FC               	movwf	I2C_LCD_write_char@chr
  1223  0707  120A  118A  22BE  120A  118A  	fcall	_I2C_LCD_write_char
  1224  070C                     l1389:	
  1225                           
  1226                           ;I2C_LCD_v2.0_DISPLA_Firmware.c: 46:     _delay((unsigned long)((200)*(20000000UL/4000.0
      +                          )));
  1227  070C  3006               	movlw	6
  1228  070D  1283               	bcf	3,5	;RP0=0, select bank0
  1229  070E  1303               	bcf	3,6	;RP1=0, select bank0
  1230  070F  00B0               	movwf	??_main+2
  1231  0710  3013               	movlw	19
  1232  0711  00AF               	movwf	??_main+1
  1233  0712  30AD               	movlw	173
  1234  0713  00AE               	movwf	??_main
  1235  0714                     u667:	
  1236  0714  0BAE               	decfsz	??_main,f
  1237  0715  2F14               	goto	u667
  1238  0716  0BAF               	decfsz	??_main+1,f
  1239  0717  2F14               	goto	u667
  1240  0718  0BB0               	decfsz	??_main+2,f
  1241  0719  2F14               	goto	u667
  1242  071A                     l1391:	
  1243                           
  1244                           ;I2C_LCD_v2.0_DISPLA_Firmware.c: 47:     I2C_LCD_write_string(LCD1," EMRE");
  1245  071A  1283               	bcf	3,5	;RP0=0, select bank0
  1246  071B  1303               	bcf	3,6	;RP1=0, select bank0
  1247  071C  0839               	movf	_LCD1+1,w
  1248  071D  00A3               	movwf	I2C_LCD_write_string@LCD_Obj+1
  1249  071E  0838               	movf	_LCD1,w
  1250  071F  00A2               	movwf	I2C_LCD_write_string@LCD_Obj
  1251  0720  300D               	movlw	(low ((STR_4-__stringbase)| (0+32768)))& (0+255)
  1252  0721  00AE               	movwf	??_main
  1253  0722  082E               	movf	??_main,w
  1254  0723  00A4               	movwf	I2C_LCD_write_string@str
  1255  0724  120A  118A  238E  120A  118A  	fcall	_I2C_LCD_write_string
  1256  0729                     l1393:	
  1257                           
  1258                           ;I2C_LCD_v2.0_DISPLA_Firmware.c: 48:     _delay((unsigned long)((200)*(20000000UL/4000.0
      +                          )));
  1259  0729  3006               	movlw	6
  1260  072A  1283               	bcf	3,5	;RP0=0, select bank0
  1261  072B  1303               	bcf	3,6	;RP1=0, select bank0
  1262  072C  00B0               	movwf	??_main+2
  1263  072D  3013               	movlw	19
  1264  072E  00AF               	movwf	??_main+1
  1265  072F  30AD               	movlw	173
  1266  0730  00AE               	movwf	??_main
  1267  0731                     u677:	
  1268  0731  0BAE               	decfsz	??_main,f
  1269  0732  2F31               	goto	u677
  1270  0733  0BAF               	decfsz	??_main+1,f
  1271  0734  2F31               	goto	u677
  1272  0735  0BB0               	decfsz	??_main+2,f
  1273  0736  2F31               	goto	u677
  1274  0737                     l1395:	
  1275                           
  1276                           ;I2C_LCD_v2.0_DISPLA_Firmware.c: 49:     I2C_LCD_set_cursor(LCD1,3,6);
  1277  0737  1283               	bcf	3,5	;RP0=0, select bank0
  1278  0738  1303               	bcf	3,6	;RP1=0, select bank0
  1279  0739  0839               	movf	_LCD1+1,w
  1280  073A  00A3               	movwf	I2C_LCD_set_cursor@LCD_Obj+1
  1281  073B  0838               	movf	_LCD1,w
  1282  073C  00A2               	movwf	I2C_LCD_set_cursor@LCD_Obj
  1283  073D  3003               	movlw	3
  1284  073E  00AE               	movwf	??_main
  1285  073F  082E               	movf	??_main,w
  1286  0740  00A4               	movwf	I2C_LCD_set_cursor@row
  1287  0741  3006               	movlw	6
  1288  0742  00AF               	movwf	??_main+1
  1289  0743  082F               	movf	??_main+1,w
  1290  0744  00A5               	movwf	I2C_LCD_set_cursor@colomn
  1291  0745  120A  118A  2425  120A  118A  	fcall	_I2C_LCD_set_cursor
  1292  074A                     l1397:	
  1293                           
  1294                           ;I2C_LCD_v2.0_DISPLA_Firmware.c: 50:     I2C_LCD_write_string(LCD1,"ERGUL");
  1295  074A  1283               	bcf	3,5	;RP0=0, select bank0
  1296  074B  1303               	bcf	3,6	;RP1=0, select bank0
  1297  074C  0839               	movf	_LCD1+1,w
  1298  074D  00A3               	movwf	I2C_LCD_write_string@LCD_Obj+1
  1299  074E  0838               	movf	_LCD1,w
  1300  074F  00A2               	movwf	I2C_LCD_write_string@LCD_Obj
  1301  0750  3013               	movlw	(low ((STR_5-__stringbase)| (0+32768)))& (0+255)
  1302  0751  00AE               	movwf	??_main
  1303  0752  082E               	movf	??_main,w
  1304  0753  00A4               	movwf	I2C_LCD_write_string@str
  1305  0754  120A  118A  238E  120A  118A  	fcall	_I2C_LCD_write_string
  1306  0759                     l1399:	
  1307                           
  1308                           ;I2C_LCD_v2.0_DISPLA_Firmware.c: 51:     _delay((unsigned long)((500)*(20000000UL/4000.0
      +                          )));
  1309  0759  300D               	movlw	13
  1310  075A  1283               	bcf	3,5	;RP0=0, select bank0
  1311  075B  1303               	bcf	3,6	;RP1=0, select bank0
  1312  075C  00B0               	movwf	??_main+2
  1313  075D  30AF               	movlw	175
  1314  075E  00AF               	movwf	??_main+1
  1315  075F  30B5               	movlw	181
  1316  0760  00AE               	movwf	??_main
  1317  0761                     u687:	
  1318  0761  0BAE               	decfsz	??_main,f
  1319  0762  2F61               	goto	u687
  1320  0763  0BAF               	decfsz	??_main+1,f
  1321  0764  2F61               	goto	u687
  1322  0765  0BB0               	decfsz	??_main+2,f
  1323  0766  2F61               	goto	u687
  1324  0767  2F68               	nop2
  1325  0768                     l1401:	
  1326                           
  1327                           ;I2C_LCD_v2.0_DISPLA_Firmware.c: 54:         for(int i=0;i<6;i++){
  1328  0768  1283               	bcf	3,5	;RP0=0, select bank0
  1329  0769  1303               	bcf	3,6	;RP1=0, select bank0
  1330  076A  01B1               	clrf	main@i
  1331  076B  01B2               	clrf	main@i+1
  1332  076C                     l1407:	
  1333                           
  1334                           ;I2C_LCD_v2.0_DISPLA_Firmware.c: 55:             I2C_LCD_cursor_or_display_shift(LCD1, 0
      +                          x08, 0x04);
  1335  076C  1283               	bcf	3,5	;RP0=0, select bank0
  1336  076D  1303               	bcf	3,6	;RP1=0, select bank0
  1337  076E  0839               	movf	_LCD1+1,w
  1338  076F  00A3               	movwf	I2C_LCD_cursor_or_display_shift@LCD_Obj+1
  1339  0770  0838               	movf	_LCD1,w
  1340  0771  00A2               	movwf	I2C_LCD_cursor_or_display_shift@LCD_Obj
  1341  0772  3008               	movlw	8
  1342  0773  00AE               	movwf	??_main
  1343  0774  082E               	movf	??_main,w
  1344  0775  00A4               	movwf	I2C_LCD_cursor_or_display_shift@S_or_C
  1345  0776  3004               	movlw	4
  1346  0777  00AF               	movwf	??_main+1
  1347  0778  082F               	movf	??_main+1,w
  1348  0779  00A5               	movwf	I2C_LCD_cursor_or_display_shift@R_or_L
  1349  077A  120A  118A  2336  120A  118A  	fcall	_I2C_LCD_cursor_or_display_shift
  1350  077F                     l1409:	
  1351                           
  1352                           ;I2C_LCD_v2.0_DISPLA_Firmware.c: 56:             _delay((unsigned long)((250)*(20000000U
      +                          L/4000.0)));
  1353  077F  3007               	movlw	7
  1354  0780  1283               	bcf	3,5	;RP0=0, select bank0
  1355  0781  1303               	bcf	3,6	;RP1=0, select bank0
  1356  0782  00B0               	movwf	??_main+2
  1357  0783  3058               	movlw	88
  1358  0784  00AF               	movwf	??_main+1
  1359  0785  3059               	movlw	89
  1360  0786  00AE               	movwf	??_main
  1361  0787                     u697:	
  1362  0787  0BAE               	decfsz	??_main,f
  1363  0788  2F87               	goto	u697
  1364  0789  0BAF               	decfsz	??_main+1,f
  1365  078A  2F87               	goto	u697
  1366  078B  0BB0               	decfsz	??_main+2,f
  1367  078C  2F87               	goto	u697
  1368  078D                     l1411:	
  1369                           
  1370                           ;I2C_LCD_v2.0_DISPLA_Firmware.c: 57:         }
  1371  078D  3001               	movlw	1
  1372  078E  1283               	bcf	3,5	;RP0=0, select bank0
  1373  078F  1303               	bcf	3,6	;RP1=0, select bank0
  1374  0790  07B1               	addwf	main@i,f
  1375  0791  1803               	skipnc
  1376  0792  0AB2               	incf	main@i+1,f
  1377  0793  3000               	movlw	0
  1378  0794  07B2               	addwf	main@i+1,f
  1379  0795                     l1413:	
  1380  0795  0832               	movf	main@i+1,w
  1381  0796  3A80               	xorlw	128
  1382  0797  00FF               	movwf	btemp+1
  1383  0798  3080               	movlw	128
  1384  0799  027F               	subwf	btemp+1,w
  1385  079A  1D03               	skipz
  1386  079B  2F9E               	goto	u595
  1387  079C  3006               	movlw	6
  1388  079D  0231               	subwf	main@i,w
  1389  079E                     u595:	
  1390  079E  1C03               	skipc
  1391  079F  2FA1               	goto	u591
  1392  07A0  2FA2               	goto	u590
  1393  07A1                     u591:	
  1394  07A1  2F6C               	goto	l1407
  1395  07A2                     u590:	
  1396  07A2                     l1415:	
  1397                           
  1398                           ;I2C_LCD_v2.0_DISPLA_Firmware.c: 58:         for(int i=6;i>0;i--){
  1399  07A2  3006               	movlw	6
  1400  07A3  1283               	bcf	3,5	;RP0=0, select bank0
  1401  07A4  1303               	bcf	3,6	;RP1=0, select bank0
  1402  07A5  00B3               	movwf	main@i_547
  1403  07A6  3000               	movlw	0
  1404  07A7  00B4               	movwf	main@i_547+1
  1405  07A8                     l1421:	
  1406                           
  1407                           ;I2C_LCD_v2.0_DISPLA_Firmware.c: 59:             I2C_LCD_cursor_or_display_shift(LCD1, 0
      +                          x08, 0x00);
  1408  07A8  1283               	bcf	3,5	;RP0=0, select bank0
  1409  07A9  1303               	bcf	3,6	;RP1=0, select bank0
  1410  07AA  0839               	movf	_LCD1+1,w
  1411  07AB  00A3               	movwf	I2C_LCD_cursor_or_display_shift@LCD_Obj+1
  1412  07AC  0838               	movf	_LCD1,w
  1413  07AD  00A2               	movwf	I2C_LCD_cursor_or_display_shift@LCD_Obj
  1414  07AE  3008               	movlw	8
  1415  07AF  00AE               	movwf	??_main
  1416  07B0  082E               	movf	??_main,w
  1417  07B1  00A4               	movwf	I2C_LCD_cursor_or_display_shift@S_or_C
  1418  07B2  01A5               	clrf	I2C_LCD_cursor_or_display_shift@R_or_L
  1419  07B3  120A  118A  2336  120A  118A  	fcall	_I2C_LCD_cursor_or_display_shift
  1420  07B8                     l1423:	
  1421                           
  1422                           ;I2C_LCD_v2.0_DISPLA_Firmware.c: 60:             _delay((unsigned long)((250)*(20000000U
      +                          L/4000.0)));
  1423  07B8  3007               	movlw	7
  1424  07B9  1283               	bcf	3,5	;RP0=0, select bank0
  1425  07BA  1303               	bcf	3,6	;RP1=0, select bank0
  1426  07BB  00B0               	movwf	??_main+2
  1427  07BC  3058               	movlw	88
  1428  07BD  00AF               	movwf	??_main+1
  1429  07BE  3059               	movlw	89
  1430  07BF  00AE               	movwf	??_main
  1431  07C0                     u707:	
  1432  07C0  0BAE               	decfsz	??_main,f
  1433  07C1  2FC0               	goto	u707
  1434  07C2  0BAF               	decfsz	??_main+1,f
  1435  07C3  2FC0               	goto	u707
  1436  07C4  0BB0               	decfsz	??_main+2,f
  1437  07C5  2FC0               	goto	u707
  1438  07C6                     l1425:	
  1439                           
  1440                           ;I2C_LCD_v2.0_DISPLA_Firmware.c: 61:         }
  1441  07C6  30FF               	movlw	255
  1442  07C7  1283               	bcf	3,5	;RP0=0, select bank0
  1443  07C8  1303               	bcf	3,6	;RP1=0, select bank0
  1444  07C9  07B3               	addwf	main@i_547,f
  1445  07CA  1803               	skipnc
  1446  07CB  0AB4               	incf	main@i_547+1,f
  1447  07CC  30FF               	movlw	255
  1448  07CD  07B4               	addwf	main@i_547+1,f
  1449  07CE                     l1427:	
  1450  07CE  0834               	movf	main@i_547+1,w
  1451  07CF  3A80               	xorlw	128
  1452  07D0  00FF               	movwf	btemp+1
  1453  07D1  3080               	movlw	128
  1454  07D2  027F               	subwf	btemp+1,w
  1455  07D3  1D03               	skipz
  1456  07D4  2FD7               	goto	u605
  1457  07D5  3001               	movlw	1
  1458  07D6  0233               	subwf	main@i_547,w
  1459  07D7                     u605:	
  1460  07D7  1803               	skipnc
  1461  07D8  2FDA               	goto	u601
  1462  07D9  2FDB               	goto	u600
  1463  07DA                     u601:	
  1464  07DA  2FA8               	goto	l1421
  1465  07DB                     u600:	
  1466  07DB  2F68               	goto	l1401
  1467  07DC  120A  118A  2800   	ljmp	start
  1468  07DF                     __end_of_main:	
  1469                           
  1470                           	psect	text1
  1471  02EB                     __ptext1:	
  1472 ;; *************** function _Initial_Configurations *****************
  1473 ;; Defined at:
  1474 ;;		line 13 in file "configurations.c"
  1475 ;; Parameters:    Size  Location     Type
  1476 ;;		None
  1477 ;; Auto vars:     Size  Location     Type
  1478 ;;		None
  1479 ;; Return value:  Size  Location     Type
  1480 ;;                  1    wreg      void 
  1481 ;; Registers used:
  1482 ;;		wreg, status,2
  1483 ;; Tracked objects:
  1484 ;;		On entry : 0/0
  1485 ;;		On exit  : 0/0
  1486 ;;		Unchanged: 0/0
  1487 ;; Data sizes:     COMMON   BANK0   BANK1   BANK3   BANK2
  1488 ;;      Params:         0       0       0       0       0
  1489 ;;      Locals:         0       0       0       0       0
  1490 ;;      Temps:          0       0       0       0       0
  1491 ;;      Totals:         0       0       0       0       0
  1492 ;;Total ram usage:        0 bytes
  1493 ;; Hardware stack levels used:    1
  1494 ;; This function calls:
  1495 ;;		Nothing
  1496 ;; This function is called by:
  1497 ;;		_main
  1498 ;; This function uses a non-reentrant model
  1499 ;;
  1500                           
  1501                           
  1502                           ;psect for function _Initial_Configurations
  1503  02EB                     _Initial_Configurations:	
  1504  02EB                     l1253:	
  1505                           ;incstack = 0
  1506                           ; Regs used in _Initial_Configurations: [wreg+status,2]
  1507                           
  1508                           
  1509                           ;configurations.c: 19:                 INTCONbits.PEIE = 0;
  1510  02EB  130B               	bcf	11,6	;volatile
  1511                           
  1512                           ;configurations.c: 20:                 INTCONbits.GIE = 0;
  1513  02EC  138B               	bcf	11,7	;volatile
  1514  02ED                     l1255:	
  1515                           
  1516                           ;configurations.c: 32:                 TRISA = 0x00;
  1517  02ED  1683               	bsf	3,5	;RP0=1, select bank1
  1518  02EE  1303               	bcf	3,6	;RP1=0, select bank1
  1519  02EF  0185               	clrf	5	;volatile
  1520                           
  1521                           ;configurations.c: 33:                 PORTA = 0x00;
  1522  02F0  1283               	bcf	3,5	;RP0=0, select bank0
  1523  02F1  1303               	bcf	3,6	;RP1=0, select bank0
  1524  02F2  0185               	clrf	5	;volatile
  1525  02F3                     l1257:	
  1526                           
  1527                           ;configurations.c: 35:                 TRISB = 0xFF;
  1528  02F3  30FF               	movlw	255
  1529  02F4  1683               	bsf	3,5	;RP0=1, select bank1
  1530  02F5  1303               	bcf	3,6	;RP1=0, select bank1
  1531  02F6  0086               	movwf	6	;volatile
  1532  02F7                     l1259:	
  1533                           
  1534                           ;configurations.c: 36:                 PORTB = 0x00;
  1535  02F7  1283               	bcf	3,5	;RP0=0, select bank0
  1536  02F8  1303               	bcf	3,6	;RP1=0, select bank0
  1537  02F9  0186               	clrf	6	;volatile
  1538                           
  1539                           ;configurations.c: 40:                 TRISD = 0xFF;
  1540  02FA  30FF               	movlw	255
  1541  02FB  1683               	bsf	3,5	;RP0=1, select bank1
  1542  02FC  1303               	bcf	3,6	;RP1=0, select bank1
  1543  02FD  0088               	movwf	8	;volatile
  1544  02FE                     l1261:	
  1545                           
  1546                           ;configurations.c: 41:                 PORTD = 0x00;
  1547  02FE  1283               	bcf	3,5	;RP0=0, select bank0
  1548  02FF  1303               	bcf	3,6	;RP1=0, select bank0
  1549  0300  0188               	clrf	8	;volatile
  1550  0301                     l97:	
  1551  0301  0008               	return
  1552  0302                     __end_of_Initial_Configurations:	
  1553                           
  1554                           	psect	text2
  1555  03D6                     __ptext2:	
  1556 ;; *************** function _I2C_Master_Initialize *****************
  1557 ;; Defined at:
  1558 ;;		line 13 in file "I2C.c"
  1559 ;; Parameters:    Size  Location     Type
  1560 ;;  I2C_BaudRate    4    0[BANK0 ] const unsigned long 
  1561 ;;  I2C_SMP_OnOf    1    4[BANK0 ] _Bool 
  1562 ;;  I2C_CKE_OnOf    1    5[BANK0 ] _Bool 
  1563 ;; Auto vars:     Size  Location     Type
  1564 ;;		None
  1565 ;; Return value:  Size  Location     Type
  1566 ;;                  1    wreg      void 
  1567 ;; Registers used:
  1568 ;;		wreg, status,2, status,0, pclath, cstack
  1569 ;; Tracked objects:
  1570 ;;		On entry : 0/0
  1571 ;;		On exit  : 0/0
  1572 ;;		Unchanged: 0/0
  1573 ;; Data sizes:     COMMON   BANK0   BANK1   BANK3   BANK2
  1574 ;;      Params:         0       6       0       0       0
  1575 ;;      Locals:         0       0       0       0       0
  1576 ;;      Temps:          0       4       0       0       0
  1577 ;;      Totals:         0      10       0       0       0
  1578 ;;Total ram usage:       10 bytes
  1579 ;; Hardware stack levels used:    1
  1580 ;; Hardware stack levels required when called:    1
  1581 ;; This function calls:
  1582 ;;		___lldiv
  1583 ;; This function is called by:
  1584 ;;		_main
  1585 ;; This function uses a non-reentrant model
  1586 ;;
  1587                           
  1588                           
  1589                           ;psect for function _I2C_Master_Initialize
  1590  03D6                     _I2C_Master_Initialize:	
  1591  03D6                     l1241:	
  1592                           ;incstack = 0
  1593                           ; Regs used in _I2C_Master_Initialize: [wreg+status,2+status,0+pclath+cstack]
  1594                           
  1595                           
  1596                           ;I2C.c: 14:         SSPSTAT = (I2C_SMP_OnOff<<7)|(I2C_CKE_OnOff<<6);
  1597  03D6  1283               	bcf	3,5	;RP0=0, select bank0
  1598  03D7  1303               	bcf	3,6	;RP1=0, select bank0
  1599  03D8  0825               	movf	I2C_Master_Initialize@I2C_CKE_OnOff,w
  1600  03D9  00A6               	movwf	??_I2C_Master_Initialize
  1601  03DA  3006               	movlw	6
  1602  03DB                     u535:	
  1603  03DB  1003               	clrc
  1604  03DC  0DA6               	rlf	??_I2C_Master_Initialize,f
  1605  03DD  3EFF               	addlw	-1
  1606  03DE  1D03               	skipz
  1607  03DF  2BDB               	goto	u535
  1608  03E0  0824               	movf	I2C_Master_Initialize@I2C_SMP_OnOff,w
  1609  03E1  00A7               	movwf	??_I2C_Master_Initialize+1
  1610  03E2  3006               	movlw	6
  1611  03E3                     u545:	
  1612  03E3  1003               	clrc
  1613  03E4  0DA7               	rlf	??_I2C_Master_Initialize+1,f
  1614  03E5  3EFF               	addlw	-1
  1615  03E6  1D03               	skipz
  1616  03E7  2BE3               	goto	u545
  1617  03E8  1003               	clrc
  1618  03E9  0D27               	rlf	??_I2C_Master_Initialize+1,w
  1619  03EA  0426               	iorwf	??_I2C_Master_Initialize,w
  1620  03EB  1683               	bsf	3,5	;RP0=1, select bank1
  1621  03EC  1303               	bcf	3,6	;RP1=0, select bank1
  1622  03ED  0094               	movwf	20	;volatile
  1623  03EE                     l1243:	
  1624                           
  1625                           ;I2C.c: 15:         SSPCON = 0b00101000;
  1626  03EE  3028               	movlw	40
  1627  03EF  1283               	bcf	3,5	;RP0=0, select bank0
  1628  03F0  1303               	bcf	3,6	;RP1=0, select bank0
  1629  03F1  0094               	movwf	20	;volatile
  1630  03F2                     l1245:	
  1631                           
  1632                           ;I2C.c: 16:         SSPCON2 = 0x00;
  1633  03F2  1683               	bsf	3,5	;RP0=1, select bank1
  1634  03F3  1303               	bcf	3,6	;RP1=0, select bank1
  1635  03F4  0191               	clrf	17	;volatile
  1636  03F5                     l1247:	
  1637                           
  1638                           ;I2C.c: 17:         SSPADD = (20000000UL/(4*I2C_BaudRate)) - 1;
  1639  03F5  1283               	bcf	3,5	;RP0=0, select bank0
  1640  03F6  1303               	bcf	3,6	;RP1=0, select bank0
  1641  03F7  0820               	movf	I2C_Master_Initialize@I2C_BaudRate,w
  1642  03F8  00A6               	movwf	??_I2C_Master_Initialize
  1643  03F9  0821               	movf	I2C_Master_Initialize@I2C_BaudRate+1,w
  1644  03FA  00A7               	movwf	??_I2C_Master_Initialize+1
  1645  03FB  0822               	movf	I2C_Master_Initialize@I2C_BaudRate+2,w
  1646  03FC  00A8               	movwf	??_I2C_Master_Initialize+2
  1647  03FD  0823               	movf	I2C_Master_Initialize@I2C_BaudRate+3,w
  1648  03FE  00A9               	movwf	??_I2C_Master_Initialize+3
  1649  03FF  3002               	movlw	2
  1650  0400                     u555:	
  1651  0400  1003               	clrc
  1652  0401  0DA6               	rlf	??_I2C_Master_Initialize,f
  1653  0402  0DA7               	rlf	??_I2C_Master_Initialize+1,f
  1654  0403  0DA8               	rlf	??_I2C_Master_Initialize+2,f
  1655  0404  0DA9               	rlf	??_I2C_Master_Initialize+3,f
  1656  0405                     u550:	
  1657  0405  3EFF               	addlw	-1
  1658  0406  1D03               	skipz
  1659  0407  2C00               	goto	u555
  1660  0408  0829               	movf	??_I2C_Master_Initialize+3,w
  1661  0409  00F3               	movwf	___lldiv@divisor+3
  1662  040A  0828               	movf	??_I2C_Master_Initialize+2,w
  1663  040B  00F2               	movwf	___lldiv@divisor+2
  1664  040C  0827               	movf	??_I2C_Master_Initialize+1,w
  1665  040D  00F1               	movwf	___lldiv@divisor+1
  1666  040E  0826               	movf	??_I2C_Master_Initialize,w
  1667  040F  00F0               	movwf	___lldiv@divisor
  1668  0410  3001               	movlw	1
  1669  0411  00F7               	movwf	___lldiv@dividend+3
  1670  0412  3031               	movlw	49
  1671  0413  00F6               	movwf	___lldiv@dividend+2
  1672  0414  302D               	movlw	45
  1673  0415  00F5               	movwf	___lldiv@dividend+1
  1674  0416  3000               	movlw	0
  1675  0417  00F4               	movwf	___lldiv@dividend
  1676  0418  120A  118A  24DC  120A  118A  	fcall	___lldiv
  1677  041D  0870               	movf	?___lldiv,w
  1678  041E  3EFF               	addlw	255
  1679  041F  1683               	bsf	3,5	;RP0=1, select bank1
  1680  0420  1303               	bcf	3,6	;RP1=0, select bank1
  1681  0421  0093               	movwf	19	;volatile
  1682  0422                     l1249:	
  1683                           
  1684                           ;I2C.c: 18:         TRISCbits.TRISC3 = 1;
  1685  0422  1587               	bsf	7,3	;volatile
  1686  0423                     l1251:	
  1687                           
  1688                           ;I2C.c: 19:         TRISCbits.TRISC4 = 1;
  1689  0423  1607               	bsf	7,4	;volatile
  1690  0424                     l25:	
  1691  0424  0008               	return
  1692  0425                     __end_of_I2C_Master_Initialize:	
  1693                           
  1694                           	psect	text3
  1695  04DC                     __ptext3:	
  1696 ;; *************** function ___lldiv *****************
  1697 ;; Defined at:
  1698 ;;		line 5 in file "C:\Program Files (x86)\Microchip\xc8\v2.10\pic\sources\c90\common\__lldiv.c"
  1699 ;; Parameters:    Size  Location     Type
  1700 ;;  divisor         4    0[COMMON] unsigned long 
  1701 ;;  dividend        4    4[COMMON] unsigned long 
  1702 ;; Auto vars:     Size  Location     Type
  1703 ;;  quotient        4    9[COMMON] unsigned long 
  1704 ;;  counter         1   13[COMMON] unsigned char 
  1705 ;; Return value:  Size  Location     Type
  1706 ;;                  4    0[COMMON] unsigned long 
  1707 ;; Registers used:
  1708 ;;		wreg, status,2, status,0
  1709 ;; Tracked objects:
  1710 ;;		On entry : 0/0
  1711 ;;		On exit  : 0/0
  1712 ;;		Unchanged: 0/0
  1713 ;; Data sizes:     COMMON   BANK0   BANK1   BANK3   BANK2
  1714 ;;      Params:         8       0       0       0       0
  1715 ;;      Locals:         5       0       0       0       0
  1716 ;;      Temps:          1       0       0       0       0
  1717 ;;      Totals:        14       0       0       0       0
  1718 ;;Total ram usage:       14 bytes
  1719 ;; Hardware stack levels used:    1
  1720 ;; This function calls:
  1721 ;;		Nothing
  1722 ;; This function is called by:
  1723 ;;		_I2C_Master_Initialize
  1724 ;; This function uses a non-reentrant model
  1725 ;;
  1726                           
  1727                           
  1728                           ;psect for function ___lldiv
  1729  04DC                     ___lldiv:	
  1730  04DC                     l1217:	
  1731                           ;incstack = 0
  1732                           ; Regs used in ___lldiv: [wreg+status,2+status,0]
  1733                           
  1734  04DC  3000               	movlw	0
  1735  04DD  00FC               	movwf	___lldiv@quotient+3
  1736  04DE  3000               	movlw	0
  1737  04DF  00FB               	movwf	___lldiv@quotient+2
  1738  04E0  3000               	movlw	0
  1739  04E1  00FA               	movwf	___lldiv@quotient+1
  1740  04E2  3000               	movlw	0
  1741  04E3  00F9               	movwf	___lldiv@quotient
  1742  04E4  0873               	movf	___lldiv@divisor+3,w
  1743  04E5  0472               	iorwf	___lldiv@divisor+2,w
  1744  04E6  0471               	iorwf	___lldiv@divisor+1,w
  1745  04E7  0470               	iorwf	___lldiv@divisor,w
  1746  04E8  1903               	skipnz
  1747  04E9  2CEB               	goto	u461
  1748  04EA  2CEC               	goto	u460
  1749  04EB                     u461:	
  1750  04EB  2D39               	goto	l1237
  1751  04EC                     u460:	
  1752  04EC                     l1219:	
  1753  04EC  01FD               	clrf	___lldiv@counter
  1754  04ED  0AFD               	incf	___lldiv@counter,f
  1755  04EE  2CFC               	goto	l1223
  1756  04EF                     l1221:	
  1757  04EF  3001               	movlw	1
  1758  04F0  00F8               	movwf	??___lldiv
  1759  04F1                     u475:	
  1760  04F1  1003               	clrc
  1761  04F2  0DF0               	rlf	___lldiv@divisor,f
  1762  04F3  0DF1               	rlf	___lldiv@divisor+1,f
  1763  04F4  0DF2               	rlf	___lldiv@divisor+2,f
  1764  04F5  0DF3               	rlf	___lldiv@divisor+3,f
  1765  04F6  0BF8               	decfsz	??___lldiv,f
  1766  04F7  2CF1               	goto	u475
  1767  04F8  3001               	movlw	1
  1768  04F9  00F8               	movwf	??___lldiv
  1769  04FA  0878               	movf	??___lldiv,w
  1770  04FB  07FD               	addwf	___lldiv@counter,f
  1771  04FC                     l1223:	
  1772  04FC  1FF3               	btfss	___lldiv@divisor+3,7
  1773  04FD  2CFF               	goto	u481
  1774  04FE  2D00               	goto	u480
  1775  04FF                     u481:	
  1776  04FF  2CEF               	goto	l1221
  1777  0500                     u480:	
  1778  0500                     l1225:	
  1779  0500  3001               	movlw	1
  1780  0501  00F8               	movwf	??___lldiv
  1781  0502                     u495:	
  1782  0502  1003               	clrc
  1783  0503  0DF9               	rlf	___lldiv@quotient,f
  1784  0504  0DFA               	rlf	___lldiv@quotient+1,f
  1785  0505  0DFB               	rlf	___lldiv@quotient+2,f
  1786  0506  0DFC               	rlf	___lldiv@quotient+3,f
  1787  0507  0BF8               	decfsz	??___lldiv,f
  1788  0508  2D02               	goto	u495
  1789  0509                     l1227:	
  1790  0509  0873               	movf	___lldiv@divisor+3,w
  1791  050A  0277               	subwf	___lldiv@dividend+3,w
  1792  050B  1D03               	skipz
  1793  050C  2D17               	goto	u505
  1794  050D  0872               	movf	___lldiv@divisor+2,w
  1795  050E  0276               	subwf	___lldiv@dividend+2,w
  1796  050F  1D03               	skipz
  1797  0510  2D17               	goto	u505
  1798  0511  0871               	movf	___lldiv@divisor+1,w
  1799  0512  0275               	subwf	___lldiv@dividend+1,w
  1800  0513  1D03               	skipz
  1801  0514  2D17               	goto	u505
  1802  0515  0870               	movf	___lldiv@divisor,w
  1803  0516  0274               	subwf	___lldiv@dividend,w
  1804  0517                     u505:	
  1805  0517  1C03               	skipc
  1806  0518  2D1A               	goto	u501
  1807  0519  2D1B               	goto	u500
  1808  051A                     u501:	
  1809  051A  2D2A               	goto	l1233
  1810  051B                     u500:	
  1811  051B                     l1229:	
  1812  051B  0870               	movf	___lldiv@divisor,w
  1813  051C  02F4               	subwf	___lldiv@dividend,f
  1814  051D  0871               	movf	___lldiv@divisor+1,w
  1815  051E  1C03               	skipc
  1816  051F  0F71               	incfsz	___lldiv@divisor+1,w
  1817  0520  02F5               	subwf	___lldiv@dividend+1,f
  1818  0521  0872               	movf	___lldiv@divisor+2,w
  1819  0522  1C03               	skipc
  1820  0523  0F72               	incfsz	___lldiv@divisor+2,w
  1821  0524  02F6               	subwf	___lldiv@dividend+2,f
  1822  0525  0873               	movf	___lldiv@divisor+3,w
  1823  0526  1C03               	skipc
  1824  0527  0F73               	incfsz	___lldiv@divisor+3,w
  1825  0528  02F7               	subwf	___lldiv@dividend+3,f
  1826  0529                     l1231:	
  1827  0529  1479               	bsf	___lldiv@quotient,0
  1828  052A                     l1233:	
  1829  052A  3001               	movlw	1
  1830  052B                     u515:	
  1831  052B  1003               	clrc
  1832  052C  0CF3               	rrf	___lldiv@divisor+3,f
  1833  052D  0CF2               	rrf	___lldiv@divisor+2,f
  1834  052E  0CF1               	rrf	___lldiv@divisor+1,f
  1835  052F  0CF0               	rrf	___lldiv@divisor,f
  1836  0530  3EFF               	addlw	-1
  1837  0531  1D03               	skipz
  1838  0532  2D2B               	goto	u515
  1839  0533                     l1235:	
  1840  0533  3001               	movlw	1
  1841  0534  02FD               	subwf	___lldiv@counter,f
  1842  0535  1D03               	btfss	3,2
  1843  0536  2D38               	goto	u521
  1844  0537  2D39               	goto	u520
  1845  0538                     u521:	
  1846  0538  2D00               	goto	l1225
  1847  0539                     u520:	
  1848  0539                     l1237:	
  1849  0539  087C               	movf	___lldiv@quotient+3,w
  1850  053A  00F3               	movwf	?___lldiv+3
  1851  053B  087B               	movf	___lldiv@quotient+2,w
  1852  053C  00F2               	movwf	?___lldiv+2
  1853  053D  087A               	movf	___lldiv@quotient+1,w
  1854  053E  00F1               	movwf	?___lldiv+1
  1855  053F  0879               	movf	___lldiv@quotient,w
  1856  0540  00F0               	movwf	?___lldiv
  1857  0541                     l343:	
  1858  0541  0008               	return
  1859  0542                     __end_of___lldiv:	
  1860                           
  1861                           	psect	text4
  1862  038E                     __ptext4:	
  1863 ;; *************** function _I2C_LCD_write_string *****************
  1864 ;; Defined at:
  1865 ;;		line 41 in file "I2C_LCD_v2.0.c"
  1866 ;; Parameters:    Size  Location     Type
  1867 ;;  LCD_Obj         2    2[BANK0 ] struct I2C_LCD
  1868 ;;  str             1    4[BANK0 ] PTR unsigned char 
  1869 ;;		 -> STR_5(6), STR_4(6), STR_3(11), STR_2(5), 
  1870 ;;		 -> STR_1(5), 
  1871 ;; Auto vars:     Size  Location     Type
  1872 ;;  i               1    5[BANK0 ] unsigned char 
  1873 ;; Return value:  Size  Location     Type
  1874 ;;                  1    wreg      void 
  1875 ;; Registers used:
  1876 ;;		wreg, fsr0l, fsr0h, status,2, status,0, pclath, cstack
  1877 ;; Tracked objects:
  1878 ;;		On entry : 0/0
  1879 ;;		On exit  : 0/0
  1880 ;;		Unchanged: 0/0
  1881 ;; Data sizes:     COMMON   BANK0   BANK1   BANK3   BANK2
  1882 ;;      Params:         0       3       0       0       0
  1883 ;;      Locals:         0       1       0       0       0
  1884 ;;      Temps:          1       0       0       0       0
  1885 ;;      Totals:         1       4       0       0       0
  1886 ;;Total ram usage:        5 bytes
  1887 ;; Hardware stack levels used:    1
  1888 ;; Hardware stack levels required when called:    5
  1889 ;; This function calls:
  1890 ;;		_I2C_LCD_write_char
  1891 ;;		_LCD_send_commad
  1892 ;; This function is called by:
  1893 ;;		_main
  1894 ;; This function uses a non-reentrant model
  1895 ;;
  1896                           
  1897                           
  1898                           ;psect for function _I2C_LCD_write_string
  1899  038E                     _I2C_LCD_write_string:	
  1900  038E                     l1263:	
  1901                           ;incstack = 0
  1902                           ; Regs used in _I2C_LCD_write_string: [wreg-fsr0h+status,2+status,0+pclath+cstack]
  1903                           
  1904                           
  1905                           ;I2C_LCD_v2.0.c: 42:         uint8_t i;;I2C_LCD_v2.0.c: 43:         for(i=0;str[i]!='\0'
      +                          ;i++){
  1906  038E  1283               	bcf	3,5	;RP0=0, select bank0
  1907  038F  1303               	bcf	3,6	;RP1=0, select bank0
  1908  0390  01A5               	clrf	I2C_LCD_write_string@i
  1909  0391  2BC8               	goto	l1273
  1910  0392                     l1265:	
  1911                           
  1912                           ;I2C_LCD_v2.0.c: 44:             if(str[i]=='\n') p_LCD_send_commad(LCD_Obj, (0xC0 - 1))
      +                          ;
  1913  0392  0825               	movf	I2C_LCD_write_string@i,w
  1914  0393  0724               	addwf	I2C_LCD_write_string@str,w
  1915  0394  0084               	movwf	4
  1916  0395  120A  118A  2012  120A  118A  	fcall	stringdir
  1917  039A  3A0A               	xorlw	10
  1918  039B  1D03               	skipz
  1919  039C  2B9E               	goto	u561
  1920  039D  2B9F               	goto	u560
  1921  039E                     u561:	
  1922  039E  2BAC               	goto	l1269
  1923  039F                     u560:	
  1924  039F                     l1267:	
  1925  039F  0823               	movf	I2C_LCD_write_string@LCD_Obj+1,w
  1926  03A0  00FB               	movwf	LCD_send_commad@LCD_Obj+1
  1927  03A1  0822               	movf	I2C_LCD_write_string@LCD_Obj,w
  1928  03A2  00FA               	movwf	LCD_send_commad@LCD_Obj
  1929  03A3  30BF               	movlw	191
  1930  03A4  00FD               	movwf	??_I2C_LCD_write_string
  1931  03A5  087D               	movf	??_I2C_LCD_write_string,w
  1932  03A6  00FC               	movwf	LCD_send_commad@cmd
  1933  03A7  120A  118A  22A9  120A  118A  	fcall	_LCD_send_commad
  1934  03AC                     l1269:	
  1935                           
  1936                           ;I2C_LCD_v2.0.c: 45:             I2C_LCD_write_char(LCD_Obj, str[i]);
  1937  03AC  1283               	bcf	3,5	;RP0=0, select bank0
  1938  03AD  1303               	bcf	3,6	;RP1=0, select bank0
  1939  03AE  0823               	movf	I2C_LCD_write_string@LCD_Obj+1,w
  1940  03AF  00FB               	movwf	I2C_LCD_write_char@LCD_Obj+1
  1941  03B0  0822               	movf	I2C_LCD_write_string@LCD_Obj,w
  1942  03B1  00FA               	movwf	I2C_LCD_write_char@LCD_Obj
  1943  03B2  0825               	movf	I2C_LCD_write_string@i,w
  1944  03B3  0724               	addwf	I2C_LCD_write_string@str,w
  1945  03B4  0084               	movwf	4
  1946  03B5  120A  118A  2012  120A  118A  	fcall	stringdir
  1947  03BA  00FD               	movwf	??_I2C_LCD_write_string
  1948  03BB  087D               	movf	??_I2C_LCD_write_string,w
  1949  03BC  00FC               	movwf	I2C_LCD_write_char@chr
  1950  03BD  120A  118A  22BE  120A  118A  	fcall	_I2C_LCD_write_char
  1951  03C2                     l1271:	
  1952                           
  1953                           ;I2C_LCD_v2.0.c: 46:         }
  1954  03C2  3001               	movlw	1
  1955  03C3  00FD               	movwf	??_I2C_LCD_write_string
  1956  03C4  087D               	movf	??_I2C_LCD_write_string,w
  1957  03C5  1283               	bcf	3,5	;RP0=0, select bank0
  1958  03C6  1303               	bcf	3,6	;RP1=0, select bank0
  1959  03C7  07A5               	addwf	I2C_LCD_write_string@i,f
  1960  03C8                     l1273:	
  1961  03C8  0825               	movf	I2C_LCD_write_string@i,w
  1962  03C9  0724               	addwf	I2C_LCD_write_string@str,w
  1963  03CA  0084               	movwf	4
  1964  03CB  120A  118A  2012  120A  118A  	fcall	stringdir
  1965  03D0  3A00               	xorlw	0
  1966  03D1  1D03               	skipz
  1967  03D2  2BD4               	goto	u571
  1968  03D3  2BD5               	goto	u570
  1969  03D4                     u571:	
  1970  03D4  2B92               	goto	l1265
  1971  03D5                     u570:	
  1972  03D5                     l146:	
  1973  03D5  0008               	return
  1974  03D6                     __end_of_I2C_LCD_write_string:	
  1975                           
  1976                           	psect	text5
  1977  02BE                     __ptext5:	
  1978 ;; *************** function _I2C_LCD_write_char *****************
  1979 ;; Defined at:
  1980 ;;		line 36 in file "I2C_LCD_v2.0.c"
  1981 ;; Parameters:    Size  Location     Type
  1982 ;;  LCD_Obj         2   10[COMMON] struct I2C_LCD
  1983 ;;  chr             1   12[COMMON] unsigned char 
  1984 ;; Auto vars:     Size  Location     Type
  1985 ;;		None
  1986 ;; Return value:  Size  Location     Type
  1987 ;;                  1    wreg      void 
  1988 ;; Registers used:
  1989 ;;		wreg, status,2, status,0, pclath, cstack
  1990 ;; Tracked objects:
  1991 ;;		On entry : 0/0
  1992 ;;		On exit  : 0/0
  1993 ;;		Unchanged: 0/0
  1994 ;; Data sizes:     COMMON   BANK0   BANK1   BANK3   BANK2
  1995 ;;      Params:         3       0       0       0       0
  1996 ;;      Locals:         0       0       0       0       0
  1997 ;;      Temps:          0       2       0       0       0
  1998 ;;      Totals:         3       2       0       0       0
  1999 ;;Total ram usage:        5 bytes
  2000 ;; Hardware stack levels used:    1
  2001 ;; Hardware stack levels required when called:    4
  2002 ;; This function calls:
  2003 ;;		_LCD_data_sender
  2004 ;; This function is called by:
  2005 ;;		_I2C_LCD_write_string
  2006 ;;		_main
  2007 ;; This function uses a non-reentrant model
  2008 ;;
  2009                           
  2010                           
  2011                           ;psect for function _I2C_LCD_write_char
  2012  02BE                     _I2C_LCD_write_char:	
  2013  02BE                     l1205:	
  2014                           ;incstack = 0
  2015                           ; Regs used in _I2C_LCD_write_char: [wreg+status,2+status,0+pclath+cstack]
  2016                           
  2017                           
  2018                           ;I2C_LCD_v2.0.c: 37:         Lcd_RS_State = 0x01;
  2019  02BE  1283               	bcf	3,5	;RP0=0, select bank0
  2020  02BF  1303               	bcf	3,6	;RP1=0, select bank0
  2021  02C0  01B5               	clrf	_Lcd_RS_State
  2022  02C1  0AB5               	incf	_Lcd_RS_State,f
  2023  02C2                     l1207:	
  2024                           
  2025                           ;I2C_LCD_v2.0.c: 38:         p_LCD_data_sender(LCD_Obj, chr, p_I2C_IO_Expander_Writer);
  2026  02C2  087B               	movf	I2C_LCD_write_char@LCD_Obj+1,w
  2027  02C3  00F4               	movwf	LCD_data_sender@LCD_Obj+1
  2028  02C4  087A               	movf	I2C_LCD_write_char@LCD_Obj,w
  2029  02C5  00F3               	movwf	LCD_data_sender@LCD_Obj
  2030  02C6  087C               	movf	I2C_LCD_write_char@chr,w
  2031  02C7  00A0               	movwf	??_I2C_LCD_write_char
  2032  02C8  0820               	movf	??_I2C_LCD_write_char,w
  2033  02C9  00F5               	movwf	LCD_data_sender@data
  2034  02CA  3001               	movlw	(low (fp__I2C_IO_Expander_Writer-fpbase))& (0+255)
  2035  02CB  00A1               	movwf	??_I2C_LCD_write_char+1
  2036  02CC  0821               	movf	??_I2C_LCD_write_char+1,w
  2037  02CD  00F6               	movwf	LCD_data_sender@callback_function
  2038  02CE  120A  118A  247B  120A  118A  	fcall	_LCD_data_sender
  2039  02D3                     l139:	
  2040  02D3  0008               	return
  2041  02D4                     __end_of_I2C_LCD_write_char:	
  2042                           
  2043                           	psect	text6
  2044  0425                     __ptext6:	
  2045 ;; *************** function _I2C_LCD_set_cursor *****************
  2046 ;; Defined at:
  2047 ;;		line 86 in file "I2C_LCD_v2.0.c"
  2048 ;; Parameters:    Size  Location     Type
  2049 ;;  LCD_Obj         2    2[BANK0 ] struct I2C_LCD
  2050 ;;  row             1    4[BANK0 ] unsigned char 
  2051 ;;  colomn          1    5[BANK0 ] unsigned char 
  2052 ;; Auto vars:     Size  Location     Type
  2053 ;;		None
  2054 ;; Return value:  Size  Location     Type
  2055 ;;                  1    wreg      void 
  2056 ;; Registers used:
  2057 ;;		wreg, fsr0l, fsr0h, status,2, status,0, pclath, cstack
  2058 ;; Tracked objects:
  2059 ;;		On entry : 0/0
  2060 ;;		On exit  : 0/0
  2061 ;;		Unchanged: 0/0
  2062 ;; Data sizes:     COMMON   BANK0   BANK1   BANK3   BANK2
  2063 ;;      Params:         0       4       0       0       0
  2064 ;;      Locals:         0       0       0       0       0
  2065 ;;      Temps:          0       2       0       0       0
  2066 ;;      Totals:         0       6       0       0       0
  2067 ;;Total ram usage:        6 bytes
  2068 ;; Hardware stack levels used:    1
  2069 ;; Hardware stack levels required when called:    5
  2070 ;; This function calls:
  2071 ;;		_LCD_send_commad
  2072 ;; This function is called by:
  2073 ;;		_main
  2074 ;; This function uses a non-reentrant model
  2075 ;;
  2076                           
  2077                           
  2078                           ;psect for function _I2C_LCD_set_cursor
  2079  0425                     _I2C_LCD_set_cursor:	
  2080  0425                     l1297:	
  2081                           ;incstack = 0
  2082                           ; Regs used in _I2C_LCD_set_cursor: [wreg-fsr0h+status,2+status,0+pclath+cstack]
  2083                           
  2084                           
  2085                           ;I2C_LCD_v2.0.c: 87:         switch(row){
  2086  0425  2C62               	goto	l1309
  2087  0426                     l1299:	
  2088                           
  2089                           ;I2C_LCD_v2.0.c: 89:                 p_LCD_send_commad(LCD_Obj, 0x80 + colomn-1); break;
  2090  0426  0823               	movf	I2C_LCD_set_cursor@LCD_Obj+1,w
  2091  0427  00FB               	movwf	LCD_send_commad@LCD_Obj+1
  2092  0428  0822               	movf	I2C_LCD_set_cursor@LCD_Obj,w
  2093  0429  00FA               	movwf	LCD_send_commad@LCD_Obj
  2094  042A  0825               	movf	I2C_LCD_set_cursor@colomn,w
  2095  042B  3E7F               	addlw	127
  2096  042C  00A6               	movwf	??_I2C_LCD_set_cursor
  2097  042D  0826               	movf	??_I2C_LCD_set_cursor,w
  2098  042E  00FC               	movwf	LCD_send_commad@cmd
  2099  042F  120A  118A  22A9  120A  118A  	fcall	_LCD_send_commad
  2100  0434  2C7A               	goto	l173
  2101  0435                     l1301:	
  2102                           
  2103                           ;I2C_LCD_v2.0.c: 91:                 p_LCD_send_commad(LCD_Obj, 0xC0 + colomn-1); break;
  2104  0435  0823               	movf	I2C_LCD_set_cursor@LCD_Obj+1,w
  2105  0436  00FB               	movwf	LCD_send_commad@LCD_Obj+1
  2106  0437  0822               	movf	I2C_LCD_set_cursor@LCD_Obj,w
  2107  0438  00FA               	movwf	LCD_send_commad@LCD_Obj
  2108  0439  0825               	movf	I2C_LCD_set_cursor@colomn,w
  2109  043A  3EBF               	addlw	191
  2110  043B  00A6               	movwf	??_I2C_LCD_set_cursor
  2111  043C  0826               	movf	??_I2C_LCD_set_cursor,w
  2112  043D  00FC               	movwf	LCD_send_commad@cmd
  2113  043E  120A  118A  22A9  120A  118A  	fcall	_LCD_send_commad
  2114  0443  2C7A               	goto	l173
  2115  0444                     l1303:	
  2116                           
  2117                           ;I2C_LCD_v2.0.c: 93:                 p_LCD_send_commad(LCD_Obj, 0x94 + colomn-1); break;
  2118  0444  0823               	movf	I2C_LCD_set_cursor@LCD_Obj+1,w
  2119  0445  00FB               	movwf	LCD_send_commad@LCD_Obj+1
  2120  0446  0822               	movf	I2C_LCD_set_cursor@LCD_Obj,w
  2121  0447  00FA               	movwf	LCD_send_commad@LCD_Obj
  2122  0448  0825               	movf	I2C_LCD_set_cursor@colomn,w
  2123  0449  3E93               	addlw	147
  2124  044A  00A6               	movwf	??_I2C_LCD_set_cursor
  2125  044B  0826               	movf	??_I2C_LCD_set_cursor,w
  2126  044C  00FC               	movwf	LCD_send_commad@cmd
  2127  044D  120A  118A  22A9  120A  118A  	fcall	_LCD_send_commad
  2128  0452  2C7A               	goto	l173
  2129  0453                     l1305:	
  2130                           
  2131                           ;I2C_LCD_v2.0.c: 95:                 p_LCD_send_commad(LCD_Obj, 0xD4 + colomn-1); break;
  2132  0453  0823               	movf	I2C_LCD_set_cursor@LCD_Obj+1,w
  2133  0454  00FB               	movwf	LCD_send_commad@LCD_Obj+1
  2134  0455  0822               	movf	I2C_LCD_set_cursor@LCD_Obj,w
  2135  0456  00FA               	movwf	LCD_send_commad@LCD_Obj
  2136  0457  0825               	movf	I2C_LCD_set_cursor@colomn,w
  2137  0458  3ED3               	addlw	211
  2138  0459  00A6               	movwf	??_I2C_LCD_set_cursor
  2139  045A  0826               	movf	??_I2C_LCD_set_cursor,w
  2140  045B  00FC               	movwf	LCD_send_commad@cmd
  2141  045C  120A  118A  22A9  120A  118A  	fcall	_LCD_send_commad
  2142  0461  2C7A               	goto	l173
  2143  0462                     l1309:	
  2144  0462  1283               	bcf	3,5	;RP0=0, select bank0
  2145  0463  1303               	bcf	3,6	;RP1=0, select bank0
  2146  0464  0824               	movf	I2C_LCD_set_cursor@row,w
  2147  0465  00A6               	movwf	??_I2C_LCD_set_cursor
  2148  0466  01A7               	clrf	??_I2C_LCD_set_cursor+1
  2149                           
  2150                           ; Switch on 2 bytes has been partitioned into a top level switch of size 1, and 1 sub-sw
      +                          itches
  2151                           ; Switch size 1, requested type "simple"
  2152                           ; Number of cases is 1, Range of values is 0 to 0
  2153                           ; switch strategies available:
  2154                           ; Name         Instructions Cycles
  2155                           ; simple_byte            4     3 (average)
  2156                           ; direct_byte           11     8 (fixed)
  2157                           ; jumptable            260     6 (fixed)
  2158                           ;	Chosen strategy is simple_byte
  2159  0467  0827               	movf	??_I2C_LCD_set_cursor+1,w
  2160  0468  3A00               	xorlw	0	; case 0
  2161  0469  1903               	skipnz
  2162  046A  2C6C               	goto	l1449
  2163  046B  2C7A               	goto	l173
  2164  046C                     l1449:	
  2165                           
  2166                           ; Switch size 1, requested type "simple"
  2167                           ; Number of cases is 4, Range of values is 1 to 4
  2168                           ; switch strategies available:
  2169                           ; Name         Instructions Cycles
  2170                           ; simple_byte           13     7 (average)
  2171                           ; direct_byte           23    11 (fixed)
  2172                           ; jumptable            263     9 (fixed)
  2173                           ;	Chosen strategy is simple_byte
  2174  046C  0826               	movf	??_I2C_LCD_set_cursor,w
  2175  046D  3A01               	xorlw	1	; case 1
  2176  046E  1903               	skipnz
  2177  046F  2C26               	goto	l1299
  2178  0470  3A03               	xorlw	3	; case 2
  2179  0471  1903               	skipnz
  2180  0472  2C35               	goto	l1301
  2181  0473  3A01               	xorlw	1	; case 3
  2182  0474  1903               	skipnz
  2183  0475  2C44               	goto	l1303
  2184  0476  3A07               	xorlw	7	; case 4
  2185  0477  1903               	skipnz
  2186  0478  2C53               	goto	l1305
  2187  0479  2C7A               	goto	l173
  2188  047A                     l173:	
  2189  047A  0008               	return
  2190  047B                     __end_of_I2C_LCD_set_cursor:	
  2191                           
  2192                           	psect	text7
  2193  0542                     __ptext7:	
  2194 ;; *************** function _I2C_LCD_init *****************
  2195 ;; Defined at:
  2196 ;;		line 74 in file "I2C_LCD_v2.0.c"
  2197 ;; Parameters:    Size  Location     Type
  2198 ;;  LCD_Obj_Add     1    wreg     PTR struct I2C_LCD
  2199 ;;		 -> LCD2(2), LCD1(2), 
  2200 ;;  I2C_LCD_Addr    1    9[BANK0 ] unsigned char 
  2201 ;;  N               1   10[BANK0 ] unsigned char 
  2202 ;;  F               1   11[BANK0 ] unsigned char 
  2203 ;; Auto vars:     Size  Location     Type
  2204 ;;  LCD_Obj_Add     1   13[COMMON] PTR struct I2C_LCD
  2205 ;;		 -> LCD2(2), LCD1(2), 
  2206 ;; Return value:  Size  Location     Type
  2207 ;;                  1    wreg      void 
  2208 ;; Registers used:
  2209 ;;		wreg, fsr0l, fsr0h, status,2, status,0, pclath, cstack
  2210 ;; Tracked objects:
  2211 ;;		On entry : 0/0
  2212 ;;		On exit  : 0/0
  2213 ;;		Unchanged: 0/0
  2214 ;; Data sizes:     COMMON   BANK0   BANK1   BANK3   BANK2
  2215 ;;      Params:         0       3       0       0       0
  2216 ;;      Locals:         1       0       0       0       0
  2217 ;;      Temps:          0       2       0       0       0
  2218 ;;      Totals:         1       5       0       0       0
  2219 ;;Total ram usage:        6 bytes
  2220 ;; Hardware stack levels used:    1
  2221 ;; Hardware stack levels required when called:    6
  2222 ;; This function calls:
  2223 ;;		_I2C_LCD_display_on_off_control
  2224 ;;		_I2C_LCD_entry_mode
  2225 ;;		_LCD_send_commad
  2226 ;; This function is called by:
  2227 ;;		_main
  2228 ;; This function uses a non-reentrant model
  2229 ;;
  2230                           
  2231                           
  2232                           ;psect for function _I2C_LCD_init
  2233  0542                     _I2C_LCD_init:	
  2234                           
  2235                           ;incstack = 0
  2236                           ; Regs used in _I2C_LCD_init: [wreg-fsr0h+status,2+status,0+pclath+cstack]
  2237                           ;I2C_LCD_init@LCD_Obj_Add stored from wreg
  2238  0542  00FD               	movwf	I2C_LCD_init@LCD_Obj_Add
  2239  0543                     l1283:	
  2240                           
  2241                           ;I2C_LCD_v2.0.c: 75:         LCD_Obj_Add->Address = I2C_LCD_Address;
  2242  0543  1283               	bcf	3,5	;RP0=0, select bank0
  2243  0544  1303               	bcf	3,6	;RP1=0, select bank0
  2244  0545  0829               	movf	I2C_LCD_init@I2C_LCD_Address,w
  2245  0546  00AC               	movwf	??_I2C_LCD_init
  2246  0547  087D               	movf	I2C_LCD_init@LCD_Obj_Add,w
  2247  0548  0084               	movwf	4
  2248  0549  082C               	movf	??_I2C_LCD_init,w
  2249  054A  1383               	bcf	3,7	;select IRP bank0
  2250  054B  0080               	movwf	0
  2251                           
  2252                           ;I2C_LCD_v2.0.c: 76:         LCD_Obj_Add->BackLight_State = 0x08;
  2253  054C  3008               	movlw	8
  2254  054D  00AC               	movwf	??_I2C_LCD_init
  2255  054E  0A7D               	incf	I2C_LCD_init@LCD_Obj_Add,w
  2256  054F  0084               	movwf	4
  2257  0550  082C               	movf	??_I2C_LCD_init,w
  2258  0551  0080               	movwf	0
  2259  0552                     l1285:	
  2260                           
  2261                           ;I2C_LCD_v2.0.c: 78:         p_LCD_send_commad(*LCD_Obj_Add, 0x32);
  2262  0552  087D               	movf	I2C_LCD_init@LCD_Obj_Add,w
  2263  0553  0084               	movwf	4
  2264  0554  0800               	movf	0,w
  2265  0555  00FA               	movwf	LCD_send_commad@LCD_Obj
  2266  0556  0A84               	incf	4,f
  2267  0557  0800               	movf	0,w
  2268  0558  00FB               	movwf	LCD_send_commad@LCD_Obj+1
  2269  0559  3032               	movlw	50
  2270  055A  00AC               	movwf	??_I2C_LCD_init
  2271  055B  082C               	movf	??_I2C_LCD_init,w
  2272  055C  00FC               	movwf	LCD_send_commad@cmd
  2273  055D  120A  118A  22A9  120A  118A  	fcall	_LCD_send_commad
  2274  0562                     l1287:	
  2275                           
  2276                           ;I2C_LCD_v2.0.c: 79:         _delay((unsigned long)((1550)*(20000000UL/4000000.0)));
  2277  0562  300B               	movlw	11
  2278  0563  1283               	bcf	3,5	;RP0=0, select bank0
  2279  0564  1303               	bcf	3,6	;RP1=0, select bank0
  2280  0565  00AD               	movwf	??_I2C_LCD_init+1
  2281  0566  300E               	movlw	14
  2282  0567  00AC               	movwf	??_I2C_LCD_init
  2283  0568                     u717:	
  2284  0568  0BAC               	decfsz	??_I2C_LCD_init,f
  2285  0569  2D68               	goto	u717
  2286  056A  0BAD               	decfsz	??_I2C_LCD_init+1,f
  2287  056B  2D68               	goto	u717
  2288  056C  0000               	nop
  2289  056D                     l1289:	
  2290                           
  2291                           ;I2C_LCD_v2.0.c: 80:         p_LCD_send_commad(*LCD_Obj_Add, 0x20 | 0x00 | N | F);
  2292  056D  087D               	movf	I2C_LCD_init@LCD_Obj_Add,w
  2293  056E  0084               	movwf	4
  2294  056F  1383               	bcf	3,7	;select IRP bank0
  2295  0570  0800               	movf	0,w
  2296  0571  00FA               	movwf	LCD_send_commad@LCD_Obj
  2297  0572  0A84               	incf	4,f
  2298  0573  0800               	movf	0,w
  2299  0574  00FB               	movwf	LCD_send_commad@LCD_Obj+1
  2300  0575  1283               	bcf	3,5	;RP0=0, select bank0
  2301  0576  1303               	bcf	3,6	;RP1=0, select bank0
  2302  0577  082A               	movf	I2C_LCD_init@N,w
  2303  0578  042B               	iorwf	I2C_LCD_init@F,w
  2304  0579  3820               	iorlw	32
  2305  057A  00AC               	movwf	??_I2C_LCD_init
  2306  057B  082C               	movf	??_I2C_LCD_init,w
  2307  057C  00FC               	movwf	LCD_send_commad@cmd
  2308  057D  120A  118A  22A9  120A  118A  	fcall	_LCD_send_commad
  2309  0582                     l1291:	
  2310                           
  2311                           ;I2C_LCD_v2.0.c: 81:         I2C_LCD_display_on_off_control(*LCD_Obj_Add, 0x04, 0x00, 0x
      +                          00);
  2312  0582  087D               	movf	I2C_LCD_init@LCD_Obj_Add,w
  2313  0583  0084               	movwf	4
  2314  0584  1383               	bcf	3,7	;select IRP bank0
  2315  0585  0800               	movf	0,w
  2316  0586  1283               	bcf	3,5	;RP0=0, select bank0
  2317  0587  1303               	bcf	3,6	;RP1=0, select bank0
  2318  0588  00A2               	movwf	I2C_LCD_display_on_off_control@LCD_Obj
  2319  0589  0A84               	incf	4,f
  2320  058A  0800               	movf	0,w
  2321  058B  00A3               	movwf	I2C_LCD_display_on_off_control@LCD_Obj+1
  2322  058C  3004               	movlw	4
  2323  058D  00AC               	movwf	??_I2C_LCD_init
  2324  058E  082C               	movf	??_I2C_LCD_init,w
  2325  058F  00A4               	movwf	I2C_LCD_display_on_off_control@D
  2326  0590  01A5               	clrf	I2C_LCD_display_on_off_control@C
  2327  0591  01A6               	clrf	I2C_LCD_display_on_off_control@B
  2328  0592  120A  118A  2370  120A  118A  	fcall	_I2C_LCD_display_on_off_control
  2329  0597                     l1293:	
  2330                           
  2331                           ;I2C_LCD_v2.0.c: 82:         I2C_LCD_entry_mode(*LCD_Obj_Add, 0x02, 0x00);
  2332  0597  087D               	movf	I2C_LCD_init@LCD_Obj_Add,w
  2333  0598  0084               	movwf	4
  2334  0599  1383               	bcf	3,7	;select IRP bank0
  2335  059A  0800               	movf	0,w
  2336  059B  1283               	bcf	3,5	;RP0=0, select bank0
  2337  059C  1303               	bcf	3,6	;RP1=0, select bank0
  2338  059D  00A2               	movwf	I2C_LCD_entry_mode@LCD_Obj
  2339  059E  0A84               	incf	4,f
  2340  059F  0800               	movf	0,w
  2341  05A0  00A3               	movwf	I2C_LCD_entry_mode@LCD_Obj+1
  2342  05A1  3002               	movlw	2
  2343  05A2  00AC               	movwf	??_I2C_LCD_init
  2344  05A3  082C               	movf	??_I2C_LCD_init,w
  2345  05A4  00A4               	movwf	I2C_LCD_entry_mode@I_or_D
  2346  05A5  01A5               	clrf	I2C_LCD_entry_mode@S
  2347  05A6  120A  118A  2353  120A  118A  	fcall	_I2C_LCD_entry_mode
  2348  05AB                     l1295:	
  2349                           
  2350                           ;I2C_LCD_v2.0.c: 83:         p_LCD_send_commad(*LCD_Obj_Add, 0x80);
  2351  05AB  087D               	movf	I2C_LCD_init@LCD_Obj_Add,w
  2352  05AC  0084               	movwf	4
  2353  05AD  1383               	bcf	3,7	;select IRP bank0
  2354  05AE  0800               	movf	0,w
  2355  05AF  00FA               	movwf	LCD_send_commad@LCD_Obj
  2356  05B0  0A84               	incf	4,f
  2357  05B1  0800               	movf	0,w
  2358  05B2  00FB               	movwf	LCD_send_commad@LCD_Obj+1
  2359  05B3  3080               	movlw	128
  2360  05B4  1283               	bcf	3,5	;RP0=0, select bank0
  2361  05B5  1303               	bcf	3,6	;RP1=0, select bank0
  2362  05B6  00AC               	movwf	??_I2C_LCD_init
  2363  05B7  082C               	movf	??_I2C_LCD_init,w
  2364  05B8  00FC               	movwf	LCD_send_commad@cmd
  2365  05B9  120A  118A  22A9  120A  118A  	fcall	_LCD_send_commad
  2366  05BE                     l164:	
  2367  05BE  0008               	return
  2368  05BF                     __end_of_I2C_LCD_init:	
  2369                           
  2370                           	psect	text8
  2371  0353                     __ptext8:	
  2372 ;; *************** function _I2C_LCD_entry_mode *****************
  2373 ;; Defined at:
  2374 ;;		line 59 in file "I2C_LCD_v2.0.c"
  2375 ;; Parameters:    Size  Location     Type
  2376 ;;  LCD_Obj         2    2[BANK0 ] struct I2C_LCD
  2377 ;;  I_or_D          1    4[BANK0 ] unsigned char 
  2378 ;;  S               1    5[BANK0 ] unsigned char 
  2379 ;; Auto vars:     Size  Location     Type
  2380 ;;		None
  2381 ;; Return value:  Size  Location     Type
  2382 ;;                  1    wreg      void 
  2383 ;; Registers used:
  2384 ;;		wreg, status,2, status,0, pclath, cstack
  2385 ;; Tracked objects:
  2386 ;;		On entry : 0/0
  2387 ;;		On exit  : 0/0
  2388 ;;		Unchanged: 0/0
  2389 ;; Data sizes:     COMMON   BANK0   BANK1   BANK3   BANK2
  2390 ;;      Params:         0       4       0       0       0
  2391 ;;      Locals:         0       0       0       0       0
  2392 ;;      Temps:          0       2       0       0       0
  2393 ;;      Totals:         0       6       0       0       0
  2394 ;;Total ram usage:        6 bytes
  2395 ;; Hardware stack levels used:    1
  2396 ;; Hardware stack levels required when called:    5
  2397 ;; This function calls:
  2398 ;;		_LCD_send_commad
  2399 ;; This function is called by:
  2400 ;;		_I2C_LCD_init
  2401 ;; This function uses a non-reentrant model
  2402 ;;
  2403                           
  2404                           
  2405                           ;psect for function _I2C_LCD_entry_mode
  2406  0353                     _I2C_LCD_entry_mode:	
  2407  0353                     l1209:	
  2408                           ;incstack = 0
  2409                           ; Regs used in _I2C_LCD_entry_mode: [wreg+status,2+status,0+pclath+cstack]
  2410                           
  2411                           
  2412                           ;I2C_LCD_v2.0.c: 60:         p_LCD_send_commad(LCD_Obj, 0x04 | I_or_D | S);
  2413  0353  1283               	bcf	3,5	;RP0=0, select bank0
  2414  0354  1303               	bcf	3,6	;RP1=0, select bank0
  2415  0355  0823               	movf	I2C_LCD_entry_mode@LCD_Obj+1,w
  2416  0356  00FB               	movwf	LCD_send_commad@LCD_Obj+1
  2417  0357  0822               	movf	I2C_LCD_entry_mode@LCD_Obj,w
  2418  0358  00FA               	movwf	LCD_send_commad@LCD_Obj
  2419  0359  0824               	movf	I2C_LCD_entry_mode@I_or_D,w
  2420  035A  0425               	iorwf	I2C_LCD_entry_mode@S,w
  2421  035B  3804               	iorlw	4
  2422  035C  00A6               	movwf	??_I2C_LCD_entry_mode
  2423  035D  0826               	movf	??_I2C_LCD_entry_mode,w
  2424  035E  00FC               	movwf	LCD_send_commad@cmd
  2425  035F  120A  118A  22A9  120A  118A  	fcall	_LCD_send_commad
  2426  0364                     l1211:	
  2427                           
  2428                           ;I2C_LCD_v2.0.c: 61:         _delay((unsigned long)((1550)*(20000000UL/4000000.0)));
  2429  0364  300B               	movlw	11
  2430  0365  1283               	bcf	3,5	;RP0=0, select bank0
  2431  0366  1303               	bcf	3,6	;RP1=0, select bank0
  2432  0367  00A7               	movwf	??_I2C_LCD_entry_mode+1
  2433  0368  300E               	movlw	14
  2434  0369  00A6               	movwf	??_I2C_LCD_entry_mode
  2435  036A                     u727:	
  2436  036A  0BA6               	decfsz	??_I2C_LCD_entry_mode,f
  2437  036B  2B6A               	goto	u727
  2438  036C  0BA7               	decfsz	??_I2C_LCD_entry_mode+1,f
  2439  036D  2B6A               	goto	u727
  2440  036E  0000               	nop
  2441  036F                     l155:	
  2442  036F  0008               	return
  2443  0370                     __end_of_I2C_LCD_entry_mode:	
  2444                           
  2445                           	psect	text9
  2446  0370                     __ptext9:	
  2447 ;; *************** function _I2C_LCD_display_on_off_control *****************
  2448 ;; Defined at:
  2449 ;;		line 64 in file "I2C_LCD_v2.0.c"
  2450 ;; Parameters:    Size  Location     Type
  2451 ;;  LCD_Obj         2    2[BANK0 ] struct I2C_LCD
  2452 ;;  D               1    4[BANK0 ] unsigned char 
  2453 ;;  C               1    5[BANK0 ] unsigned char 
  2454 ;;  B               1    6[BANK0 ] unsigned char 
  2455 ;; Auto vars:     Size  Location     Type
  2456 ;;		None
  2457 ;; Return value:  Size  Location     Type
  2458 ;;                  1    wreg      void 
  2459 ;; Registers used:
  2460 ;;		wreg, status,2, status,0, pclath, cstack
  2461 ;; Tracked objects:
  2462 ;;		On entry : 0/0
  2463 ;;		On exit  : 0/0
  2464 ;;		Unchanged: 0/0
  2465 ;; Data sizes:     COMMON   BANK0   BANK1   BANK3   BANK2
  2466 ;;      Params:         0       5       0       0       0
  2467 ;;      Locals:         0       0       0       0       0
  2468 ;;      Temps:          0       2       0       0       0
  2469 ;;      Totals:         0       7       0       0       0
  2470 ;;Total ram usage:        7 bytes
  2471 ;; Hardware stack levels used:    1
  2472 ;; Hardware stack levels required when called:    5
  2473 ;; This function calls:
  2474 ;;		_LCD_send_commad
  2475 ;; This function is called by:
  2476 ;;		_I2C_LCD_init
  2477 ;; This function uses a non-reentrant model
  2478 ;;
  2479                           
  2480                           
  2481                           ;psect for function _I2C_LCD_display_on_off_control
  2482  0370                     _I2C_LCD_display_on_off_control:	
  2483  0370                     l1213:	
  2484                           ;incstack = 0
  2485                           ; Regs used in _I2C_LCD_display_on_off_control: [wreg+status,2+status,0+pclath+cstack]
  2486                           
  2487                           
  2488                           ;I2C_LCD_v2.0.c: 65:         p_LCD_send_commad(LCD_Obj, 0x08 | D | C | B);
  2489  0370  1283               	bcf	3,5	;RP0=0, select bank0
  2490  0371  1303               	bcf	3,6	;RP1=0, select bank0
  2491  0372  0823               	movf	I2C_LCD_display_on_off_control@LCD_Obj+1,w
  2492  0373  00FB               	movwf	LCD_send_commad@LCD_Obj+1
  2493  0374  0822               	movf	I2C_LCD_display_on_off_control@LCD_Obj,w
  2494  0375  00FA               	movwf	LCD_send_commad@LCD_Obj
  2495  0376  0824               	movf	I2C_LCD_display_on_off_control@D,w
  2496  0377  0425               	iorwf	I2C_LCD_display_on_off_control@C,w
  2497  0378  0426               	iorwf	I2C_LCD_display_on_off_control@B,w
  2498  0379  3808               	iorlw	8
  2499  037A  00A7               	movwf	??_I2C_LCD_display_on_off_control
  2500  037B  0827               	movf	??_I2C_LCD_display_on_off_control,w
  2501  037C  00FC               	movwf	LCD_send_commad@cmd
  2502  037D  120A  118A  22A9  120A  118A  	fcall	_LCD_send_commad
  2503  0382                     l1215:	
  2504                           
  2505                           ;I2C_LCD_v2.0.c: 66:         _delay((unsigned long)((1550)*(20000000UL/4000000.0)));
  2506  0382  300B               	movlw	11
  2507  0383  1283               	bcf	3,5	;RP0=0, select bank0
  2508  0384  1303               	bcf	3,6	;RP1=0, select bank0
  2509  0385  00A8               	movwf	??_I2C_LCD_display_on_off_control+1
  2510  0386  300E               	movlw	14
  2511  0387  00A7               	movwf	??_I2C_LCD_display_on_off_control
  2512  0388                     u737:	
  2513  0388  0BA7               	decfsz	??_I2C_LCD_display_on_off_control,f
  2514  0389  2B88               	goto	u737
  2515  038A  0BA8               	decfsz	??_I2C_LCD_display_on_off_control+1,f
  2516  038B  2B88               	goto	u737
  2517  038C  0000               	nop
  2518  038D                     l158:	
  2519  038D  0008               	return
  2520  038E                     __end_of_I2C_LCD_display_on_off_control:	
  2521                           
  2522                           	psect	text10
  2523  0336                     __ptext10:	
  2524 ;; *************** function _I2C_LCD_cursor_or_display_shift *****************
  2525 ;; Defined at:
  2526 ;;		line 69 in file "I2C_LCD_v2.0.c"
  2527 ;; Parameters:    Size  Location     Type
  2528 ;;  LCD_Obj         2    2[BANK0 ] struct I2C_LCD
  2529 ;;  S_or_C          1    4[BANK0 ] unsigned char 
  2530 ;;  R_or_L          1    5[BANK0 ] unsigned char 
  2531 ;; Auto vars:     Size  Location     Type
  2532 ;;		None
  2533 ;; Return value:  Size  Location     Type
  2534 ;;                  1    wreg      void 
  2535 ;; Registers used:
  2536 ;;		wreg, status,2, status,0, pclath, cstack
  2537 ;; Tracked objects:
  2538 ;;		On entry : 0/0
  2539 ;;		On exit  : 0/0
  2540 ;;		Unchanged: 0/0
  2541 ;; Data sizes:     COMMON   BANK0   BANK1   BANK3   BANK2
  2542 ;;      Params:         0       4       0       0       0
  2543 ;;      Locals:         0       0       0       0       0
  2544 ;;      Temps:          0       2       0       0       0
  2545 ;;      Totals:         0       6       0       0       0
  2546 ;;Total ram usage:        6 bytes
  2547 ;; Hardware stack levels used:    1
  2548 ;; Hardware stack levels required when called:    5
  2549 ;; This function calls:
  2550 ;;		_LCD_send_commad
  2551 ;; This function is called by:
  2552 ;;		_main
  2553 ;; This function uses a non-reentrant model
  2554 ;;
  2555                           
  2556                           
  2557                           ;psect for function _I2C_LCD_cursor_or_display_shift
  2558  0336                     _I2C_LCD_cursor_or_display_shift:	
  2559  0336                     l1279:	
  2560                           ;incstack = 0
  2561                           ; Regs used in _I2C_LCD_cursor_or_display_shift: [wreg+status,2+status,0+pclath+cstack]
  2562                           
  2563                           
  2564                           ;I2C_LCD_v2.0.c: 70:         p_LCD_send_commad(LCD_Obj, 0x10 | S_or_C | R_or_L);
  2565  0336  1283               	bcf	3,5	;RP0=0, select bank0
  2566  0337  1303               	bcf	3,6	;RP1=0, select bank0
  2567  0338  0823               	movf	I2C_LCD_cursor_or_display_shift@LCD_Obj+1,w
  2568  0339  00FB               	movwf	LCD_send_commad@LCD_Obj+1
  2569  033A  0822               	movf	I2C_LCD_cursor_or_display_shift@LCD_Obj,w
  2570  033B  00FA               	movwf	LCD_send_commad@LCD_Obj
  2571  033C  0824               	movf	I2C_LCD_cursor_or_display_shift@S_or_C,w
  2572  033D  0425               	iorwf	I2C_LCD_cursor_or_display_shift@R_or_L,w
  2573  033E  3810               	iorlw	16
  2574  033F  00A6               	movwf	??_I2C_LCD_cursor_or_display_shift
  2575  0340  0826               	movf	??_I2C_LCD_cursor_or_display_shift,w
  2576  0341  00FC               	movwf	LCD_send_commad@cmd
  2577  0342  120A  118A  22A9  120A  118A  	fcall	_LCD_send_commad
  2578  0347                     l1281:	
  2579                           
  2580                           ;I2C_LCD_v2.0.c: 71:         _delay((unsigned long)((1550)*(20000000UL/4000000.0)));
  2581  0347  300B               	movlw	11
  2582  0348  1283               	bcf	3,5	;RP0=0, select bank0
  2583  0349  1303               	bcf	3,6	;RP1=0, select bank0
  2584  034A  00A7               	movwf	??_I2C_LCD_cursor_or_display_shift+1
  2585  034B  300E               	movlw	14
  2586  034C  00A6               	movwf	??_I2C_LCD_cursor_or_display_shift
  2587  034D                     u747:	
  2588  034D  0BA6               	decfsz	??_I2C_LCD_cursor_or_display_shift,f
  2589  034E  2B4D               	goto	u747
  2590  034F  0BA7               	decfsz	??_I2C_LCD_cursor_or_display_shift+1,f
  2591  0350  2B4D               	goto	u747
  2592  0351  0000               	nop
  2593  0352                     l161:	
  2594  0352  0008               	return
  2595  0353                     __end_of_I2C_LCD_cursor_or_display_shift:	
  2596                           
  2597                           	psect	text11
  2598  0302                     __ptext11:	
  2599 ;; *************** function _I2C_LCD_clear *****************
  2600 ;; Defined at:
  2601 ;;		line 49 in file "I2C_LCD_v2.0.c"
  2602 ;; Parameters:    Size  Location     Type
  2603 ;;  LCD_Obj         2    2[BANK0 ] struct I2C_LCD
  2604 ;; Auto vars:     Size  Location     Type
  2605 ;;		None
  2606 ;; Return value:  Size  Location     Type
  2607 ;;                  1    wreg      void 
  2608 ;; Registers used:
  2609 ;;		wreg, status,2, status,0, pclath, cstack
  2610 ;; Tracked objects:
  2611 ;;		On entry : 0/0
  2612 ;;		On exit  : 0/0
  2613 ;;		Unchanged: 0/0
  2614 ;; Data sizes:     COMMON   BANK0   BANK1   BANK3   BANK2
  2615 ;;      Params:         0       2       0       0       0
  2616 ;;      Locals:         0       0       0       0       0
  2617 ;;      Temps:          0       2       0       0       0
  2618 ;;      Totals:         0       4       0       0       0
  2619 ;;Total ram usage:        4 bytes
  2620 ;; Hardware stack levels used:    1
  2621 ;; Hardware stack levels required when called:    5
  2622 ;; This function calls:
  2623 ;;		_LCD_send_commad
  2624 ;; This function is called by:
  2625 ;;		_main
  2626 ;; This function uses a non-reentrant model
  2627 ;;
  2628                           
  2629                           
  2630                           ;psect for function _I2C_LCD_clear
  2631  0302                     _I2C_LCD_clear:	
  2632  0302                     l1275:	
  2633                           ;incstack = 0
  2634                           ; Regs used in _I2C_LCD_clear: [wreg+status,2+status,0+pclath+cstack]
  2635                           
  2636                           
  2637                           ;I2C_LCD_v2.0.c: 50:         p_LCD_send_commad(LCD_Obj, 0x01);
  2638  0302  1283               	bcf	3,5	;RP0=0, select bank0
  2639  0303  1303               	bcf	3,6	;RP1=0, select bank0
  2640  0304  0823               	movf	I2C_LCD_clear@LCD_Obj+1,w
  2641  0305  00FB               	movwf	LCD_send_commad@LCD_Obj+1
  2642  0306  0822               	movf	I2C_LCD_clear@LCD_Obj,w
  2643  0307  00FA               	movwf	LCD_send_commad@LCD_Obj
  2644  0308  01FC               	clrf	LCD_send_commad@cmd
  2645  0309  0AFC               	incf	LCD_send_commad@cmd,f
  2646  030A  120A  118A  22A9  120A  118A  	fcall	_LCD_send_commad
  2647  030F                     l1277:	
  2648                           
  2649                           ;I2C_LCD_v2.0.c: 51:         _delay((unsigned long)((1550)*(20000000UL/4000000.0)));
  2650  030F  300B               	movlw	11
  2651  0310  1283               	bcf	3,5	;RP0=0, select bank0
  2652  0311  1303               	bcf	3,6	;RP1=0, select bank0
  2653  0312  00A5               	movwf	??_I2C_LCD_clear+1
  2654  0313  300E               	movlw	14
  2655  0314  00A4               	movwf	??_I2C_LCD_clear
  2656  0315                     u757:	
  2657  0315  0BA4               	decfsz	??_I2C_LCD_clear,f
  2658  0316  2B15               	goto	u757
  2659  0317  0BA5               	decfsz	??_I2C_LCD_clear+1,f
  2660  0318  2B15               	goto	u757
  2661  0319  0000               	nop
  2662  031A                     l149:	
  2663  031A  0008               	return
  2664  031B                     __end_of_I2C_LCD_clear:	
  2665                           
  2666                           	psect	text12
  2667  02A9                     __ptext12:	
  2668 ;; *************** function _LCD_send_commad *****************
  2669 ;; Defined at:
  2670 ;;		line 30 in file "I2C_LCD_v2.0.c"
  2671 ;; Parameters:    Size  Location     Type
  2672 ;;  LCD_Obj         2   10[COMMON] struct I2C_LCD
  2673 ;;  cmd             1   12[COMMON] unsigned char 
  2674 ;; Auto vars:     Size  Location     Type
  2675 ;;		None
  2676 ;; Return value:  Size  Location     Type
  2677 ;;                  1    wreg      void 
  2678 ;; Registers used:
  2679 ;;		wreg, status,2, status,0, pclath, cstack
  2680 ;; Tracked objects:
  2681 ;;		On entry : 0/0
  2682 ;;		On exit  : 0/0
  2683 ;;		Unchanged: 0/0
  2684 ;; Data sizes:     COMMON   BANK0   BANK1   BANK3   BANK2
  2685 ;;      Params:         3       0       0       0       0
  2686 ;;      Locals:         0       0       0       0       0
  2687 ;;      Temps:          0       2       0       0       0
  2688 ;;      Totals:         3       2       0       0       0
  2689 ;;Total ram usage:        5 bytes
  2690 ;; Hardware stack levels used:    1
  2691 ;; Hardware stack levels required when called:    4
  2692 ;; This function calls:
  2693 ;;		_LCD_data_sender
  2694 ;; This function is called by:
  2695 ;;		_I2C_LCD_write_string
  2696 ;;		_I2C_LCD_clear
  2697 ;;		_I2C_LCD_entry_mode
  2698 ;;		_I2C_LCD_display_on_off_control
  2699 ;;		_I2C_LCD_cursor_or_display_shift
  2700 ;;		_I2C_LCD_init
  2701 ;;		_I2C_LCD_set_cursor
  2702 ;;		_I2C_LCD_return_home
  2703 ;; This function uses a non-reentrant model
  2704 ;;
  2705                           
  2706                           
  2707                           ;psect for function _LCD_send_commad
  2708  02A9                     _LCD_send_commad:	
  2709  02A9                     l1201:	
  2710                           ;incstack = 0
  2711                           ; Regs used in _LCD_send_commad: [wreg+status,2+status,0+pclath+cstack]
  2712                           
  2713                           
  2714                           ;I2C_LCD_v2.0.c: 31:         Lcd_RS_State = 0x00;
  2715  02A9  1283               	bcf	3,5	;RP0=0, select bank0
  2716  02AA  1303               	bcf	3,6	;RP1=0, select bank0
  2717  02AB  01B5               	clrf	_Lcd_RS_State
  2718  02AC                     l1203:	
  2719                           
  2720                           ;I2C_LCD_v2.0.c: 32:         p_LCD_data_sender(LCD_Obj, cmd, p_I2C_IO_Expander_Writer);
  2721  02AC  087B               	movf	LCD_send_commad@LCD_Obj+1,w
  2722  02AD  00F4               	movwf	LCD_data_sender@LCD_Obj+1
  2723  02AE  087A               	movf	LCD_send_commad@LCD_Obj,w
  2724  02AF  00F3               	movwf	LCD_data_sender@LCD_Obj
  2725  02B0  087C               	movf	LCD_send_commad@cmd,w
  2726  02B1  00A0               	movwf	??_LCD_send_commad
  2727  02B2  0820               	movf	??_LCD_send_commad,w
  2728  02B3  00F5               	movwf	LCD_data_sender@data
  2729  02B4  3001               	movlw	(low (fp__I2C_IO_Expander_Writer-fpbase))& (0+255)
  2730  02B5  00A1               	movwf	??_LCD_send_commad+1
  2731  02B6  0821               	movf	??_LCD_send_commad+1,w
  2732  02B7  00F6               	movwf	LCD_data_sender@callback_function
  2733  02B8  120A  118A  247B  120A  118A  	fcall	_LCD_data_sender
  2734  02BD                     l136:	
  2735  02BD  0008               	return
  2736  02BE                     __end_of_LCD_send_commad:	
  2737                           
  2738                           	psect	text13
  2739  047B                     __ptext13:	
  2740 ;; *************** function _LCD_data_sender *****************
  2741 ;; Defined at:
  2742 ;;		line 23 in file "I2C_LCD_v2.0.c"
  2743 ;; Parameters:    Size  Location     Type
  2744 ;;  LCD_Obj         2    3[COMMON] struct I2C_LCD
  2745 ;;  data            1    5[COMMON] unsigned char 
  2746 ;;  callback_fun    1    6[COMMON] PTR FTN(unsigned char ,u
  2747 ;;		 -> I2C_IO_Expander_Writer(1), 
  2748 ;; Auto vars:     Size  Location     Type
  2749 ;;		None
  2750 ;; Return value:  Size  Location     Type
  2751 ;;                  1    wreg      void 
  2752 ;; Registers used:
  2753 ;;		wreg, status,2, status,0, pclath, cstack
  2754 ;; Tracked objects:
  2755 ;;		On entry : 0/0
  2756 ;;		On exit  : 0/0
  2757 ;;		Unchanged: 0/0
  2758 ;; Data sizes:     COMMON   BANK0   BANK1   BANK3   BANK2
  2759 ;;      Params:         4       0       0       0       0
  2760 ;;      Locals:         0       0       0       0       0
  2761 ;;      Temps:          3       0       0       0       0
  2762 ;;      Totals:         7       0       0       0       0
  2763 ;;Total ram usage:        7 bytes
  2764 ;; Hardware stack levels used:    1
  2765 ;; Hardware stack levels required when called:    3
  2766 ;; This function calls:
  2767 ;;		_I2C_IO_Expander_Writer
  2768 ;; This function is called by:
  2769 ;;		_LCD_send_commad
  2770 ;;		_I2C_LCD_write_char
  2771 ;; This function uses a non-reentrant model
  2772 ;;
  2773                           
  2774                           
  2775                           ;psect for function _LCD_data_sender
  2776  047B                     _LCD_data_sender:	
  2777  047B                     l1199:	
  2778                           ;incstack = 0
  2779                           ; Regs used in _LCD_data_sender: [wreg+status,2+status,0+pclath+cstack]
  2780                           
  2781                           
  2782                           ;I2C_LCD_v2.0.c: 24:         callback_function(LCD_Obj.Address, (data&0xF0) | Lcd_RS_Sta
      +                          te | Lcd_RW_State | 0x04 | LCD_Obj.BackLight_State);
  2783  047B  0873               	movf	LCD_data_sender@LCD_Obj,w
  2784  047C  00F7               	movwf	??_LCD_data_sender
  2785  047D  0877               	movf	??_LCD_data_sender,w
  2786  047E  00F1               	movwf	I2C_IO_Expander_Writer@I2C_Address
  2787  047F  0875               	movf	LCD_data_sender@data,w
  2788  0480  39F0               	andlw	240
  2789  0481  0474               	iorwf	LCD_data_sender@LCD_Obj+1,w
  2790  0482  1283               	bcf	3,5	;RP0=0, select bank0
  2791  0483  1303               	bcf	3,6	;RP1=0, select bank0
  2792  0484  0435               	iorwf	_Lcd_RS_State,w
  2793  0485  3804               	iorlw	4
  2794  0486  00F8               	movwf	??_LCD_data_sender+1
  2795  0487  0878               	movf	??_LCD_data_sender+1,w
  2796  0488  00F2               	movwf	I2C_IO_Expander_Writer@I2C_Data
  2797  0489  0876               	movf	LCD_data_sender@callback_function,w
  2798  048A  120A  118A  2003  120A  118A  	fcall	fptable
  2799                           
  2800                           ;I2C_LCD_v2.0.c: 25:         callback_function(LCD_Obj.Address, (data&0xF0) | Lcd_RS_Sta
      +                          te | Lcd_RW_State | 0x00 | LCD_Obj.BackLight_State);
  2801  048F  0873               	movf	LCD_data_sender@LCD_Obj,w
  2802  0490  00F7               	movwf	??_LCD_data_sender
  2803  0491  0877               	movf	??_LCD_data_sender,w
  2804  0492  00F1               	movwf	I2C_IO_Expander_Writer@I2C_Address
  2805  0493  0875               	movf	LCD_data_sender@data,w
  2806  0494  39F0               	andlw	240
  2807  0495  0474               	iorwf	LCD_data_sender@LCD_Obj+1,w
  2808  0496  1283               	bcf	3,5	;RP0=0, select bank0
  2809  0497  1303               	bcf	3,6	;RP1=0, select bank0
  2810  0498  0435               	iorwf	_Lcd_RS_State,w
  2811  0499  00F8               	movwf	??_LCD_data_sender+1
  2812  049A  0878               	movf	??_LCD_data_sender+1,w
  2813  049B  00F2               	movwf	I2C_IO_Expander_Writer@I2C_Data
  2814  049C  0876               	movf	LCD_data_sender@callback_function,w
  2815  049D  120A  118A  2003  120A  118A  	fcall	fptable
  2816                           
  2817                           ;I2C_LCD_v2.0.c: 26:         callback_function(LCD_Obj.Address, ((data<<4)&0xF0) | Lcd_R
      +                          S_State | Lcd_RW_State |0x04 | LCD_Obj.BackLight_State);
  2818  04A2  0873               	movf	LCD_data_sender@LCD_Obj,w
  2819  04A3  00F7               	movwf	??_LCD_data_sender
  2820  04A4  0877               	movf	??_LCD_data_sender,w
  2821  04A5  00F1               	movwf	I2C_IO_Expander_Writer@I2C_Address
  2822  04A6  0875               	movf	LCD_data_sender@data,w
  2823  04A7  00F8               	movwf	??_LCD_data_sender+1
  2824  04A8  3003               	movlw	3
  2825  04A9                     u445:	
  2826  04A9  1003               	clrc
  2827  04AA  0DF8               	rlf	??_LCD_data_sender+1,f
  2828  04AB  3EFF               	addlw	-1
  2829  04AC  1D03               	skipz
  2830  04AD  2CA9               	goto	u445
  2831  04AE  1003               	clrc
  2832  04AF  0D78               	rlf	??_LCD_data_sender+1,w
  2833  04B0  39F0               	andlw	240
  2834  04B1  0474               	iorwf	LCD_data_sender@LCD_Obj+1,w
  2835  04B2  1283               	bcf	3,5	;RP0=0, select bank0
  2836  04B3  1303               	bcf	3,6	;RP1=0, select bank0
  2837  04B4  0435               	iorwf	_Lcd_RS_State,w
  2838  04B5  3804               	iorlw	4
  2839  04B6  00F9               	movwf	??_LCD_data_sender+2
  2840  04B7  0879               	movf	??_LCD_data_sender+2,w
  2841  04B8  00F2               	movwf	I2C_IO_Expander_Writer@I2C_Data
  2842  04B9  0876               	movf	LCD_data_sender@callback_function,w
  2843  04BA  120A  118A  2003  120A  118A  	fcall	fptable
  2844                           
  2845                           ;I2C_LCD_v2.0.c: 27:         callback_function(LCD_Obj.Address, ((data<<4)&0xF0) | Lcd_R
      +                          S_State | Lcd_RW_State |0x00 | LCD_Obj.BackLight_State);
  2846  04BF  0873               	movf	LCD_data_sender@LCD_Obj,w
  2847  04C0  00F7               	movwf	??_LCD_data_sender
  2848  04C1  0877               	movf	??_LCD_data_sender,w
  2849  04C2  00F1               	movwf	I2C_IO_Expander_Writer@I2C_Address
  2850  04C3  0875               	movf	LCD_data_sender@data,w
  2851  04C4  00F8               	movwf	??_LCD_data_sender+1
  2852  04C5  3003               	movlw	3
  2853  04C6                     u455:	
  2854  04C6  1003               	clrc
  2855  04C7  0DF8               	rlf	??_LCD_data_sender+1,f
  2856  04C8  3EFF               	addlw	-1
  2857  04C9  1D03               	skipz
  2858  04CA  2CC6               	goto	u455
  2859  04CB  1003               	clrc
  2860  04CC  0D78               	rlf	??_LCD_data_sender+1,w
  2861  04CD  39F0               	andlw	240
  2862  04CE  0474               	iorwf	LCD_data_sender@LCD_Obj+1,w
  2863  04CF  1283               	bcf	3,5	;RP0=0, select bank0
  2864  04D0  1303               	bcf	3,6	;RP1=0, select bank0
  2865  04D1  0435               	iorwf	_Lcd_RS_State,w
  2866  04D2  00F9               	movwf	??_LCD_data_sender+2
  2867  04D3  0879               	movf	??_LCD_data_sender+2,w
  2868  04D4  00F2               	movwf	I2C_IO_Expander_Writer@I2C_Data
  2869  04D5  0876               	movf	LCD_data_sender@callback_function,w
  2870  04D6  120A  118A  2003  120A  118A  	fcall	fptable
  2871  04DB                     l133:	
  2872  04DB  0008               	return
  2873  04DC                     __end_of_LCD_data_sender:	
  2874                           
  2875                           	psect	text14
  2876  02D4                     __ptext14:	
  2877 ;; *************** function _I2C_IO_Expander_Writer *****************
  2878 ;; Defined at:
  2879 ;;		line 14 in file "PCF8574_IO_Expander.c"
  2880 ;; Parameters:    Size  Location     Type
  2881 ;;  I2C_Address     1    1[COMMON] unsigned char 
  2882 ;;  I2C_Data        1    2[COMMON] unsigned char 
  2883 ;; Auto vars:     Size  Location     Type
  2884 ;;		None
  2885 ;; Return value:  Size  Location     Type
  2886 ;;                  1    wreg      void 
  2887 ;; Registers used:
  2888 ;;		wreg, status,2, status,0, pclath, cstack
  2889 ;; Tracked objects:
  2890 ;;		On entry : 0/0
  2891 ;;		On exit  : 0/0
  2892 ;;		Unchanged: 0/0
  2893 ;; Data sizes:     COMMON   BANK0   BANK1   BANK3   BANK2
  2894 ;;      Params:         2       0       0       0       0
  2895 ;;      Locals:         0       0       0       0       0
  2896 ;;      Temps:          0       0       0       0       0
  2897 ;;      Totals:         2       0       0       0       0
  2898 ;;Total ram usage:        2 bytes
  2899 ;; Hardware stack levels used:    1
  2900 ;; Hardware stack levels required when called:    2
  2901 ;; This function calls:
  2902 ;;		_I2C_Master_Start
  2903 ;;		_I2C_Master_Stop
  2904 ;;		_I2C_Master_Write
  2905 ;; This function is called by:
  2906 ;;		_LCD_send_commad
  2907 ;;		_I2C_LCD_write_char
  2908 ;;		_LCD_data_sender
  2909 ;; This function uses a non-reentrant model
  2910 ;;
  2911                           
  2912                           
  2913                           ;psect for function _I2C_IO_Expander_Writer
  2914  02D4                     _I2C_IO_Expander_Writer:	
  2915  02D4                     l1193:	
  2916                           ;incstack = 0
  2917                           ; Regs used in _I2C_IO_Expander_Writer: [wreg+status,2+status,0+pclath+cstack]
  2918                           
  2919                           
  2920                           ;PCF8574_IO_Expander.c: 15:         I2C_Master_Start();
  2921  02D4  120A  118A  2284  120A  118A  	fcall	_I2C_Master_Start
  2922  02D9                     l1195:	
  2923                           
  2924                           ;PCF8574_IO_Expander.c: 16:         I2C_Master_Write(I2C_Address);
  2925  02D9  0871               	movf	I2C_IO_Expander_Writer@I2C_Address,w
  2926  02DA  120A  118A  2296  120A  118A  	fcall	_I2C_Master_Write
  2927  02DF                     l1197:	
  2928                           
  2929                           ;PCF8574_IO_Expander.c: 17:         I2C_Master_Write(I2C_Data);
  2930  02DF  0872               	movf	I2C_IO_Expander_Writer@I2C_Data,w
  2931  02E0  120A  118A  2296  120A  118A  	fcall	_I2C_Master_Write
  2932                           
  2933                           ;PCF8574_IO_Expander.c: 18:         I2C_Master_Stop();
  2934  02E5  120A  118A  228D  120A  118A  	fcall	_I2C_Master_Stop
  2935  02EA                     l110:	
  2936  02EA  0008               	return
  2937  02EB                     __end_of_I2C_IO_Expander_Writer:	
  2938                           
  2939                           	psect	text15
  2940  0296                     __ptext15:	
  2941 ;; *************** function _I2C_Master_Write *****************
  2942 ;; Defined at:
  2943 ;;		line 53 in file "I2C.c"
  2944 ;; Parameters:    Size  Location     Type
  2945 ;;  Master_Tx_Da    1    wreg     unsigned char 
  2946 ;; Auto vars:     Size  Location     Type
  2947 ;;  Master_Tx_Da    1    0[COMMON] unsigned char 
  2948 ;; Return value:  Size  Location     Type
  2949 ;;                  1    wreg      unsigned char 
  2950 ;; Registers used:
  2951 ;;		wreg, status,2, status,0, pclath, cstack
  2952 ;; Tracked objects:
  2953 ;;		On entry : 0/0
  2954 ;;		On exit  : 0/0
  2955 ;;		Unchanged: 0/0
  2956 ;; Data sizes:     COMMON   BANK0   BANK1   BANK3   BANK2
  2957 ;;      Params:         0       0       0       0       0
  2958 ;;      Locals:         1       0       0       0       0
  2959 ;;      Temps:          0       0       0       0       0
  2960 ;;      Totals:         1       0       0       0       0
  2961 ;;Total ram usage:        1 bytes
  2962 ;; Hardware stack levels used:    1
  2963 ;; Hardware stack levels required when called:    1
  2964 ;; This function calls:
  2965 ;;		_I2C_Master_Check_Idle
  2966 ;; This function is called by:
  2967 ;;		_I2C_IO_Expander_Writer
  2968 ;; This function uses a non-reentrant model
  2969 ;;
  2970                           
  2971                           
  2972                           ;psect for function _I2C_Master_Write
  2973  0296                     _I2C_Master_Write:	
  2974                           
  2975                           ;incstack = 0
  2976                           ; Regs used in _I2C_Master_Write: [wreg+status,2+status,0+pclath+cstack]
  2977                           ;I2C_Master_Write@Master_Tx_Data stored from wreg
  2978  0296  00F0               	movwf	I2C_Master_Write@Master_Tx_Data
  2979  0297                     l1183:	
  2980                           
  2981                           ;I2C.c: 54:         I2C_Master_Check_Idle();
  2982  0297  120A  118A  231B  120A  118A  	fcall	_I2C_Master_Check_Idle
  2983  029C                     l1185:	
  2984                           
  2985                           ;I2C.c: 55:         SSPBUF = Master_Tx_Data;
  2986  029C  0870               	movf	I2C_Master_Write@Master_Tx_Data,w
  2987  029D  1283               	bcf	3,5	;RP0=0, select bank0
  2988  029E  1303               	bcf	3,6	;RP1=0, select bank0
  2989  029F  0093               	movwf	19	;volatile
  2990  02A0                     l1187:	
  2991                           
  2992                           ;I2C.c: 56:         I2C_Master_Check_Idle();
  2993  02A0  120A  118A  231B  120A  118A  	fcall	_I2C_Master_Check_Idle
  2994  02A5                     l1189:	
  2995                           
  2996                           ;I2C.c: 57:         return SSPCON2bits.ACKSTAT;;	Return value of _I2C_Master_Write is ne
      +                          ver used
  2997  02A5  1683               	bsf	3,5	;RP0=1, select bank1
  2998  02A6  1303               	bcf	3,6	;RP1=0, select bank1
  2999  02A7  0811               	movf	17,w	;volatile
  3000  02A8                     l49:	
  3001  02A8  0008               	return
  3002  02A9                     __end_of_I2C_Master_Write:	
  3003                           
  3004                           	psect	text16
  3005  028D                     __ptext16:	
  3006 ;; *************** function _I2C_Master_Stop *****************
  3007 ;; Defined at:
  3008 ;;		line 36 in file "I2C.c"
  3009 ;; Parameters:    Size  Location     Type
  3010 ;;		None
  3011 ;; Auto vars:     Size  Location     Type
  3012 ;;		None
  3013 ;; Return value:  Size  Location     Type
  3014 ;;                  1    wreg      void 
  3015 ;; Registers used:
  3016 ;;		status,2, status,0, pclath, cstack
  3017 ;; Tracked objects:
  3018 ;;		On entry : 0/0
  3019 ;;		On exit  : 0/0
  3020 ;;		Unchanged: 0/0
  3021 ;; Data sizes:     COMMON   BANK0   BANK1   BANK3   BANK2
  3022 ;;      Params:         0       0       0       0       0
  3023 ;;      Locals:         0       0       0       0       0
  3024 ;;      Temps:          0       0       0       0       0
  3025 ;;      Totals:         0       0       0       0       0
  3026 ;;Total ram usage:        0 bytes
  3027 ;; Hardware stack levels used:    1
  3028 ;; Hardware stack levels required when called:    1
  3029 ;; This function calls:
  3030 ;;		_I2C_Master_Check_Idle
  3031 ;; This function is called by:
  3032 ;;		_I2C_IO_Expander_Writer
  3033 ;; This function uses a non-reentrant model
  3034 ;;
  3035                           
  3036                           
  3037                           ;psect for function _I2C_Master_Stop
  3038  028D                     _I2C_Master_Stop:	
  3039  028D                     l1179:	
  3040                           ;incstack = 0
  3041                           ; Regs used in _I2C_Master_Stop: [status,2+status,0+pclath+cstack]
  3042                           
  3043                           
  3044                           ;I2C.c: 37:         I2C_Master_Check_Idle();
  3045  028D  120A  118A  231B  120A  118A  	fcall	_I2C_Master_Check_Idle
  3046  0292                     l1181:	
  3047                           
  3048                           ;I2C.c: 38:         SSPCON2bits.PEN = 1;
  3049  0292  1683               	bsf	3,5	;RP0=1, select bank1
  3050  0293  1303               	bcf	3,6	;RP1=0, select bank1
  3051  0294  1511               	bsf	17,2	;volatile
  3052  0295                     l40:	
  3053  0295  0008               	return
  3054  0296                     __end_of_I2C_Master_Stop:	
  3055                           
  3056                           	psect	text17
  3057  0284                     __ptext17:	
  3058 ;; *************** function _I2C_Master_Start *****************
  3059 ;; Defined at:
  3060 ;;		line 26 in file "I2C.c"
  3061 ;; Parameters:    Size  Location     Type
  3062 ;;		None
  3063 ;; Auto vars:     Size  Location     Type
  3064 ;;		None
  3065 ;; Return value:  Size  Location     Type
  3066 ;;                  1    wreg      void 
  3067 ;; Registers used:
  3068 ;;		status,2, status,0, pclath, cstack
  3069 ;; Tracked objects:
  3070 ;;		On entry : 0/0
  3071 ;;		On exit  : 0/0
  3072 ;;		Unchanged: 0/0
  3073 ;; Data sizes:     COMMON   BANK0   BANK1   BANK3   BANK2
  3074 ;;      Params:         0       0       0       0       0
  3075 ;;      Locals:         0       0       0       0       0
  3076 ;;      Temps:          0       0       0       0       0
  3077 ;;      Totals:         0       0       0       0       0
  3078 ;;Total ram usage:        0 bytes
  3079 ;; Hardware stack levels used:    1
  3080 ;; Hardware stack levels required when called:    1
  3081 ;; This function calls:
  3082 ;;		_I2C_Master_Check_Idle
  3083 ;; This function is called by:
  3084 ;;		_I2C_IO_Expander_Writer
  3085 ;; This function uses a non-reentrant model
  3086 ;;
  3087                           
  3088                           
  3089                           ;psect for function _I2C_Master_Start
  3090  0284                     _I2C_Master_Start:	
  3091  0284                     l1175:	
  3092                           ;incstack = 0
  3093                           ; Regs used in _I2C_Master_Start: [status,2+status,0+pclath+cstack]
  3094                           
  3095                           
  3096                           ;I2C.c: 27:         I2C_Master_Check_Idle();
  3097  0284  120A  118A  231B  120A  118A  	fcall	_I2C_Master_Check_Idle
  3098  0289                     l1177:	
  3099                           
  3100                           ;I2C.c: 28:         SSPCON2bits.SEN = 1;
  3101  0289  1683               	bsf	3,5	;RP0=1, select bank1
  3102  028A  1303               	bcf	3,6	;RP1=0, select bank1
  3103  028B  1411               	bsf	17,0	;volatile
  3104  028C                     l34:	
  3105  028C  0008               	return
  3106  028D                     __end_of_I2C_Master_Start:	
  3107                           
  3108                           	psect	text18
  3109  031B                     __ptext18:	
  3110 ;; *************** function _I2C_Master_Check_Idle *****************
  3111 ;; Defined at:
  3112 ;;		line 22 in file "I2C.c"
  3113 ;; Parameters:    Size  Location     Type
  3114 ;;		None
  3115 ;; Auto vars:     Size  Location     Type
  3116 ;;		None
  3117 ;; Return value:  Size  Location     Type
  3118 ;;                  1    wreg      void 
  3119 ;; Registers used:
  3120 ;;		None
  3121 ;; Tracked objects:
  3122 ;;		On entry : 0/0
  3123 ;;		On exit  : 0/0
  3124 ;;		Unchanged: 0/0
  3125 ;; Data sizes:     COMMON   BANK0   BANK1   BANK3   BANK2
  3126 ;;      Params:         0       0       0       0       0
  3127 ;;      Locals:         0       0       0       0       0
  3128 ;;      Temps:          0       0       0       0       0
  3129 ;;      Totals:         0       0       0       0       0
  3130 ;;Total ram usage:        0 bytes
  3131 ;; Hardware stack levels used:    1
  3132 ;; This function calls:
  3133 ;;		Nothing
  3134 ;; This function is called by:
  3135 ;;		_I2C_Master_Start
  3136 ;;		_I2C_Master_Stop
  3137 ;;		_I2C_Master_Write
  3138 ;;		_I2C_Master_RepeatedStart
  3139 ;;		_I2C_Master_Send_ACK
  3140 ;;		_I2C_Master_Send_NACK
  3141 ;;		_I2C_Master_Read
  3142 ;; This function uses a non-reentrant model
  3143 ;;
  3144                           
  3145                           
  3146                           ;psect for function _I2C_Master_Check_Idle
  3147  031B                     _I2C_Master_Check_Idle:	
  3148  031B                     l1163:	
  3149                           ;incstack = 0
  3150                           ; Regs used in _I2C_Master_Check_Idle: []
  3151                           
  3152  031B                     l28:	
  3153                           ;I2C.c: 23:         while((SSPSTATbits.R_nW)||(SSPCON2bits.SEN)||(SSPCON2bits.RSEN)||(SS
      +                          PCON2bits.PEN)||(SSPCON2bits.RCEN)||(SSPCON2bits.ACKEN));
  3154                           
  3155  031B  1683               	bsf	3,5	;RP0=1, select bank1
  3156  031C  1303               	bcf	3,6	;RP1=0, select bank1
  3157  031D  1914               	btfsc	20,2	;volatile
  3158  031E  2B20               	goto	u381
  3159  031F  2B21               	goto	u380
  3160  0320                     u381:	
  3161  0320  2B1B               	goto	l28
  3162  0321                     u380:	
  3163  0321                     l1165:	
  3164  0321  1811               	btfsc	17,0	;volatile
  3165  0322  2B24               	goto	u391
  3166  0323  2B25               	goto	u390
  3167  0324                     u391:	
  3168  0324  2B1B               	goto	l28
  3169  0325                     u390:	
  3170  0325                     l1167:	
  3171  0325  1891               	btfsc	17,1	;volatile
  3172  0326  2B28               	goto	u401
  3173  0327  2B29               	goto	u400
  3174  0328                     u401:	
  3175  0328  2B1B               	goto	l28
  3176  0329                     u400:	
  3177  0329                     l1169:	
  3178  0329  1911               	btfsc	17,2	;volatile
  3179  032A  2B2C               	goto	u411
  3180  032B  2B2D               	goto	u410
  3181  032C                     u411:	
  3182  032C  2B1B               	goto	l28
  3183  032D                     u410:	
  3184  032D                     l1171:	
  3185  032D  1991               	btfsc	17,3	;volatile
  3186  032E  2B30               	goto	u421
  3187  032F  2B31               	goto	u420
  3188  0330                     u421:	
  3189  0330  2B1B               	goto	l28
  3190  0331                     u420:	
  3191  0331                     l1173:	
  3192  0331  1A11               	btfsc	17,4	;volatile
  3193  0332  2B34               	goto	u431
  3194  0333  2B35               	goto	u430
  3195  0334                     u431:	
  3196  0334  2B1B               	goto	l28
  3197  0335                     u430:	
  3198  0335                     l31:	
  3199  0335  0008               	return
  3200  0336                     __end_of_I2C_Master_Check_Idle:	
  3201                           
  3202                           	psect	text19
  3203  027E                     __ptext19:	
  3204 ;; *************** function _I2C_LCD_BackLight_OFF *****************
  3205 ;; Defined at:
  3206 ;;		line 103 in file "I2C_LCD_v2.0.c"
  3207 ;; Parameters:    Size  Location     Type
  3208 ;;  LCD_Obj_Add     1    wreg     PTR struct I2C_LCD
  3209 ;;		 -> LCD1(2), 
  3210 ;; Auto vars:     Size  Location     Type
  3211 ;;  LCD_Obj_Add     1    0[COMMON] PTR struct I2C_LCD
  3212 ;;		 -> LCD1(2), 
  3213 ;; Return value:  Size  Location     Type
  3214 ;;                  1    wreg      void 
  3215 ;; Registers used:
  3216 ;;		wreg, fsr0l, fsr0h, status,2
  3217 ;; Tracked objects:
  3218 ;;		On entry : 0/0
  3219 ;;		On exit  : 0/0
  3220 ;;		Unchanged: 0/0
  3221 ;; Data sizes:     COMMON   BANK0   BANK1   BANK3   BANK2
  3222 ;;      Params:         0       0       0       0       0
  3223 ;;      Locals:         1       0       0       0       0
  3224 ;;      Temps:          0       0       0       0       0
  3225 ;;      Totals:         1       0       0       0       0
  3226 ;;Total ram usage:        1 bytes
  3227 ;; Hardware stack levels used:    1
  3228 ;; This function calls:
  3229 ;;		Nothing
  3230 ;; This function is called by:
  3231 ;;		_main
  3232 ;; This function uses a non-reentrant model
  3233 ;;
  3234                           
  3235                           
  3236                           ;psect for function _I2C_LCD_BackLight_OFF
  3237  027E                     _I2C_LCD_BackLight_OFF:	
  3238                           
  3239                           ;incstack = 0
  3240                           ; Regs used in _I2C_LCD_BackLight_OFF: [wreg-fsr0h+status,2]
  3241                           ;I2C_LCD_BackLight_OFF@LCD_Obj_Add stored from wreg
  3242  027E  00F0               	movwf	I2C_LCD_BackLight_OFF@LCD_Obj_Add
  3243  027F                     l1315:	
  3244                           
  3245                           ;I2C_LCD_v2.0.c: 104:         LCD_Obj_Add->BackLight_State= 0x00;
  3246  027F  0A70               	incf	I2C_LCD_BackLight_OFF@LCD_Obj_Add,w
  3247  0280  0084               	movwf	4
  3248  0281  1383               	bcf	3,7	;select IRP bank0
  3249  0282  0180               	clrf	0
  3250  0283                     l179:	
  3251  0283  0008               	return
  3252  0284                     __end_of_I2C_LCD_BackLight_OFF:	
  3253  0008                     
  3254                           	psect	functab
  3255  0003                     __pfunctab:	
  3256  0003                     __fptable:	
  3257  0003                     fptable:	
  3258  0003  00FF               	movwf	(btemp+1)& (0+127)
  3259  0004  3000               	movlw	high fptable
  3260  0005  008A               	movwf	10
  3261  0006  087F               	movf	(btemp+1)& (0+127),w
  3262  0007  0782               	addwf	2,f
  3263  0008                     fpbase:	
  3264  0008  2808               	goto	fpbase	; Call via a null pointer and you will get stuck here.
  3265  0009                     fp__I2C_IO_Expander_Writer:	
  3266  0009  120A  118A  2AD4   	ljmp	_I2C_IO_Expander_Writer
  3267  000C                     fp__LCD_data_sender:	
  3268  000C                     entry__LCD_data_sender:	
  3269  000C  120A  118A  2C7B   	ljmp	_LCD_data_sender
  3270  000F                     fp__LCD_send_commad:	
  3271  000F                     entry__LCD_send_commad:	
  3272  000F  120A  118A  2AA9   	ljmp	_LCD_send_commad
  3273  0012                     __end_of__fptable:	
  3274  007E                     btemp	set	126	;btemp
  3275  007E                     wtemp0	set	126


Data Sizes:
    Strings     33
    Constant    1
    Data        4
    BSS         5
    Persistent  0
    Stack       0

Auto Spaces:
    Space          Size  Autos    Used
    COMMON           14     14      14
    BANK0            80     21      30
    BANK1            80      0       0
    BANK3            96      0       0
    BANK2            96      0       0

Pointer List with Targets:

    p_LCD_data_sender$2	PTR FTN(unsigned char ,unsigned char ,)void  size(1) Largest target is 1
		 -> I2C_IO_Expander_Writer(), 

    I2C_LCD_BackLight_OFF@LCD_Obj_Add	PTR struct I2C_LCD size(1) Largest target is 2
		 -> LCD1(BANK0[2]), 

    I2C_LCD_init@LCD_Obj_Add	PTR struct I2C_LCD size(1) Largest target is 2
		 -> LCD2(BANK0[2]), LCD1(BANK0[2]), 

    I2C_LCD_write_string@str	PTR unsigned char  size(1) Largest target is 11
		 -> STR_5(CODE[6]), STR_4(CODE[6]), STR_3(CODE[11]), STR_2(CODE[5]), 
		 -> STR_1(CODE[5]), 

    LCD_data_sender@callback_function	PTR FTN(unsigned char ,unsigned char ,)void  size(1) Largest target is 1
		 -> I2C_IO_Expander_Writer(), 

    p_LCD_send_commad	PTR FTN(struct I2C_LCD,unsigned char ,)void  size(1) Largest target is 1
		 -> LCD_send_commad(), 

    p_LCD_data_sender	PTR FTN(struct I2C_LCD,unsigned char ,PTR FTN(unsigned char ,unsigned char ,)void ,)void  size(1) Largest target is 1
		 -> LCD_data_sender(), 

    p_I2C_IO_Expander_Writer	PTR FTN(unsigned char ,unsigned char ,)void  size(1) Largest target is 1
		 -> I2C_IO_Expander_Writer(), 


Critical Paths under _main in COMMON

    _main->_I2C_LCD_init
    _main->_I2C_LCD_write_string
    _I2C_Master_Initialize->___lldiv
    _I2C_LCD_write_string->_I2C_LCD_write_char
    _I2C_LCD_write_string->_LCD_send_commad
    _I2C_LCD_write_char->_LCD_data_sender
    _I2C_LCD_set_cursor->_LCD_send_commad
    _I2C_LCD_init->_LCD_send_commad
    _I2C_LCD_entry_mode->_LCD_send_commad
    _I2C_LCD_display_on_off_control->_LCD_send_commad
    _I2C_LCD_cursor_or_display_shift->_LCD_send_commad
    _I2C_LCD_clear->_LCD_send_commad
    _LCD_send_commad->_LCD_data_sender
    _LCD_data_sender->_I2C_IO_Expander_Writer
    _I2C_IO_Expander_Writer->_I2C_Master_Write

Critical Paths under _main in BANK0

    _main->_I2C_LCD_init
    _I2C_LCD_write_string->_I2C_LCD_write_char
    _I2C_LCD_write_string->_LCD_send_commad
    _I2C_LCD_set_cursor->_LCD_send_commad
    _I2C_LCD_init->_I2C_LCD_display_on_off_control
    _I2C_LCD_entry_mode->_LCD_send_commad
    _I2C_LCD_display_on_off_control->_LCD_send_commad
    _I2C_LCD_cursor_or_display_shift->_LCD_send_commad
    _I2C_LCD_clear->_LCD_send_commad

Critical Paths under _main in BANK1

    None.

Critical Paths under _main in BANK3

    None.

Critical Paths under _main in BANK2

    None.

Call Graph Tables:

 ---------------------------------------------------------------------------------
 (Depth) Function   	        Calls       Base Space   Used Autos Params    Refs
 ---------------------------------------------------------------------------------
 (0) _main                                                 7     7      0   26701
                                             14 BANK0      7     7      0
              _I2C_LCD_BackLight_OFF
                      _I2C_LCD_clear
    _I2C_LCD_cursor_or_display_shift
                       _I2C_LCD_init
                 _I2C_LCD_set_cursor
                 _I2C_LCD_write_char
               _I2C_LCD_write_string
              _I2C_Master_Initialize
             _Initial_Configurations
 ---------------------------------------------------------------------------------
 (1) _Initial_Configurations                               0     0      0       0
 ---------------------------------------------------------------------------------
 (1) _I2C_Master_Initialize                               10     4      6     608
                                              0 BANK0     10     4      6
                            ___lldiv
 ---------------------------------------------------------------------------------
 (2) ___lldiv                                             14     6      8     314
                                              0 COMMON    14     6      8
 ---------------------------------------------------------------------------------
 (1) _I2C_LCD_write_string                                 5     2      3    5484
                                             13 COMMON     1     1      0
                                              2 BANK0      4     1      3
                 _I2C_LCD_write_char
                    _LCD_send_commad
 ---------------------------------------------------------------------------------
 (2) _I2C_LCD_write_char                                   5     2      3    2040
                                             10 COMMON     3     0      3
                                              0 BANK0      2     2      0
                    _LCD_data_sender
 ---------------------------------------------------------------------------------
 (1) _I2C_LCD_set_cursor                                   6     2      4    3844
                                              2 BANK0      6     2      4
                    _LCD_send_commad
 ---------------------------------------------------------------------------------
 (1) _I2C_LCD_init                                         6     3      3    8946
                                             13 COMMON     1     1      0
                                              9 BANK0      5     2      3
     _I2C_LCD_display_on_off_control
                 _I2C_LCD_entry_mode
                    _LCD_send_commad
 ---------------------------------------------------------------------------------
 (2) _I2C_LCD_entry_mode                                   6     2      4    2800
                                              2 BANK0      6     2      4
                    _LCD_send_commad
 ---------------------------------------------------------------------------------
 (2) _I2C_LCD_display_on_off_control                       7     2      5    2898
                                              2 BANK0      7     2      5
                    _LCD_send_commad
 ---------------------------------------------------------------------------------
 (1) _I2C_LCD_cursor_or_display_shift                      6     2      4    3028
                                              2 BANK0      6     2      4
                    _LCD_send_commad
 ---------------------------------------------------------------------------------
 (1) _I2C_LCD_clear                                        4     2      2    2604
                                              2 BANK0      4     2      2
                    _LCD_send_commad
 ---------------------------------------------------------------------------------
 (2) _LCD_send_commad                                      5     2      3    2506
                                             10 COMMON     3     0      3
                                              0 BANK0      2     2      0
                    _LCD_data_sender
 ---------------------------------------------------------------------------------
 (3) _LCD_data_sender                                      7     3      4    1084
                                              3 COMMON     7     3      4
             _I2C_IO_Expander_Writer *
 ---------------------------------------------------------------------------------
 (4) _I2C_IO_Expander_Writer                               2     0      2     410
                                              1 COMMON     2     0      2
                   _I2C_Master_Start
                    _I2C_Master_Stop
                   _I2C_Master_Write
 ---------------------------------------------------------------------------------
 (5) _I2C_Master_Write                                     1     1      0      22
                                              0 COMMON     1     1      0
              _I2C_Master_Check_Idle
 ---------------------------------------------------------------------------------
 (5) _I2C_Master_Stop                                      0     0      0       0
              _I2C_Master_Check_Idle
 ---------------------------------------------------------------------------------
 (5) _I2C_Master_Start                                     0     0      0       0
              _I2C_Master_Check_Idle
 ---------------------------------------------------------------------------------
 (6) _I2C_Master_Check_Idle                                0     0      0       0
 ---------------------------------------------------------------------------------
 (1) _I2C_LCD_BackLight_OFF                                1     1      0      55
                                              0 COMMON     1     1      0
 ---------------------------------------------------------------------------------
 Estimated maximum stack depth 6
 ---------------------------------------------------------------------------------

 Call Graph Graphs:

 _main (ROOT)
   _I2C_LCD_BackLight_OFF
   _I2C_LCD_clear
     _LCD_send_commad
       _LCD_data_sender
         _I2C_IO_Expander_Writer *
           _I2C_Master_Start
             _I2C_Master_Check_Idle
           _I2C_Master_Stop
             _I2C_Master_Check_Idle
           _I2C_Master_Write
             _I2C_Master_Check_Idle
   _I2C_LCD_cursor_or_display_shift
     _LCD_send_commad
       _LCD_data_sender
         _I2C_IO_Expander_Writer *
           _I2C_Master_Start
             _I2C_Master_Check_Idle
           _I2C_Master_Stop
             _I2C_Master_Check_Idle
           _I2C_Master_Write
             _I2C_Master_Check_Idle
   _I2C_LCD_init
     _I2C_LCD_display_on_off_control
       _LCD_send_commad
         _LCD_data_sender
           _I2C_IO_Expander_Writer *
             _I2C_Master_Start
               _I2C_Master_Check_Idle
             _I2C_Master_Stop
               _I2C_Master_Check_Idle
             _I2C_Master_Write
               _I2C_Master_Check_Idle
     _I2C_LCD_entry_mode
       _LCD_send_commad
         _LCD_data_sender
           _I2C_IO_Expander_Writer *
             _I2C_Master_Start
               _I2C_Master_Check_Idle
             _I2C_Master_Stop
               _I2C_Master_Check_Idle
             _I2C_Master_Write
               _I2C_Master_Check_Idle
     _LCD_send_commad
       _LCD_data_sender
         _I2C_IO_Expander_Writer *
           _I2C_Master_Start
             _I2C_Master_Check_Idle
           _I2C_Master_Stop
             _I2C_Master_Check_Idle
           _I2C_Master_Write
             _I2C_Master_Check_Idle
   _I2C_LCD_set_cursor
     _LCD_send_commad
       _LCD_data_sender
         _I2C_IO_Expander_Writer *
           _I2C_Master_Start
             _I2C_Master_Check_Idle
           _I2C_Master_Stop
             _I2C_Master_Check_Idle
           _I2C_Master_Write
             _I2C_Master_Check_Idle
   _I2C_LCD_write_char
     _LCD_data_sender
       _I2C_IO_Expander_Writer *
         _I2C_Master_Start
           _I2C_Master_Check_Idle
         _I2C_Master_Stop
           _I2C_Master_Check_Idle
         _I2C_Master_Write
           _I2C_Master_Check_Idle
   _I2C_LCD_write_string
     _I2C_LCD_write_char
       _LCD_data_sender
         _I2C_IO_Expander_Writer *
           _I2C_Master_Start
             _I2C_Master_Check_Idle
           _I2C_Master_Stop
             _I2C_Master_Check_Idle
           _I2C_Master_Write
             _I2C_Master_Check_Idle
     _LCD_send_commad
       _LCD_data_sender
         _I2C_IO_Expander_Writer *
           _I2C_Master_Start
             _I2C_Master_Check_Idle
           _I2C_Master_Stop
             _I2C_Master_Check_Idle
           _I2C_Master_Write
             _I2C_Master_Check_Idle
   _I2C_Master_Initialize
     ___lldiv
   _Initial_Configurations

 Address spaces:
Name               Size   Autos  Total    Cost      Usage
BANK3               60      0       0       9        0.0%
BITBANK3            60      0       0       8        0.0%
SFR3                 0      0       0       4        0.0%
BITSFR3              0      0       0       4        0.0%
BANK2               60      0       0      11        0.0%
BITBANK2            60      0       0      10        0.0%
SFR2                 0      0       0       5        0.0%
BITSFR2              0      0       0       5        0.0%
BANK1               50      0       0       7        0.0%
BITBANK1            50      0       0       6        0.0%
SFR1                 0      0       0       2        0.0%
BITSFR1              0      0       0       2        0.0%
BANK0               50     15      1E       5       37.5%
BITBANK0            50      0       0       4        0.0%
SFR0                 0      0       0       1        0.0%
BITSFR0              0      0       0       1        0.0%
COMMON               E      E       E       1      100.0%
BITCOMMON            E      0       0       0        0.0%
CODE                 0      0       0       0        0.0%
DATA                 0      0      2C      12        0.0%
ABS                  0      0      2C       3        0.0%
NULL                 0      0       0       0        0.0%
STACK                0      0       0       2        0.0%
EEDATA             100      0       0       0        0.0%


Microchip Technology PIC Macro Assembler V2.10 build 88905656 
Symbol Table                                                                                   Thu Apr 08 23:18:53 2021

                                       pc 0002                    ?_I2C_Master_Check_Idle 0070  
                             __CFG_CP$OFF 0000                               _SSPSTATbits 0094  
                                      l31 0335                                        l40 0295  
                                      l25 0424                                        l34 028C  
                                      l28 031B                                        l49 02A8  
                                      l97 0301            __end_of_Initial_Configurations 0302  
                                      fsr 0004                                       l110 02EA  
                                     l133 04DB                                       l136 02BD  
                                     l161 0352                                       l146 03D5  
                                     l155 036F                                       l139 02D3  
                                     l164 05BE                                       l149 031A  
                                     l173 047A                                       l158 038D  
                                     l343 0541                                       l179 0283  
             __size_of_I2C_LCD_set_cursor 0056                                       u400 0329  
                                     u401 0328                                       u410 032D  
                                     u411 032C                                       u420 0331  
                                     u500 051B                                       u421 0330  
                                     u501 051A                                       u430 0335  
                                     u431 0334                                       u520 0539  
                                     u600 07DB                                       u521 0538  
                                     u505 0517                                       u601 07DA  
                            __CFG_CPD$OFF 0000                                       u515 052B  
                                     u380 0321                                       u460 04EC  
                                     u381 0320                                       u445 04A9  
                                     u461 04EB                                       u605 07D7  
                                     u390 0325                                       u550 0405  
                                     u391 0324                                       u455 04C6  
                                     u535 03DB                                       u560 039F  
                                     u480 0500                                       u561 039E  
                                     u481 04FF                                       u545 03E3  
                                     u617 063C                                       u570 03D5  
                                     u571 03D4                                       u475 04F1  
                                     u555 0400                                       u707 07C0  
                                     u627 06A0                                       u717 0568  
                                     u637 06BD                                       u590 07A2  
                                     u727 036A                                       u495 0502  
                                     u591 07A1                                       u647 06DA  
                                     u737 0388                                       u657 06F7  
                                     u747 034D                                       u595 079E  
                                     u667 0714                                       u757 0315  
                                     u677 0731                                       u687 0761  
                                     u697 0787                  ??_I2C_IO_Expander_Writer 0073  
                                     fsr0 0004                                       indf 0000  
                            __CFG_FOSC$HS 0000                              __CFG_LVP$OFF 0000  
                            _I2C_LCD_init 0542                                      l1201 02A9  
                                    l1203 02AC                                      l1211 0364  
                                    l1213 0370                                      l1301 0435  
                                    l1205 02BE                                      l1221 04EF  
                                    l1215 0382                                      l1303 0444  
                                    l1207 02C2                                      l1231 0529  
                                    l1223 04FC                                      l1209 0353  
                                    l1305 0453                                      l1233 052A  
                                    l1225 0500                                      l1217 04DC  
                                    l1241 03D6                                      l1401 0768  
                                    l1315 027F                                      l1171 032D  
                                    l1163 031B                                      l1235 0533  
                                    l1227 0509                                      l1219 04EC  
                                    l1251 0423                                      l1243 03EE  
                                    l1411 078D                                      l1173 0331  
                                    l1165 0321                                      l1181 0292  
                                    l1309 0462                                      l1229 051B  
                                    l1237 0539                                      l1245 03F2  
                                    l1261 02FE                                      l1253 02EB  
                                    l1421 07A8                                      l1413 0795  
                                    l1167 0325                                      l1175 0284  
                                    l1183 0297                                      l1271 03C2  
                                    l1263 038E                                      l1247 03F5  
                                    l1255 02ED                                      l1423 07B8  
                                    l1415 07A2                                      l1407 076C  
                                    l1351 05BF                                      l1169 0329  
                                    l1177 0289                                      l1185 029C  
                                    l1193 02D4                                      l1281 0347  
                                    l1265 0392                                      l1273 03C8  
                                    l1249 0422                                      l1257 02F3  
                                    l1425 07C6                                      l1409 077F  
                                    l1361 0616                                      l1353 05D6  
                                    l1179 028D                                      l1187 02A0  
                                    l1195 02D9                                      l1275 0302  
                                    l1291 0582                                      l1283 0543  
                                    l1267 039F                                      l1259 02F7  
                                    l1427 07CE                                      l1371 065C  
                                    l1363 0625                                      l1355 05E7  
                                    l1189 02A5                                      l1197 02DF  
                                    l1277 030F                                      l1293 0597  
                                    l1285 0552                                      l1269 03AC  
                                    l1381 06B5                                      l1373 066B  
                                    l1365 0634                                      l1357 05F8  
                                    l1199 047B                                      l1279 0336  
                                    l1295 05AB                                      l1287 0562  
                                    l1391 071A                                      l1383 06C3  
                                    l1375 0676                                      l1367 0643  
                                    l1359 0607                                      l1289 056D  
                                    l1449 046C                                      l1297 0425  
                                    l1393 0729                                      l1385 06E0  
                                    l1377 0689                                      l1369 0649  
                                    l1299 0426                                      l1395 0737  
                                    l1387 06EF                                      l1379 0698  
                                    l1397 074A                                      l1389 070C  
                                    l1399 0759                                      STR_1 0030  
                                    STR_2 0035                                      STR_3 0019  
                                    STR_4 0024                                      STR_5 002A  
                                    _LCD1 0038                                      _LCD2 0036  
                            __CFG_WRT$OFF 0000                                      _main 05BF  
                                    btemp 007E                             __CFG_BOREN$ON 0000  
                                    start 0000                      __end_of_Lcd_RW_State 0019  
                           _I2C_LCD_clear 0302                          ?_I2C_Master_Stop 0070  
                  ??_I2C_LCD_write_string 007D                                     ?_main 0070  
                           __CFG_WDTE$OFF 0000                           __end_of___lldiv 0542  
                                   _PORTA 0005                                     _PORTB 0006  
                                   _PORTD 0008                                     _TRISA 0085  
                                   _TRISB 0086                                     _TRISD 0088  
             __size_of_I2C_LCD_write_char 0016                                     main@i 0031  
                                   fpbase 0008         I2C_IO_Expander_Writer@I2C_Address 0071  
                                   pclath 000A                    ?_I2C_Master_Initialize 0020  
                                   status 0003                         ??_LCD_data_sender 0077  
                                   wtemp0 007E                 I2C_LCD_entry_mode@LCD_Obj 0022  
                         __initialization 07DF                              __end_of_main 07DF  
                          ?_I2C_LCD_clear 0022                                    ??_main 002E  
   I2C_LCD_display_on_off_control@LCD_Obj 0022            I2C_Master_Write@Master_Tx_Data 0070  
         __size_of_I2C_IO_Expander_Writer 0017                         ?_I2C_Master_Start 0070  
                       ?_I2C_Master_Write 0070                        ??_I2C_Master_Start 0070  
                      ??_I2C_Master_Write 0070               I2C_LCD_init@I2C_LCD_Address 0029  
                                  _SSPADD 0093                                    _SSPCON 0014  
                                  _SSPBUF 0013                          __end_of__fptable 0012  
        ??_I2C_LCD_display_on_off_control 0027           ?_I2C_LCD_display_on_off_control 0022  
                          __CFG_PWRTE$OFF 0000                    LCD_data_sender@LCD_Obj 0073  
      I2C_Master_Initialize@I2C_CKE_OnOff 0025                                 ??___lldiv 0078  
                                  fptable 0003                                    fptotal 0008  
                __size_of_LCD_send_commad 0015                        fp__LCD_send_commad 000F  
                 __end_of__initialization 07FC                     entry__LCD_send_commad 000F  
                  _I2C_IO_Expander_Writer 02D4                   ??_I2C_Master_Check_Idle 0070  
                         ??_I2C_LCD_clear 0024                            __pcstackCOMMON 0070  
                            __pidataBANK0 027A        I2C_Master_Initialize@I2C_SMP_OnOff 0024  
              __end_of_I2C_LCD_entry_mode 0370                              _Lcd_RS_State 0035  
                            _Lcd_RW_State 0018                                __pbssBANK0 0035  
 __end_of_I2C_LCD_cursor_or_display_shift 0353  __size_of_I2C_LCD_cursor_or_display_shift 001D  
       ??_I2C_LCD_cursor_or_display_shift 0026          ?_I2C_LCD_cursor_or_display_shift 0022  
         _I2C_LCD_cursor_or_display_shift 0336                     _I2C_LCD_BackLight_OFF 027E  
                              __pmaintext 05BF           I2C_LCD_display_on_off_control@B 0026  
         I2C_LCD_display_on_off_control@C 0025           I2C_LCD_display_on_off_control@D 0024  
              __end_of_I2C_LCD_set_cursor 047B         I2C_Master_Initialize@I2C_BaudRate 0020  
                         _LCD_data_sender 047B                     I2C_LCD_set_cursor@row 0024  
                 ??_I2C_Master_Initialize 0026                                   _SSPCON2 0091  
                                 _SSPSTAT 0094                                __stringtab 0012  
                       ??_LCD_send_commad 0020                                   ___lldiv 04DC  
                                 __ptext1 02EB                                   __ptext2 03D6  
                                 __ptext3 04DC                                   __ptext4 038E  
                                 __ptext5 02BE                                   __ptext6 0425  
                                 __ptext7 0542                                   __ptext8 0353  
                                 __ptext9 0370             __size_of_I2C_LCD_write_string 0048  
              __end_of_I2C_LCD_write_char 02D4                             I2C_LCD_init@F 002B  
                           I2C_LCD_init@N 002A                  __size_of_I2C_Master_Stop 0009  
                    end_of_initialization 07FC                 __size_of_I2C_Master_Start 0009  
               __size_of_I2C_Master_Write 0013                 I2C_LCD_set_cursor@LCD_Obj 0022  
                  ?_I2C_LCD_BackLight_OFF 0070                           ___lldiv@divisor 0070  
                         ___lldiv@counter 007D                  ??_Initial_Configurations 0070  
               fp__I2C_IO_Expander_Writer 0009                      I2C_LCD_clear@LCD_Obj 0022  
                 __end_of_LCD_data_sender 04DC                                 _TRISCbits 0087  
                 ?_I2C_IO_Expander_Writer 0071               I2C_LCD_write_string@LCD_Obj 0022  
   I2C_LCD_cursor_or_display_shift@R_or_L 0025     I2C_LCD_cursor_or_display_shift@S_or_C 0024  
                  LCD_send_commad@LCD_Obj 007A            __size_of_I2C_Master_Check_Idle 001B  
           __end_of_I2C_Master_Check_Idle 0336                         _p_LCD_data_sender 003B  
                     start_initialization 07DF                             ?_I2C_LCD_init 0029  
          __end_of_I2C_IO_Expander_Writer 02EB                        _I2C_LCD_entry_mode 0353  
                       ??_I2C_Master_Stop 0070                       ?_I2C_LCD_entry_mode 0022  
         __size_of_Initial_Configurations 0017                     __end_of_I2C_LCD_clear 031B  
  I2C_LCD_cursor_or_display_shift@LCD_Obj 0022                               __pdataBANK0 003A  
                        ?_LCD_data_sender 0073                       I2C_LCD_entry_mode@S 0025  
                         _LCD_send_commad 02A9                                 ___latbits 0002  
                    ??_I2C_LCD_entry_mode 0026                             __pcstackBANK0 0020  
                          ??_I2C_LCD_init 002C                         __size_of__fptable 000F  
                      _I2C_LCD_set_cursor 0425            __size_of_I2C_Master_Initialize 004F  
           __end_of_I2C_Master_Initialize 0425                     I2C_LCD_write_char@chr 007C  
                     ?_I2C_LCD_set_cursor 0022                          _I2C_Master_Start 0284  
                        _I2C_Master_Write 0296                        LCD_send_commad@cmd 007C  
        I2C_LCD_BackLight_OFF@LCD_Obj_Add 0070                                 __pfunctab 0003  
                                ?___lldiv 0070                                 __pstrings 0012  
                    ??_I2C_LCD_set_cursor 0026            I2C_IO_Expander_Writer@I2C_Data 0072  
                  _Initial_Configurations 02EB                     I2C_LCD_write_string@i 0025  
                 ??_I2C_LCD_BackLight_OFF 0070                        _I2C_LCD_write_char 02BE  
            __end_of_I2C_LCD_write_string 03D6                                  _PIE1bits 008C  
                                _PIR1bits 000C                       ?_I2C_LCD_write_char 007A  
        LCD_data_sender@callback_function 0076                   __end_of_LCD_send_commad 02BE  
                             __stringbase 0017                                 main@i_547 0033  
                    ??_I2C_LCD_write_char 0020                  I2C_LCD_entry_mode@I_or_D 0024  
                       _p_LCD_send_commad 003A                      __end_of_I2C_LCD_init 05BF  
                        __size_of___lldiv 0066                  _p_I2C_IO_Expander_Writer 003D  
                      __end_of__stringtab 0018                                  __fptable 0003  
                 I2C_LCD_write_string@str 0024                           _I2C_Master_Stop 028D  
                                __ptext10 0336                                  __ptext11 0302  
                                __ptext12 02A9                                  __ptext13 047B  
                                __ptext14 02D4                                  __ptext15 0296  
                                __ptext16 028D                                  __ptext17 0284  
                                __ptext18 031B                                  __ptext19 027E  
                         _BackLight_State 003C                             __size_of_main 0220  
                        ?_LCD_send_commad 007A                     _I2C_Master_Check_Idle 031B  
                    _I2C_LCD_write_string 038E                  __end_of_I2C_Master_Start 028D  
  __end_of_I2C_LCD_display_on_off_control 038E   __size_of_I2C_LCD_display_on_off_control 001E  
          _I2C_LCD_display_on_off_control 0370                  __end_of_I2C_Master_Write 02A9  
                              _INTCONbits 000B                   I2C_LCD_init@LCD_Obj_Add 007D  
                     LCD_data_sender@data 0075                 I2C_LCD_write_char@LCD_Obj 007A  
                        ___lldiv@dividend 0074                                 stringcode 0012  
                 __end_of_I2C_Master_Stop 0296                   ?_Initial_Configurations 0070  
                   ?_I2C_LCD_write_string 0022                          ___lldiv@quotient 0079  
                                stringdir 0012                                  stringtab 0012  
                I2C_LCD_set_cursor@colomn 0025               __size_of_I2C_LCD_entry_mode 001D  
                __size_of_LCD_data_sender 0061                               _SSPCON2bits 0091  
                      fp__LCD_data_sender 000C                    __size_of_I2C_LCD_clear 0019  
                   _I2C_Master_Initialize 03D6            __size_of_I2C_LCD_BackLight_OFF 0006  
                   __size_of_I2C_LCD_init 007D             __end_of_I2C_LCD_BackLight_OFF 0284  
                              _SSPCONbits 0014                     entry__LCD_data_sender 000C  
